ARM GAS  /tmp/ccyaTnsP.s 			page 1


   1              		.cpu cortex-m4
   2              		.arch armv7e-m
   3              		.fpu softvfp
   4              		.eabi_attribute 20, 1
   5              		.eabi_attribute 21, 1
   6              		.eabi_attribute 23, 3
   7              		.eabi_attribute 24, 1
   8              		.eabi_attribute 25, 1
   9              		.eabi_attribute 26, 1
  10              		.eabi_attribute 30, 1
  11              		.eabi_attribute 34, 1
  12              		.eabi_attribute 18, 4
  13              		.file	"heap_4.c"
  14              		.text
  15              	.Ltext0:
  16              		.cfi_sections	.debug_frame
  17              		.file 1 "Middlewares/Third_Party/FreeRTOS/Source/portable/MemMang/heap_4.c"
  18              		.section	.text.prvHeapInit,"ax",%progbits
  19              		.align	1
  20              		.syntax unified
  21              		.thumb
  22              		.thumb_func
  24              	prvHeapInit:
  25              	.LFB10:
   1:Middlewares/Third_Party/FreeRTOS/Source/portable/MemMang/heap_4.c **** /*
   2:Middlewares/Third_Party/FreeRTOS/Source/portable/MemMang/heap_4.c ****  * FreeRTOS Kernel V10.6.2
   3:Middlewares/Third_Party/FreeRTOS/Source/portable/MemMang/heap_4.c ****  * Copyright (C) 2021 Amazon.com, Inc. or its affiliates.  All Rights Reserved.
   4:Middlewares/Third_Party/FreeRTOS/Source/portable/MemMang/heap_4.c ****  *
   5:Middlewares/Third_Party/FreeRTOS/Source/portable/MemMang/heap_4.c ****  * SPDX-License-Identifier: MIT
   6:Middlewares/Third_Party/FreeRTOS/Source/portable/MemMang/heap_4.c ****  *
   7:Middlewares/Third_Party/FreeRTOS/Source/portable/MemMang/heap_4.c ****  * Permission is hereby granted, free of charge, to any person obtaining a copy of
   8:Middlewares/Third_Party/FreeRTOS/Source/portable/MemMang/heap_4.c ****  * this software and associated documentation files (the "Software"), to deal in
   9:Middlewares/Third_Party/FreeRTOS/Source/portable/MemMang/heap_4.c ****  * the Software without restriction, including without limitation the rights to
  10:Middlewares/Third_Party/FreeRTOS/Source/portable/MemMang/heap_4.c ****  * use, copy, modify, merge, publish, distribute, sublicense, and/or sell copies of
  11:Middlewares/Third_Party/FreeRTOS/Source/portable/MemMang/heap_4.c ****  * the Software, and to permit persons to whom the Software is furnished to do so,
  12:Middlewares/Third_Party/FreeRTOS/Source/portable/MemMang/heap_4.c ****  * subject to the following conditions:
  13:Middlewares/Third_Party/FreeRTOS/Source/portable/MemMang/heap_4.c ****  *
  14:Middlewares/Third_Party/FreeRTOS/Source/portable/MemMang/heap_4.c ****  * The above copyright notice and this permission notice shall be included in all
  15:Middlewares/Third_Party/FreeRTOS/Source/portable/MemMang/heap_4.c ****  * copies or substantial portions of the Software.
  16:Middlewares/Third_Party/FreeRTOS/Source/portable/MemMang/heap_4.c ****  *
  17:Middlewares/Third_Party/FreeRTOS/Source/portable/MemMang/heap_4.c ****  * THE SOFTWARE IS PROVIDED "AS IS", WITHOUT WARRANTY OF ANY KIND, EXPRESS OR
  18:Middlewares/Third_Party/FreeRTOS/Source/portable/MemMang/heap_4.c ****  * IMPLIED, INCLUDING BUT NOT LIMITED TO THE WARRANTIES OF MERCHANTABILITY, FITNESS
  19:Middlewares/Third_Party/FreeRTOS/Source/portable/MemMang/heap_4.c ****  * FOR A PARTICULAR PURPOSE AND NONINFRINGEMENT. IN NO EVENT SHALL THE AUTHORS OR
  20:Middlewares/Third_Party/FreeRTOS/Source/portable/MemMang/heap_4.c ****  * COPYRIGHT HOLDERS BE LIABLE FOR ANY CLAIM, DAMAGES OR OTHER LIABILITY, WHETHER
  21:Middlewares/Third_Party/FreeRTOS/Source/portable/MemMang/heap_4.c ****  * IN AN ACTION OF CONTRACT, TORT OR OTHERWISE, ARISING FROM, OUT OF OR IN
  22:Middlewares/Third_Party/FreeRTOS/Source/portable/MemMang/heap_4.c ****  * CONNECTION WITH THE SOFTWARE OR THE USE OR OTHER DEALINGS IN THE SOFTWARE.
  23:Middlewares/Third_Party/FreeRTOS/Source/portable/MemMang/heap_4.c ****  *
  24:Middlewares/Third_Party/FreeRTOS/Source/portable/MemMang/heap_4.c ****  * https://www.FreeRTOS.org
  25:Middlewares/Third_Party/FreeRTOS/Source/portable/MemMang/heap_4.c ****  * https://github.com/FreeRTOS
  26:Middlewares/Third_Party/FreeRTOS/Source/portable/MemMang/heap_4.c ****  *
  27:Middlewares/Third_Party/FreeRTOS/Source/portable/MemMang/heap_4.c ****  */
  28:Middlewares/Third_Party/FreeRTOS/Source/portable/MemMang/heap_4.c **** 
  29:Middlewares/Third_Party/FreeRTOS/Source/portable/MemMang/heap_4.c **** /*
  30:Middlewares/Third_Party/FreeRTOS/Source/portable/MemMang/heap_4.c ****  * A sample implementation of pvPortMalloc() and vPortFree() that combines
  31:Middlewares/Third_Party/FreeRTOS/Source/portable/MemMang/heap_4.c ****  * (coalescences) adjacent memory blocks as they are freed, and in so doing
  32:Middlewares/Third_Party/FreeRTOS/Source/portable/MemMang/heap_4.c ****  * limits memory fragmentation.
  33:Middlewares/Third_Party/FreeRTOS/Source/portable/MemMang/heap_4.c ****  *
ARM GAS  /tmp/ccyaTnsP.s 			page 2


  34:Middlewares/Third_Party/FreeRTOS/Source/portable/MemMang/heap_4.c ****  * See heap_1.c, heap_2.c and heap_3.c for alternative implementations, and the
  35:Middlewares/Third_Party/FreeRTOS/Source/portable/MemMang/heap_4.c ****  * memory management pages of https://www.FreeRTOS.org for more information.
  36:Middlewares/Third_Party/FreeRTOS/Source/portable/MemMang/heap_4.c ****  */
  37:Middlewares/Third_Party/FreeRTOS/Source/portable/MemMang/heap_4.c **** #include <stdlib.h>
  38:Middlewares/Third_Party/FreeRTOS/Source/portable/MemMang/heap_4.c **** #include <string.h>
  39:Middlewares/Third_Party/FreeRTOS/Source/portable/MemMang/heap_4.c **** 
  40:Middlewares/Third_Party/FreeRTOS/Source/portable/MemMang/heap_4.c **** /* Defining MPU_WRAPPERS_INCLUDED_FROM_API_FILE prevents task.h from redefining
  41:Middlewares/Third_Party/FreeRTOS/Source/portable/MemMang/heap_4.c ****  * all the API functions to use the MPU wrappers.  That should only be done when
  42:Middlewares/Third_Party/FreeRTOS/Source/portable/MemMang/heap_4.c ****  * task.h is included from an application file. */
  43:Middlewares/Third_Party/FreeRTOS/Source/portable/MemMang/heap_4.c **** #define MPU_WRAPPERS_INCLUDED_FROM_API_FILE
  44:Middlewares/Third_Party/FreeRTOS/Source/portable/MemMang/heap_4.c **** 
  45:Middlewares/Third_Party/FreeRTOS/Source/portable/MemMang/heap_4.c **** #include "FreeRTOS.h"
  46:Middlewares/Third_Party/FreeRTOS/Source/portable/MemMang/heap_4.c **** #include "task.h"
  47:Middlewares/Third_Party/FreeRTOS/Source/portable/MemMang/heap_4.c **** 
  48:Middlewares/Third_Party/FreeRTOS/Source/portable/MemMang/heap_4.c **** #undef MPU_WRAPPERS_INCLUDED_FROM_API_FILE
  49:Middlewares/Third_Party/FreeRTOS/Source/portable/MemMang/heap_4.c **** 
  50:Middlewares/Third_Party/FreeRTOS/Source/portable/MemMang/heap_4.c **** #if ( configSUPPORT_DYNAMIC_ALLOCATION == 0 )
  51:Middlewares/Third_Party/FreeRTOS/Source/portable/MemMang/heap_4.c ****     #error This file must not be used if configSUPPORT_DYNAMIC_ALLOCATION is 0
  52:Middlewares/Third_Party/FreeRTOS/Source/portable/MemMang/heap_4.c **** #endif
  53:Middlewares/Third_Party/FreeRTOS/Source/portable/MemMang/heap_4.c **** 
  54:Middlewares/Third_Party/FreeRTOS/Source/portable/MemMang/heap_4.c **** #ifndef configHEAP_CLEAR_MEMORY_ON_FREE
  55:Middlewares/Third_Party/FreeRTOS/Source/portable/MemMang/heap_4.c ****     #define configHEAP_CLEAR_MEMORY_ON_FREE    0
  56:Middlewares/Third_Party/FreeRTOS/Source/portable/MemMang/heap_4.c **** #endif
  57:Middlewares/Third_Party/FreeRTOS/Source/portable/MemMang/heap_4.c **** 
  58:Middlewares/Third_Party/FreeRTOS/Source/portable/MemMang/heap_4.c **** /* Block sizes must not get too small. */
  59:Middlewares/Third_Party/FreeRTOS/Source/portable/MemMang/heap_4.c **** #define heapMINIMUM_BLOCK_SIZE    ( ( size_t ) ( xHeapStructSize << 1 ) )
  60:Middlewares/Third_Party/FreeRTOS/Source/portable/MemMang/heap_4.c **** 
  61:Middlewares/Third_Party/FreeRTOS/Source/portable/MemMang/heap_4.c **** /* Assumes 8bit bytes! */
  62:Middlewares/Third_Party/FreeRTOS/Source/portable/MemMang/heap_4.c **** #define heapBITS_PER_BYTE         ( ( size_t ) 8 )
  63:Middlewares/Third_Party/FreeRTOS/Source/portable/MemMang/heap_4.c **** 
  64:Middlewares/Third_Party/FreeRTOS/Source/portable/MemMang/heap_4.c **** /* Max value that fits in a size_t type. */
  65:Middlewares/Third_Party/FreeRTOS/Source/portable/MemMang/heap_4.c **** #define heapSIZE_MAX              ( ~( ( size_t ) 0 ) )
  66:Middlewares/Third_Party/FreeRTOS/Source/portable/MemMang/heap_4.c **** 
  67:Middlewares/Third_Party/FreeRTOS/Source/portable/MemMang/heap_4.c **** /* Check if multiplying a and b will result in overflow. */
  68:Middlewares/Third_Party/FreeRTOS/Source/portable/MemMang/heap_4.c **** #define heapMULTIPLY_WILL_OVERFLOW( a, b )    ( ( ( a ) > 0 ) && ( ( b ) > ( heapSIZE_MAX / ( a ) )
  69:Middlewares/Third_Party/FreeRTOS/Source/portable/MemMang/heap_4.c **** 
  70:Middlewares/Third_Party/FreeRTOS/Source/portable/MemMang/heap_4.c **** /* Check if adding a and b will result in overflow. */
  71:Middlewares/Third_Party/FreeRTOS/Source/portable/MemMang/heap_4.c **** #define heapADD_WILL_OVERFLOW( a, b )         ( ( a ) > ( heapSIZE_MAX - ( b ) ) )
  72:Middlewares/Third_Party/FreeRTOS/Source/portable/MemMang/heap_4.c **** 
  73:Middlewares/Third_Party/FreeRTOS/Source/portable/MemMang/heap_4.c **** /* MSB of the xBlockSize member of an BlockLink_t structure is used to track
  74:Middlewares/Third_Party/FreeRTOS/Source/portable/MemMang/heap_4.c ****  * the allocation status of a block.  When MSB of the xBlockSize member of
  75:Middlewares/Third_Party/FreeRTOS/Source/portable/MemMang/heap_4.c ****  * an BlockLink_t structure is set then the block belongs to the application.
  76:Middlewares/Third_Party/FreeRTOS/Source/portable/MemMang/heap_4.c ****  * When the bit is free the block is still part of the free heap space. */
  77:Middlewares/Third_Party/FreeRTOS/Source/portable/MemMang/heap_4.c **** #define heapBLOCK_ALLOCATED_BITMASK    ( ( ( size_t ) 1 ) << ( ( sizeof( size_t ) * heapBITS_PER_BY
  78:Middlewares/Third_Party/FreeRTOS/Source/portable/MemMang/heap_4.c **** #define heapBLOCK_SIZE_IS_VALID( xBlockSize )    ( ( ( xBlockSize ) & heapBLOCK_ALLOCATED_BITMASK )
  79:Middlewares/Third_Party/FreeRTOS/Source/portable/MemMang/heap_4.c **** #define heapBLOCK_IS_ALLOCATED( pxBlock )        ( ( ( pxBlock->xBlockSize ) & heapBLOCK_ALLOCATED_
  80:Middlewares/Third_Party/FreeRTOS/Source/portable/MemMang/heap_4.c **** #define heapALLOCATE_BLOCK( pxBlock )            ( ( pxBlock->xBlockSize ) |= heapBLOCK_ALLOCATED_B
  81:Middlewares/Third_Party/FreeRTOS/Source/portable/MemMang/heap_4.c **** #define heapFREE_BLOCK( pxBlock )                ( ( pxBlock->xBlockSize ) &= ~heapBLOCK_ALLOCATED_
  82:Middlewares/Third_Party/FreeRTOS/Source/portable/MemMang/heap_4.c **** 
  83:Middlewares/Third_Party/FreeRTOS/Source/portable/MemMang/heap_4.c **** /*-----------------------------------------------------------*/
  84:Middlewares/Third_Party/FreeRTOS/Source/portable/MemMang/heap_4.c **** 
  85:Middlewares/Third_Party/FreeRTOS/Source/portable/MemMang/heap_4.c **** /* Allocate the memory for the heap. */
  86:Middlewares/Third_Party/FreeRTOS/Source/portable/MemMang/heap_4.c **** #if ( configAPPLICATION_ALLOCATED_HEAP == 1 )
  87:Middlewares/Third_Party/FreeRTOS/Source/portable/MemMang/heap_4.c **** 
  88:Middlewares/Third_Party/FreeRTOS/Source/portable/MemMang/heap_4.c **** /* The application writer has already defined the array used for the RTOS
  89:Middlewares/Third_Party/FreeRTOS/Source/portable/MemMang/heap_4.c **** * heap - probably so it can be placed in a special segment or address. */
  90:Middlewares/Third_Party/FreeRTOS/Source/portable/MemMang/heap_4.c ****     extern uint8_t ucHeap[ configTOTAL_HEAP_SIZE ];
ARM GAS  /tmp/ccyaTnsP.s 			page 3


  91:Middlewares/Third_Party/FreeRTOS/Source/portable/MemMang/heap_4.c **** #else
  92:Middlewares/Third_Party/FreeRTOS/Source/portable/MemMang/heap_4.c ****     PRIVILEGED_DATA static uint8_t ucHeap[ configTOTAL_HEAP_SIZE ];
  93:Middlewares/Third_Party/FreeRTOS/Source/portable/MemMang/heap_4.c **** #endif /* configAPPLICATION_ALLOCATED_HEAP */
  94:Middlewares/Third_Party/FreeRTOS/Source/portable/MemMang/heap_4.c **** 
  95:Middlewares/Third_Party/FreeRTOS/Source/portable/MemMang/heap_4.c **** /* Define the linked list structure.  This is used to link free blocks in order
  96:Middlewares/Third_Party/FreeRTOS/Source/portable/MemMang/heap_4.c ****  * of their memory address. */
  97:Middlewares/Third_Party/FreeRTOS/Source/portable/MemMang/heap_4.c **** typedef struct A_BLOCK_LINK
  98:Middlewares/Third_Party/FreeRTOS/Source/portable/MemMang/heap_4.c **** {
  99:Middlewares/Third_Party/FreeRTOS/Source/portable/MemMang/heap_4.c ****     struct A_BLOCK_LINK * pxNextFreeBlock; /**< The next free block in the list. */
 100:Middlewares/Third_Party/FreeRTOS/Source/portable/MemMang/heap_4.c ****     size_t xBlockSize;                     /**< The size of the free block. */
 101:Middlewares/Third_Party/FreeRTOS/Source/portable/MemMang/heap_4.c **** } BlockLink_t;
 102:Middlewares/Third_Party/FreeRTOS/Source/portable/MemMang/heap_4.c **** 
 103:Middlewares/Third_Party/FreeRTOS/Source/portable/MemMang/heap_4.c **** /*-----------------------------------------------------------*/
 104:Middlewares/Third_Party/FreeRTOS/Source/portable/MemMang/heap_4.c **** 
 105:Middlewares/Third_Party/FreeRTOS/Source/portable/MemMang/heap_4.c **** /*
 106:Middlewares/Third_Party/FreeRTOS/Source/portable/MemMang/heap_4.c ****  * Inserts a block of memory that is being freed into the correct position in
 107:Middlewares/Third_Party/FreeRTOS/Source/portable/MemMang/heap_4.c ****  * the list of free memory blocks.  The block being freed will be merged with
 108:Middlewares/Third_Party/FreeRTOS/Source/portable/MemMang/heap_4.c ****  * the block in front it and/or the block behind it if the memory blocks are
 109:Middlewares/Third_Party/FreeRTOS/Source/portable/MemMang/heap_4.c ****  * adjacent to each other.
 110:Middlewares/Third_Party/FreeRTOS/Source/portable/MemMang/heap_4.c ****  */
 111:Middlewares/Third_Party/FreeRTOS/Source/portable/MemMang/heap_4.c **** static void prvInsertBlockIntoFreeList( BlockLink_t * pxBlockToInsert ) PRIVILEGED_FUNCTION;
 112:Middlewares/Third_Party/FreeRTOS/Source/portable/MemMang/heap_4.c **** 
 113:Middlewares/Third_Party/FreeRTOS/Source/portable/MemMang/heap_4.c **** /*
 114:Middlewares/Third_Party/FreeRTOS/Source/portable/MemMang/heap_4.c ****  * Called automatically to setup the required heap structures the first time
 115:Middlewares/Third_Party/FreeRTOS/Source/portable/MemMang/heap_4.c ****  * pvPortMalloc() is called.
 116:Middlewares/Third_Party/FreeRTOS/Source/portable/MemMang/heap_4.c ****  */
 117:Middlewares/Third_Party/FreeRTOS/Source/portable/MemMang/heap_4.c **** static void prvHeapInit( void ) PRIVILEGED_FUNCTION;
 118:Middlewares/Third_Party/FreeRTOS/Source/portable/MemMang/heap_4.c **** 
 119:Middlewares/Third_Party/FreeRTOS/Source/portable/MemMang/heap_4.c **** /*-----------------------------------------------------------*/
 120:Middlewares/Third_Party/FreeRTOS/Source/portable/MemMang/heap_4.c **** 
 121:Middlewares/Third_Party/FreeRTOS/Source/portable/MemMang/heap_4.c **** /* The size of the structure placed at the beginning of each allocated memory
 122:Middlewares/Third_Party/FreeRTOS/Source/portable/MemMang/heap_4.c ****  * block must by correctly byte aligned. */
 123:Middlewares/Third_Party/FreeRTOS/Source/portable/MemMang/heap_4.c **** static const size_t xHeapStructSize = ( sizeof( BlockLink_t ) + ( ( size_t ) ( portBYTE_ALIGNMENT -
 124:Middlewares/Third_Party/FreeRTOS/Source/portable/MemMang/heap_4.c **** 
 125:Middlewares/Third_Party/FreeRTOS/Source/portable/MemMang/heap_4.c **** /* Create a couple of list links to mark the start and end of the list. */
 126:Middlewares/Third_Party/FreeRTOS/Source/portable/MemMang/heap_4.c **** PRIVILEGED_DATA static BlockLink_t xStart;
 127:Middlewares/Third_Party/FreeRTOS/Source/portable/MemMang/heap_4.c **** PRIVILEGED_DATA static BlockLink_t * pxEnd = NULL;
 128:Middlewares/Third_Party/FreeRTOS/Source/portable/MemMang/heap_4.c **** 
 129:Middlewares/Third_Party/FreeRTOS/Source/portable/MemMang/heap_4.c **** /* Keeps track of the number of calls to allocate and free memory as well as the
 130:Middlewares/Third_Party/FreeRTOS/Source/portable/MemMang/heap_4.c ****  * number of free bytes remaining, but says nothing about fragmentation. */
 131:Middlewares/Third_Party/FreeRTOS/Source/portable/MemMang/heap_4.c **** PRIVILEGED_DATA static size_t xFreeBytesRemaining = 0U;
 132:Middlewares/Third_Party/FreeRTOS/Source/portable/MemMang/heap_4.c **** PRIVILEGED_DATA static size_t xMinimumEverFreeBytesRemaining = 0U;
 133:Middlewares/Third_Party/FreeRTOS/Source/portable/MemMang/heap_4.c **** PRIVILEGED_DATA static size_t xNumberOfSuccessfulAllocations = 0;
 134:Middlewares/Third_Party/FreeRTOS/Source/portable/MemMang/heap_4.c **** PRIVILEGED_DATA static size_t xNumberOfSuccessfulFrees = 0;
 135:Middlewares/Third_Party/FreeRTOS/Source/portable/MemMang/heap_4.c **** 
 136:Middlewares/Third_Party/FreeRTOS/Source/portable/MemMang/heap_4.c **** /*-----------------------------------------------------------*/
 137:Middlewares/Third_Party/FreeRTOS/Source/portable/MemMang/heap_4.c **** 
 138:Middlewares/Third_Party/FreeRTOS/Source/portable/MemMang/heap_4.c **** void * pvPortMalloc( size_t xWantedSize )
 139:Middlewares/Third_Party/FreeRTOS/Source/portable/MemMang/heap_4.c **** {
 140:Middlewares/Third_Party/FreeRTOS/Source/portable/MemMang/heap_4.c ****     BlockLink_t * pxBlock;
 141:Middlewares/Third_Party/FreeRTOS/Source/portable/MemMang/heap_4.c ****     BlockLink_t * pxPreviousBlock;
 142:Middlewares/Third_Party/FreeRTOS/Source/portable/MemMang/heap_4.c ****     BlockLink_t * pxNewBlockLink;
 143:Middlewares/Third_Party/FreeRTOS/Source/portable/MemMang/heap_4.c ****     void * pvReturn = NULL;
 144:Middlewares/Third_Party/FreeRTOS/Source/portable/MemMang/heap_4.c ****     size_t xAdditionalRequiredSize;
 145:Middlewares/Third_Party/FreeRTOS/Source/portable/MemMang/heap_4.c **** 
 146:Middlewares/Third_Party/FreeRTOS/Source/portable/MemMang/heap_4.c ****     vTaskSuspendAll();
 147:Middlewares/Third_Party/FreeRTOS/Source/portable/MemMang/heap_4.c ****     {
ARM GAS  /tmp/ccyaTnsP.s 			page 4


 148:Middlewares/Third_Party/FreeRTOS/Source/portable/MemMang/heap_4.c ****         /* If this is the first call to malloc then the heap will require
 149:Middlewares/Third_Party/FreeRTOS/Source/portable/MemMang/heap_4.c ****          * initialisation to setup the list of free blocks. */
 150:Middlewares/Third_Party/FreeRTOS/Source/portable/MemMang/heap_4.c ****         if( pxEnd == NULL )
 151:Middlewares/Third_Party/FreeRTOS/Source/portable/MemMang/heap_4.c ****         {
 152:Middlewares/Third_Party/FreeRTOS/Source/portable/MemMang/heap_4.c ****             prvHeapInit();
 153:Middlewares/Third_Party/FreeRTOS/Source/portable/MemMang/heap_4.c ****         }
 154:Middlewares/Third_Party/FreeRTOS/Source/portable/MemMang/heap_4.c ****         else
 155:Middlewares/Third_Party/FreeRTOS/Source/portable/MemMang/heap_4.c ****         {
 156:Middlewares/Third_Party/FreeRTOS/Source/portable/MemMang/heap_4.c ****             mtCOVERAGE_TEST_MARKER();
 157:Middlewares/Third_Party/FreeRTOS/Source/portable/MemMang/heap_4.c ****         }
 158:Middlewares/Third_Party/FreeRTOS/Source/portable/MemMang/heap_4.c **** 
 159:Middlewares/Third_Party/FreeRTOS/Source/portable/MemMang/heap_4.c ****         if( xWantedSize > 0 )
 160:Middlewares/Third_Party/FreeRTOS/Source/portable/MemMang/heap_4.c ****         {
 161:Middlewares/Third_Party/FreeRTOS/Source/portable/MemMang/heap_4.c ****             /* The wanted size must be increased so it can contain a BlockLink_t
 162:Middlewares/Third_Party/FreeRTOS/Source/portable/MemMang/heap_4.c ****              * structure in addition to the requested amount of bytes. */
 163:Middlewares/Third_Party/FreeRTOS/Source/portable/MemMang/heap_4.c ****             if( heapADD_WILL_OVERFLOW( xWantedSize, xHeapStructSize ) == 0 )
 164:Middlewares/Third_Party/FreeRTOS/Source/portable/MemMang/heap_4.c ****             {
 165:Middlewares/Third_Party/FreeRTOS/Source/portable/MemMang/heap_4.c ****                 xWantedSize += xHeapStructSize;
 166:Middlewares/Third_Party/FreeRTOS/Source/portable/MemMang/heap_4.c **** 
 167:Middlewares/Third_Party/FreeRTOS/Source/portable/MemMang/heap_4.c ****                 /* Ensure that blocks are always aligned to the required number
 168:Middlewares/Third_Party/FreeRTOS/Source/portable/MemMang/heap_4.c ****                  * of bytes. */
 169:Middlewares/Third_Party/FreeRTOS/Source/portable/MemMang/heap_4.c ****                 if( ( xWantedSize & portBYTE_ALIGNMENT_MASK ) != 0x00 )
 170:Middlewares/Third_Party/FreeRTOS/Source/portable/MemMang/heap_4.c ****                 {
 171:Middlewares/Third_Party/FreeRTOS/Source/portable/MemMang/heap_4.c ****                     /* Byte alignment required. */
 172:Middlewares/Third_Party/FreeRTOS/Source/portable/MemMang/heap_4.c ****                     xAdditionalRequiredSize = portBYTE_ALIGNMENT - ( xWantedSize & portBYTE_ALIGNME
 173:Middlewares/Third_Party/FreeRTOS/Source/portable/MemMang/heap_4.c **** 
 174:Middlewares/Third_Party/FreeRTOS/Source/portable/MemMang/heap_4.c ****                     if( heapADD_WILL_OVERFLOW( xWantedSize, xAdditionalRequiredSize ) == 0 )
 175:Middlewares/Third_Party/FreeRTOS/Source/portable/MemMang/heap_4.c ****                     {
 176:Middlewares/Third_Party/FreeRTOS/Source/portable/MemMang/heap_4.c ****                         xWantedSize += xAdditionalRequiredSize;
 177:Middlewares/Third_Party/FreeRTOS/Source/portable/MemMang/heap_4.c ****                     }
 178:Middlewares/Third_Party/FreeRTOS/Source/portable/MemMang/heap_4.c ****                     else
 179:Middlewares/Third_Party/FreeRTOS/Source/portable/MemMang/heap_4.c ****                     {
 180:Middlewares/Third_Party/FreeRTOS/Source/portable/MemMang/heap_4.c ****                         xWantedSize = 0;
 181:Middlewares/Third_Party/FreeRTOS/Source/portable/MemMang/heap_4.c ****                     }
 182:Middlewares/Third_Party/FreeRTOS/Source/portable/MemMang/heap_4.c ****                 }
 183:Middlewares/Third_Party/FreeRTOS/Source/portable/MemMang/heap_4.c ****                 else
 184:Middlewares/Third_Party/FreeRTOS/Source/portable/MemMang/heap_4.c ****                 {
 185:Middlewares/Third_Party/FreeRTOS/Source/portable/MemMang/heap_4.c ****                     mtCOVERAGE_TEST_MARKER();
 186:Middlewares/Third_Party/FreeRTOS/Source/portable/MemMang/heap_4.c ****                 }
 187:Middlewares/Third_Party/FreeRTOS/Source/portable/MemMang/heap_4.c ****             }
 188:Middlewares/Third_Party/FreeRTOS/Source/portable/MemMang/heap_4.c ****             else
 189:Middlewares/Third_Party/FreeRTOS/Source/portable/MemMang/heap_4.c ****             {
 190:Middlewares/Third_Party/FreeRTOS/Source/portable/MemMang/heap_4.c ****                 xWantedSize = 0;
 191:Middlewares/Third_Party/FreeRTOS/Source/portable/MemMang/heap_4.c ****             }
 192:Middlewares/Third_Party/FreeRTOS/Source/portable/MemMang/heap_4.c ****         }
 193:Middlewares/Third_Party/FreeRTOS/Source/portable/MemMang/heap_4.c ****         else
 194:Middlewares/Third_Party/FreeRTOS/Source/portable/MemMang/heap_4.c ****         {
 195:Middlewares/Third_Party/FreeRTOS/Source/portable/MemMang/heap_4.c ****             mtCOVERAGE_TEST_MARKER();
 196:Middlewares/Third_Party/FreeRTOS/Source/portable/MemMang/heap_4.c ****         }
 197:Middlewares/Third_Party/FreeRTOS/Source/portable/MemMang/heap_4.c **** 
 198:Middlewares/Third_Party/FreeRTOS/Source/portable/MemMang/heap_4.c ****         /* Check the block size we are trying to allocate is not so large that the
 199:Middlewares/Third_Party/FreeRTOS/Source/portable/MemMang/heap_4.c ****          * top bit is set.  The top bit of the block size member of the BlockLink_t
 200:Middlewares/Third_Party/FreeRTOS/Source/portable/MemMang/heap_4.c ****          * structure is used to determine who owns the block - the application or
 201:Middlewares/Third_Party/FreeRTOS/Source/portable/MemMang/heap_4.c ****          * the kernel, so it must be free. */
 202:Middlewares/Third_Party/FreeRTOS/Source/portable/MemMang/heap_4.c ****         if( heapBLOCK_SIZE_IS_VALID( xWantedSize ) != 0 )
 203:Middlewares/Third_Party/FreeRTOS/Source/portable/MemMang/heap_4.c ****         {
 204:Middlewares/Third_Party/FreeRTOS/Source/portable/MemMang/heap_4.c ****             if( ( xWantedSize > 0 ) && ( xWantedSize <= xFreeBytesRemaining ) )
ARM GAS  /tmp/ccyaTnsP.s 			page 5


 205:Middlewares/Third_Party/FreeRTOS/Source/portable/MemMang/heap_4.c ****             {
 206:Middlewares/Third_Party/FreeRTOS/Source/portable/MemMang/heap_4.c ****                 /* Traverse the list from the start (lowest address) block until
 207:Middlewares/Third_Party/FreeRTOS/Source/portable/MemMang/heap_4.c ****                  * one of adequate size is found. */
 208:Middlewares/Third_Party/FreeRTOS/Source/portable/MemMang/heap_4.c ****                 pxPreviousBlock = &xStart;
 209:Middlewares/Third_Party/FreeRTOS/Source/portable/MemMang/heap_4.c ****                 pxBlock = xStart.pxNextFreeBlock;
 210:Middlewares/Third_Party/FreeRTOS/Source/portable/MemMang/heap_4.c **** 
 211:Middlewares/Third_Party/FreeRTOS/Source/portable/MemMang/heap_4.c ****                 while( ( pxBlock->xBlockSize < xWantedSize ) && ( pxBlock->pxNextFreeBlock != NULL 
 212:Middlewares/Third_Party/FreeRTOS/Source/portable/MemMang/heap_4.c ****                 {
 213:Middlewares/Third_Party/FreeRTOS/Source/portable/MemMang/heap_4.c ****                     pxPreviousBlock = pxBlock;
 214:Middlewares/Third_Party/FreeRTOS/Source/portable/MemMang/heap_4.c ****                     pxBlock = pxBlock->pxNextFreeBlock;
 215:Middlewares/Third_Party/FreeRTOS/Source/portable/MemMang/heap_4.c ****                 }
 216:Middlewares/Third_Party/FreeRTOS/Source/portable/MemMang/heap_4.c **** 
 217:Middlewares/Third_Party/FreeRTOS/Source/portable/MemMang/heap_4.c ****                 /* If the end marker was reached then a block of adequate size
 218:Middlewares/Third_Party/FreeRTOS/Source/portable/MemMang/heap_4.c ****                  * was not found. */
 219:Middlewares/Third_Party/FreeRTOS/Source/portable/MemMang/heap_4.c ****                 if( pxBlock != pxEnd )
 220:Middlewares/Third_Party/FreeRTOS/Source/portable/MemMang/heap_4.c ****                 {
 221:Middlewares/Third_Party/FreeRTOS/Source/portable/MemMang/heap_4.c ****                     /* Return the memory space pointed to - jumping over the
 222:Middlewares/Third_Party/FreeRTOS/Source/portable/MemMang/heap_4.c ****                      * BlockLink_t structure at its start. */
 223:Middlewares/Third_Party/FreeRTOS/Source/portable/MemMang/heap_4.c ****                     pvReturn = ( void * ) ( ( ( uint8_t * ) pxPreviousBlock->pxNextFreeBlock ) + xH
 224:Middlewares/Third_Party/FreeRTOS/Source/portable/MemMang/heap_4.c **** 
 225:Middlewares/Third_Party/FreeRTOS/Source/portable/MemMang/heap_4.c ****                     /* This block is being returned for use so must be taken out
 226:Middlewares/Third_Party/FreeRTOS/Source/portable/MemMang/heap_4.c ****                      * of the list of free blocks. */
 227:Middlewares/Third_Party/FreeRTOS/Source/portable/MemMang/heap_4.c ****                     pxPreviousBlock->pxNextFreeBlock = pxBlock->pxNextFreeBlock;
 228:Middlewares/Third_Party/FreeRTOS/Source/portable/MemMang/heap_4.c **** 
 229:Middlewares/Third_Party/FreeRTOS/Source/portable/MemMang/heap_4.c ****                     /* If the block is larger than required it can be split into
 230:Middlewares/Third_Party/FreeRTOS/Source/portable/MemMang/heap_4.c ****                      * two. */
 231:Middlewares/Third_Party/FreeRTOS/Source/portable/MemMang/heap_4.c ****                     if( ( pxBlock->xBlockSize - xWantedSize ) > heapMINIMUM_BLOCK_SIZE )
 232:Middlewares/Third_Party/FreeRTOS/Source/portable/MemMang/heap_4.c ****                     {
 233:Middlewares/Third_Party/FreeRTOS/Source/portable/MemMang/heap_4.c ****                         /* This block is to be split into two.  Create a new
 234:Middlewares/Third_Party/FreeRTOS/Source/portable/MemMang/heap_4.c ****                          * block following the number of bytes requested. The void
 235:Middlewares/Third_Party/FreeRTOS/Source/portable/MemMang/heap_4.c ****                          * cast is used to prevent byte alignment warnings from the
 236:Middlewares/Third_Party/FreeRTOS/Source/portable/MemMang/heap_4.c ****                          * compiler. */
 237:Middlewares/Third_Party/FreeRTOS/Source/portable/MemMang/heap_4.c ****                         pxNewBlockLink = ( void * ) ( ( ( uint8_t * ) pxBlock ) + xWantedSize );
 238:Middlewares/Third_Party/FreeRTOS/Source/portable/MemMang/heap_4.c ****                         configASSERT( ( ( ( size_t ) pxNewBlockLink ) & portBYTE_ALIGNMENT_MASK ) =
 239:Middlewares/Third_Party/FreeRTOS/Source/portable/MemMang/heap_4.c **** 
 240:Middlewares/Third_Party/FreeRTOS/Source/portable/MemMang/heap_4.c ****                         /* Calculate the sizes of two blocks split from the
 241:Middlewares/Third_Party/FreeRTOS/Source/portable/MemMang/heap_4.c ****                          * single block. */
 242:Middlewares/Third_Party/FreeRTOS/Source/portable/MemMang/heap_4.c ****                         pxNewBlockLink->xBlockSize = pxBlock->xBlockSize - xWantedSize;
 243:Middlewares/Third_Party/FreeRTOS/Source/portable/MemMang/heap_4.c ****                         pxBlock->xBlockSize = xWantedSize;
 244:Middlewares/Third_Party/FreeRTOS/Source/portable/MemMang/heap_4.c **** 
 245:Middlewares/Third_Party/FreeRTOS/Source/portable/MemMang/heap_4.c ****                         /* Insert the new block into the list of free blocks. */
 246:Middlewares/Third_Party/FreeRTOS/Source/portable/MemMang/heap_4.c ****                         prvInsertBlockIntoFreeList( pxNewBlockLink );
 247:Middlewares/Third_Party/FreeRTOS/Source/portable/MemMang/heap_4.c ****                     }
 248:Middlewares/Third_Party/FreeRTOS/Source/portable/MemMang/heap_4.c ****                     else
 249:Middlewares/Third_Party/FreeRTOS/Source/portable/MemMang/heap_4.c ****                     {
 250:Middlewares/Third_Party/FreeRTOS/Source/portable/MemMang/heap_4.c ****                         mtCOVERAGE_TEST_MARKER();
 251:Middlewares/Third_Party/FreeRTOS/Source/portable/MemMang/heap_4.c ****                     }
 252:Middlewares/Third_Party/FreeRTOS/Source/portable/MemMang/heap_4.c **** 
 253:Middlewares/Third_Party/FreeRTOS/Source/portable/MemMang/heap_4.c ****                     xFreeBytesRemaining -= pxBlock->xBlockSize;
 254:Middlewares/Third_Party/FreeRTOS/Source/portable/MemMang/heap_4.c **** 
 255:Middlewares/Third_Party/FreeRTOS/Source/portable/MemMang/heap_4.c ****                     if( xFreeBytesRemaining < xMinimumEverFreeBytesRemaining )
 256:Middlewares/Third_Party/FreeRTOS/Source/portable/MemMang/heap_4.c ****                     {
 257:Middlewares/Third_Party/FreeRTOS/Source/portable/MemMang/heap_4.c ****                         xMinimumEverFreeBytesRemaining = xFreeBytesRemaining;
 258:Middlewares/Third_Party/FreeRTOS/Source/portable/MemMang/heap_4.c ****                     }
 259:Middlewares/Third_Party/FreeRTOS/Source/portable/MemMang/heap_4.c ****                     else
 260:Middlewares/Third_Party/FreeRTOS/Source/portable/MemMang/heap_4.c ****                     {
 261:Middlewares/Third_Party/FreeRTOS/Source/portable/MemMang/heap_4.c ****                         mtCOVERAGE_TEST_MARKER();
ARM GAS  /tmp/ccyaTnsP.s 			page 6


 262:Middlewares/Third_Party/FreeRTOS/Source/portable/MemMang/heap_4.c ****                     }
 263:Middlewares/Third_Party/FreeRTOS/Source/portable/MemMang/heap_4.c **** 
 264:Middlewares/Third_Party/FreeRTOS/Source/portable/MemMang/heap_4.c ****                     /* The block is being returned - it is allocated and owned
 265:Middlewares/Third_Party/FreeRTOS/Source/portable/MemMang/heap_4.c ****                      * by the application and has no "next" block. */
 266:Middlewares/Third_Party/FreeRTOS/Source/portable/MemMang/heap_4.c ****                     heapALLOCATE_BLOCK( pxBlock );
 267:Middlewares/Third_Party/FreeRTOS/Source/portable/MemMang/heap_4.c ****                     pxBlock->pxNextFreeBlock = NULL;
 268:Middlewares/Third_Party/FreeRTOS/Source/portable/MemMang/heap_4.c ****                     xNumberOfSuccessfulAllocations++;
 269:Middlewares/Third_Party/FreeRTOS/Source/portable/MemMang/heap_4.c ****                 }
 270:Middlewares/Third_Party/FreeRTOS/Source/portable/MemMang/heap_4.c ****                 else
 271:Middlewares/Third_Party/FreeRTOS/Source/portable/MemMang/heap_4.c ****                 {
 272:Middlewares/Third_Party/FreeRTOS/Source/portable/MemMang/heap_4.c ****                     mtCOVERAGE_TEST_MARKER();
 273:Middlewares/Third_Party/FreeRTOS/Source/portable/MemMang/heap_4.c ****                 }
 274:Middlewares/Third_Party/FreeRTOS/Source/portable/MemMang/heap_4.c ****             }
 275:Middlewares/Third_Party/FreeRTOS/Source/portable/MemMang/heap_4.c ****             else
 276:Middlewares/Third_Party/FreeRTOS/Source/portable/MemMang/heap_4.c ****             {
 277:Middlewares/Third_Party/FreeRTOS/Source/portable/MemMang/heap_4.c ****                 mtCOVERAGE_TEST_MARKER();
 278:Middlewares/Third_Party/FreeRTOS/Source/portable/MemMang/heap_4.c ****             }
 279:Middlewares/Third_Party/FreeRTOS/Source/portable/MemMang/heap_4.c ****         }
 280:Middlewares/Third_Party/FreeRTOS/Source/portable/MemMang/heap_4.c ****         else
 281:Middlewares/Third_Party/FreeRTOS/Source/portable/MemMang/heap_4.c ****         {
 282:Middlewares/Third_Party/FreeRTOS/Source/portable/MemMang/heap_4.c ****             mtCOVERAGE_TEST_MARKER();
 283:Middlewares/Third_Party/FreeRTOS/Source/portable/MemMang/heap_4.c ****         }
 284:Middlewares/Third_Party/FreeRTOS/Source/portable/MemMang/heap_4.c **** 
 285:Middlewares/Third_Party/FreeRTOS/Source/portable/MemMang/heap_4.c ****         traceMALLOC( pvReturn, xWantedSize );
 286:Middlewares/Third_Party/FreeRTOS/Source/portable/MemMang/heap_4.c ****     }
 287:Middlewares/Third_Party/FreeRTOS/Source/portable/MemMang/heap_4.c ****     ( void ) xTaskResumeAll();
 288:Middlewares/Third_Party/FreeRTOS/Source/portable/MemMang/heap_4.c **** 
 289:Middlewares/Third_Party/FreeRTOS/Source/portable/MemMang/heap_4.c ****     #if ( configUSE_MALLOC_FAILED_HOOK == 1 )
 290:Middlewares/Third_Party/FreeRTOS/Source/portable/MemMang/heap_4.c ****     {
 291:Middlewares/Third_Party/FreeRTOS/Source/portable/MemMang/heap_4.c ****         if( pvReturn == NULL )
 292:Middlewares/Third_Party/FreeRTOS/Source/portable/MemMang/heap_4.c ****         {
 293:Middlewares/Third_Party/FreeRTOS/Source/portable/MemMang/heap_4.c ****             vApplicationMallocFailedHook();
 294:Middlewares/Third_Party/FreeRTOS/Source/portable/MemMang/heap_4.c ****         }
 295:Middlewares/Third_Party/FreeRTOS/Source/portable/MemMang/heap_4.c ****         else
 296:Middlewares/Third_Party/FreeRTOS/Source/portable/MemMang/heap_4.c ****         {
 297:Middlewares/Third_Party/FreeRTOS/Source/portable/MemMang/heap_4.c ****             mtCOVERAGE_TEST_MARKER();
 298:Middlewares/Third_Party/FreeRTOS/Source/portable/MemMang/heap_4.c ****         }
 299:Middlewares/Third_Party/FreeRTOS/Source/portable/MemMang/heap_4.c ****     }
 300:Middlewares/Third_Party/FreeRTOS/Source/portable/MemMang/heap_4.c ****     #endif /* if ( configUSE_MALLOC_FAILED_HOOK == 1 ) */
 301:Middlewares/Third_Party/FreeRTOS/Source/portable/MemMang/heap_4.c **** 
 302:Middlewares/Third_Party/FreeRTOS/Source/portable/MemMang/heap_4.c ****     configASSERT( ( ( ( size_t ) pvReturn ) & ( size_t ) portBYTE_ALIGNMENT_MASK ) == 0 );
 303:Middlewares/Third_Party/FreeRTOS/Source/portable/MemMang/heap_4.c ****     return pvReturn;
 304:Middlewares/Third_Party/FreeRTOS/Source/portable/MemMang/heap_4.c **** }
 305:Middlewares/Third_Party/FreeRTOS/Source/portable/MemMang/heap_4.c **** /*-----------------------------------------------------------*/
 306:Middlewares/Third_Party/FreeRTOS/Source/portable/MemMang/heap_4.c **** 
 307:Middlewares/Third_Party/FreeRTOS/Source/portable/MemMang/heap_4.c **** void vPortFree( void * pv )
 308:Middlewares/Third_Party/FreeRTOS/Source/portable/MemMang/heap_4.c **** {
 309:Middlewares/Third_Party/FreeRTOS/Source/portable/MemMang/heap_4.c ****     uint8_t * puc = ( uint8_t * ) pv;
 310:Middlewares/Third_Party/FreeRTOS/Source/portable/MemMang/heap_4.c ****     BlockLink_t * pxLink;
 311:Middlewares/Third_Party/FreeRTOS/Source/portable/MemMang/heap_4.c **** 
 312:Middlewares/Third_Party/FreeRTOS/Source/portable/MemMang/heap_4.c ****     if( pv != NULL )
 313:Middlewares/Third_Party/FreeRTOS/Source/portable/MemMang/heap_4.c ****     {
 314:Middlewares/Third_Party/FreeRTOS/Source/portable/MemMang/heap_4.c ****         /* The memory being freed will have an BlockLink_t structure immediately
 315:Middlewares/Third_Party/FreeRTOS/Source/portable/MemMang/heap_4.c ****          * before it. */
 316:Middlewares/Third_Party/FreeRTOS/Source/portable/MemMang/heap_4.c ****         puc -= xHeapStructSize;
 317:Middlewares/Third_Party/FreeRTOS/Source/portable/MemMang/heap_4.c **** 
 318:Middlewares/Third_Party/FreeRTOS/Source/portable/MemMang/heap_4.c ****         /* This casting is to keep the compiler from issuing warnings. */
ARM GAS  /tmp/ccyaTnsP.s 			page 7


 319:Middlewares/Third_Party/FreeRTOS/Source/portable/MemMang/heap_4.c ****         pxLink = ( void * ) puc;
 320:Middlewares/Third_Party/FreeRTOS/Source/portable/MemMang/heap_4.c **** 
 321:Middlewares/Third_Party/FreeRTOS/Source/portable/MemMang/heap_4.c ****         configASSERT( heapBLOCK_IS_ALLOCATED( pxLink ) != 0 );
 322:Middlewares/Third_Party/FreeRTOS/Source/portable/MemMang/heap_4.c ****         configASSERT( pxLink->pxNextFreeBlock == NULL );
 323:Middlewares/Third_Party/FreeRTOS/Source/portable/MemMang/heap_4.c **** 
 324:Middlewares/Third_Party/FreeRTOS/Source/portable/MemMang/heap_4.c ****         if( heapBLOCK_IS_ALLOCATED( pxLink ) != 0 )
 325:Middlewares/Third_Party/FreeRTOS/Source/portable/MemMang/heap_4.c ****         {
 326:Middlewares/Third_Party/FreeRTOS/Source/portable/MemMang/heap_4.c ****             if( pxLink->pxNextFreeBlock == NULL )
 327:Middlewares/Third_Party/FreeRTOS/Source/portable/MemMang/heap_4.c ****             {
 328:Middlewares/Third_Party/FreeRTOS/Source/portable/MemMang/heap_4.c ****                 /* The block is being returned to the heap - it is no longer
 329:Middlewares/Third_Party/FreeRTOS/Source/portable/MemMang/heap_4.c ****                  * allocated. */
 330:Middlewares/Third_Party/FreeRTOS/Source/portable/MemMang/heap_4.c ****                 heapFREE_BLOCK( pxLink );
 331:Middlewares/Third_Party/FreeRTOS/Source/portable/MemMang/heap_4.c ****                 #if ( configHEAP_CLEAR_MEMORY_ON_FREE == 1 )
 332:Middlewares/Third_Party/FreeRTOS/Source/portable/MemMang/heap_4.c ****                 {
 333:Middlewares/Third_Party/FreeRTOS/Source/portable/MemMang/heap_4.c ****                     ( void ) memset( puc + xHeapStructSize, 0, pxLink->xBlockSize - xHeapStructSize
 334:Middlewares/Third_Party/FreeRTOS/Source/portable/MemMang/heap_4.c ****                 }
 335:Middlewares/Third_Party/FreeRTOS/Source/portable/MemMang/heap_4.c ****                 #endif
 336:Middlewares/Third_Party/FreeRTOS/Source/portable/MemMang/heap_4.c **** 
 337:Middlewares/Third_Party/FreeRTOS/Source/portable/MemMang/heap_4.c ****                 vTaskSuspendAll();
 338:Middlewares/Third_Party/FreeRTOS/Source/portable/MemMang/heap_4.c ****                 {
 339:Middlewares/Third_Party/FreeRTOS/Source/portable/MemMang/heap_4.c ****                     /* Add this block to the list of free blocks. */
 340:Middlewares/Third_Party/FreeRTOS/Source/portable/MemMang/heap_4.c ****                     xFreeBytesRemaining += pxLink->xBlockSize;
 341:Middlewares/Third_Party/FreeRTOS/Source/portable/MemMang/heap_4.c ****                     traceFREE( pv, pxLink->xBlockSize );
 342:Middlewares/Third_Party/FreeRTOS/Source/portable/MemMang/heap_4.c ****                     prvInsertBlockIntoFreeList( ( ( BlockLink_t * ) pxLink ) );
 343:Middlewares/Third_Party/FreeRTOS/Source/portable/MemMang/heap_4.c ****                     xNumberOfSuccessfulFrees++;
 344:Middlewares/Third_Party/FreeRTOS/Source/portable/MemMang/heap_4.c ****                 }
 345:Middlewares/Third_Party/FreeRTOS/Source/portable/MemMang/heap_4.c ****                 ( void ) xTaskResumeAll();
 346:Middlewares/Third_Party/FreeRTOS/Source/portable/MemMang/heap_4.c ****             }
 347:Middlewares/Third_Party/FreeRTOS/Source/portable/MemMang/heap_4.c ****             else
 348:Middlewares/Third_Party/FreeRTOS/Source/portable/MemMang/heap_4.c ****             {
 349:Middlewares/Third_Party/FreeRTOS/Source/portable/MemMang/heap_4.c ****                 mtCOVERAGE_TEST_MARKER();
 350:Middlewares/Third_Party/FreeRTOS/Source/portable/MemMang/heap_4.c ****             }
 351:Middlewares/Third_Party/FreeRTOS/Source/portable/MemMang/heap_4.c ****         }
 352:Middlewares/Third_Party/FreeRTOS/Source/portable/MemMang/heap_4.c ****         else
 353:Middlewares/Third_Party/FreeRTOS/Source/portable/MemMang/heap_4.c ****         {
 354:Middlewares/Third_Party/FreeRTOS/Source/portable/MemMang/heap_4.c ****             mtCOVERAGE_TEST_MARKER();
 355:Middlewares/Third_Party/FreeRTOS/Source/portable/MemMang/heap_4.c ****         }
 356:Middlewares/Third_Party/FreeRTOS/Source/portable/MemMang/heap_4.c ****     }
 357:Middlewares/Third_Party/FreeRTOS/Source/portable/MemMang/heap_4.c **** }
 358:Middlewares/Third_Party/FreeRTOS/Source/portable/MemMang/heap_4.c **** /*-----------------------------------------------------------*/
 359:Middlewares/Third_Party/FreeRTOS/Source/portable/MemMang/heap_4.c **** 
 360:Middlewares/Third_Party/FreeRTOS/Source/portable/MemMang/heap_4.c **** size_t xPortGetFreeHeapSize( void )
 361:Middlewares/Third_Party/FreeRTOS/Source/portable/MemMang/heap_4.c **** {
 362:Middlewares/Third_Party/FreeRTOS/Source/portable/MemMang/heap_4.c ****     return xFreeBytesRemaining;
 363:Middlewares/Third_Party/FreeRTOS/Source/portable/MemMang/heap_4.c **** }
 364:Middlewares/Third_Party/FreeRTOS/Source/portable/MemMang/heap_4.c **** /*-----------------------------------------------------------*/
 365:Middlewares/Third_Party/FreeRTOS/Source/portable/MemMang/heap_4.c **** 
 366:Middlewares/Third_Party/FreeRTOS/Source/portable/MemMang/heap_4.c **** size_t xPortGetMinimumEverFreeHeapSize( void )
 367:Middlewares/Third_Party/FreeRTOS/Source/portable/MemMang/heap_4.c **** {
 368:Middlewares/Third_Party/FreeRTOS/Source/portable/MemMang/heap_4.c ****     return xMinimumEverFreeBytesRemaining;
 369:Middlewares/Third_Party/FreeRTOS/Source/portable/MemMang/heap_4.c **** }
 370:Middlewares/Third_Party/FreeRTOS/Source/portable/MemMang/heap_4.c **** /*-----------------------------------------------------------*/
 371:Middlewares/Third_Party/FreeRTOS/Source/portable/MemMang/heap_4.c **** 
 372:Middlewares/Third_Party/FreeRTOS/Source/portable/MemMang/heap_4.c **** void vPortInitialiseBlocks( void )
 373:Middlewares/Third_Party/FreeRTOS/Source/portable/MemMang/heap_4.c **** {
 374:Middlewares/Third_Party/FreeRTOS/Source/portable/MemMang/heap_4.c ****     /* This just exists to keep the linker quiet. */
 375:Middlewares/Third_Party/FreeRTOS/Source/portable/MemMang/heap_4.c **** }
ARM GAS  /tmp/ccyaTnsP.s 			page 8


 376:Middlewares/Third_Party/FreeRTOS/Source/portable/MemMang/heap_4.c **** /*-----------------------------------------------------------*/
 377:Middlewares/Third_Party/FreeRTOS/Source/portable/MemMang/heap_4.c **** 
 378:Middlewares/Third_Party/FreeRTOS/Source/portable/MemMang/heap_4.c **** void * pvPortCalloc( size_t xNum,
 379:Middlewares/Third_Party/FreeRTOS/Source/portable/MemMang/heap_4.c ****                      size_t xSize )
 380:Middlewares/Third_Party/FreeRTOS/Source/portable/MemMang/heap_4.c **** {
 381:Middlewares/Third_Party/FreeRTOS/Source/portable/MemMang/heap_4.c ****     void * pv = NULL;
 382:Middlewares/Third_Party/FreeRTOS/Source/portable/MemMang/heap_4.c **** 
 383:Middlewares/Third_Party/FreeRTOS/Source/portable/MemMang/heap_4.c ****     if( heapMULTIPLY_WILL_OVERFLOW( xNum, xSize ) == 0 )
 384:Middlewares/Third_Party/FreeRTOS/Source/portable/MemMang/heap_4.c ****     {
 385:Middlewares/Third_Party/FreeRTOS/Source/portable/MemMang/heap_4.c ****         pv = pvPortMalloc( xNum * xSize );
 386:Middlewares/Third_Party/FreeRTOS/Source/portable/MemMang/heap_4.c **** 
 387:Middlewares/Third_Party/FreeRTOS/Source/portable/MemMang/heap_4.c ****         if( pv != NULL )
 388:Middlewares/Third_Party/FreeRTOS/Source/portable/MemMang/heap_4.c ****         {
 389:Middlewares/Third_Party/FreeRTOS/Source/portable/MemMang/heap_4.c ****             ( void ) memset( pv, 0, xNum * xSize );
 390:Middlewares/Third_Party/FreeRTOS/Source/portable/MemMang/heap_4.c ****         }
 391:Middlewares/Third_Party/FreeRTOS/Source/portable/MemMang/heap_4.c ****     }
 392:Middlewares/Third_Party/FreeRTOS/Source/portable/MemMang/heap_4.c **** 
 393:Middlewares/Third_Party/FreeRTOS/Source/portable/MemMang/heap_4.c ****     return pv;
 394:Middlewares/Third_Party/FreeRTOS/Source/portable/MemMang/heap_4.c **** }
 395:Middlewares/Third_Party/FreeRTOS/Source/portable/MemMang/heap_4.c **** /*-----------------------------------------------------------*/
 396:Middlewares/Third_Party/FreeRTOS/Source/portable/MemMang/heap_4.c **** 
 397:Middlewares/Third_Party/FreeRTOS/Source/portable/MemMang/heap_4.c **** static void prvHeapInit( void ) /* PRIVILEGED_FUNCTION */
 398:Middlewares/Third_Party/FreeRTOS/Source/portable/MemMang/heap_4.c **** {
  26              		.loc 1 398 1 view -0
  27              		.cfi_startproc
  28              		@ args = 0, pretend = 0, frame = 0
  29              		@ frame_needed = 0, uses_anonymous_args = 0
  30              		@ link register save eliminated.
 399:Middlewares/Third_Party/FreeRTOS/Source/portable/MemMang/heap_4.c ****     BlockLink_t * pxFirstFreeBlock;
  31              		.loc 1 399 5 view .LVU1
 400:Middlewares/Third_Party/FreeRTOS/Source/portable/MemMang/heap_4.c ****     uint8_t * pucAlignedHeap;
  32              		.loc 1 400 5 view .LVU2
 401:Middlewares/Third_Party/FreeRTOS/Source/portable/MemMang/heap_4.c ****     portPOINTER_SIZE_TYPE uxAddress;
  33              		.loc 1 401 5 view .LVU3
 402:Middlewares/Third_Party/FreeRTOS/Source/portable/MemMang/heap_4.c ****     size_t xTotalHeapSize = configTOTAL_HEAP_SIZE;
  34              		.loc 1 402 5 view .LVU4
  35              	.LVL0:
 403:Middlewares/Third_Party/FreeRTOS/Source/portable/MemMang/heap_4.c **** 
 404:Middlewares/Third_Party/FreeRTOS/Source/portable/MemMang/heap_4.c ****     /* Ensure the heap starts on a correctly aligned boundary. */
 405:Middlewares/Third_Party/FreeRTOS/Source/portable/MemMang/heap_4.c ****     uxAddress = ( portPOINTER_SIZE_TYPE ) ucHeap;
  36              		.loc 1 405 5 view .LVU5
  37              		.loc 1 405 15 is_stmt 0 view .LVU6
  38 0000 104A     		ldr	r2, .L4
  39              	.LVL1:
 406:Middlewares/Third_Party/FreeRTOS/Source/portable/MemMang/heap_4.c **** 
 407:Middlewares/Third_Party/FreeRTOS/Source/portable/MemMang/heap_4.c ****     if( ( uxAddress & portBYTE_ALIGNMENT_MASK ) != 0 )
  40              		.loc 1 407 5 is_stmt 1 view .LVU7
  41              		.loc 1 407 7 is_stmt 0 view .LVU8
  42 0002 12F0070F 		tst	r2, #7
  43 0006 1AD0     		beq	.L3
 408:Middlewares/Third_Party/FreeRTOS/Source/portable/MemMang/heap_4.c ****     {
 409:Middlewares/Third_Party/FreeRTOS/Source/portable/MemMang/heap_4.c ****         uxAddress += ( portBYTE_ALIGNMENT - 1 );
  44              		.loc 1 409 9 is_stmt 1 view .LVU9
  45              		.loc 1 409 19 is_stmt 0 view .LVU10
  46 0008 D11D     		adds	r1, r2, #7
  47              	.LVL2:
 410:Middlewares/Third_Party/FreeRTOS/Source/portable/MemMang/heap_4.c ****         uxAddress &= ~( ( portPOINTER_SIZE_TYPE ) portBYTE_ALIGNMENT_MASK );
ARM GAS  /tmp/ccyaTnsP.s 			page 9


  48              		.loc 1 410 9 is_stmt 1 view .LVU11
  49              		.loc 1 410 19 is_stmt 0 view .LVU12
  50 000a 21F00701 		bic	r1, r1, #7
  51              	.LVL3:
 411:Middlewares/Third_Party/FreeRTOS/Source/portable/MemMang/heap_4.c ****         xTotalHeapSize -= ( size_t ) ( uxAddress - ( portPOINTER_SIZE_TYPE ) ucHeap );
  52              		.loc 1 411 9 is_stmt 1 view .LVU13
  53              		.loc 1 411 24 is_stmt 0 view .LVU14
  54 000e C1F58043 		rsb	r3, r1, #16384
  55 0012 1344     		add	r3, r3, r2
  56              	.LVL4:
 410:Middlewares/Third_Party/FreeRTOS/Source/portable/MemMang/heap_4.c ****         uxAddress &= ~( ( portPOINTER_SIZE_TYPE ) portBYTE_ALIGNMENT_MASK );
  57              		.loc 1 410 19 view .LVU15
  58 0014 0A46     		mov	r2, r1
  59              	.LVL5:
  60              	.L2:
 412:Middlewares/Third_Party/FreeRTOS/Source/portable/MemMang/heap_4.c ****     }
 413:Middlewares/Third_Party/FreeRTOS/Source/portable/MemMang/heap_4.c **** 
 414:Middlewares/Third_Party/FreeRTOS/Source/portable/MemMang/heap_4.c ****     pucAlignedHeap = ( uint8_t * ) uxAddress;
  61              		.loc 1 414 5 is_stmt 1 view .LVU16
 415:Middlewares/Third_Party/FreeRTOS/Source/portable/MemMang/heap_4.c **** 
 416:Middlewares/Third_Party/FreeRTOS/Source/portable/MemMang/heap_4.c ****     /* xStart is used to hold a pointer to the first item in the list of free
 417:Middlewares/Third_Party/FreeRTOS/Source/portable/MemMang/heap_4.c ****      * blocks.  The void cast is used to prevent compiler warnings. */
 418:Middlewares/Third_Party/FreeRTOS/Source/portable/MemMang/heap_4.c ****     xStart.pxNextFreeBlock = ( void * ) pucAlignedHeap;
  62              		.loc 1 418 5 view .LVU17
  63              		.loc 1 418 28 is_stmt 0 view .LVU18
  64 0016 0C48     		ldr	r0, .L4+4
  65 0018 0260     		str	r2, [r0]
 419:Middlewares/Third_Party/FreeRTOS/Source/portable/MemMang/heap_4.c ****     xStart.xBlockSize = ( size_t ) 0;
  66              		.loc 1 419 5 is_stmt 1 view .LVU19
  67              		.loc 1 419 23 is_stmt 0 view .LVU20
  68 001a 0021     		movs	r1, #0
  69 001c 4160     		str	r1, [r0, #4]
 420:Middlewares/Third_Party/FreeRTOS/Source/portable/MemMang/heap_4.c **** 
 421:Middlewares/Third_Party/FreeRTOS/Source/portable/MemMang/heap_4.c ****     /* pxEnd is used to mark the end of the list of free blocks and is inserted
 422:Middlewares/Third_Party/FreeRTOS/Source/portable/MemMang/heap_4.c ****      * at the end of the heap space. */
 423:Middlewares/Third_Party/FreeRTOS/Source/portable/MemMang/heap_4.c ****     uxAddress = ( portPOINTER_SIZE_TYPE ) ( pucAlignedHeap + xTotalHeapSize );
  70              		.loc 1 423 5 is_stmt 1 view .LVU21
  71              		.loc 1 423 60 is_stmt 0 view .LVU22
  72 001e 1344     		add	r3, r3, r2
  73              	.LVL6:
 424:Middlewares/Third_Party/FreeRTOS/Source/portable/MemMang/heap_4.c ****     uxAddress -= xHeapStructSize;
  74              		.loc 1 424 5 is_stmt 1 view .LVU23
  75              		.loc 1 424 15 is_stmt 0 view .LVU24
  76 0020 083B     		subs	r3, r3, #8
  77              	.LVL7:
 425:Middlewares/Third_Party/FreeRTOS/Source/portable/MemMang/heap_4.c ****     uxAddress &= ~( ( portPOINTER_SIZE_TYPE ) portBYTE_ALIGNMENT_MASK );
  78              		.loc 1 425 5 is_stmt 1 view .LVU25
  79              		.loc 1 425 15 is_stmt 0 view .LVU26
  80 0022 23F00703 		bic	r3, r3, #7
  81              	.LVL8:
 426:Middlewares/Third_Party/FreeRTOS/Source/portable/MemMang/heap_4.c ****     pxEnd = ( BlockLink_t * ) uxAddress;
  82              		.loc 1 426 5 is_stmt 1 view .LVU27
  83              		.loc 1 426 11 is_stmt 0 view .LVU28
  84 0026 0948     		ldr	r0, .L4+8
  85 0028 0360     		str	r3, [r0]
 427:Middlewares/Third_Party/FreeRTOS/Source/portable/MemMang/heap_4.c ****     pxEnd->xBlockSize = 0;
  86              		.loc 1 427 5 is_stmt 1 view .LVU29
ARM GAS  /tmp/ccyaTnsP.s 			page 10


  87              		.loc 1 427 23 is_stmt 0 view .LVU30
  88 002a 5960     		str	r1, [r3, #4]
 428:Middlewares/Third_Party/FreeRTOS/Source/portable/MemMang/heap_4.c ****     pxEnd->pxNextFreeBlock = NULL;
  89              		.loc 1 428 5 is_stmt 1 view .LVU31
  90              		.loc 1 428 28 is_stmt 0 view .LVU32
  91 002c 1960     		str	r1, [r3]
 429:Middlewares/Third_Party/FreeRTOS/Source/portable/MemMang/heap_4.c **** 
 430:Middlewares/Third_Party/FreeRTOS/Source/portable/MemMang/heap_4.c ****     /* To start with there is a single free block that is sized to take up the
 431:Middlewares/Third_Party/FreeRTOS/Source/portable/MemMang/heap_4.c ****      * entire heap space, minus the space taken by pxEnd. */
 432:Middlewares/Third_Party/FreeRTOS/Source/portable/MemMang/heap_4.c ****     pxFirstFreeBlock = ( BlockLink_t * ) pucAlignedHeap;
  92              		.loc 1 432 5 is_stmt 1 view .LVU33
  93              	.LVL9:
 433:Middlewares/Third_Party/FreeRTOS/Source/portable/MemMang/heap_4.c ****     pxFirstFreeBlock->xBlockSize = ( size_t ) ( uxAddress - ( portPOINTER_SIZE_TYPE ) pxFirstFreeBl
  94              		.loc 1 433 5 view .LVU34
  95              		.loc 1 433 59 is_stmt 0 view .LVU35
  96 002e 991A     		subs	r1, r3, r2
  97              		.loc 1 433 34 view .LVU36
  98 0030 5160     		str	r1, [r2, #4]
 434:Middlewares/Third_Party/FreeRTOS/Source/portable/MemMang/heap_4.c ****     pxFirstFreeBlock->pxNextFreeBlock = pxEnd;
  99              		.loc 1 434 5 is_stmt 1 view .LVU37
 100              		.loc 1 434 39 is_stmt 0 view .LVU38
 101 0032 1360     		str	r3, [r2]
 435:Middlewares/Third_Party/FreeRTOS/Source/portable/MemMang/heap_4.c **** 
 436:Middlewares/Third_Party/FreeRTOS/Source/portable/MemMang/heap_4.c ****     /* Only one block exists - and it covers the entire usable heap space. */
 437:Middlewares/Third_Party/FreeRTOS/Source/portable/MemMang/heap_4.c ****     xMinimumEverFreeBytesRemaining = pxFirstFreeBlock->xBlockSize;
 102              		.loc 1 437 5 is_stmt 1 view .LVU39
 103              		.loc 1 437 36 is_stmt 0 view .LVU40
 104 0034 064B     		ldr	r3, .L4+12
 105              	.LVL10:
 106              		.loc 1 437 36 view .LVU41
 107 0036 1960     		str	r1, [r3]
 438:Middlewares/Third_Party/FreeRTOS/Source/portable/MemMang/heap_4.c ****     xFreeBytesRemaining = pxFirstFreeBlock->xBlockSize;
 108              		.loc 1 438 5 is_stmt 1 view .LVU42
 109              		.loc 1 438 25 is_stmt 0 view .LVU43
 110 0038 064B     		ldr	r3, .L4+16
 111 003a 1960     		str	r1, [r3]
 439:Middlewares/Third_Party/FreeRTOS/Source/portable/MemMang/heap_4.c **** }
 112              		.loc 1 439 1 view .LVU44
 113 003c 7047     		bx	lr
 114              	.LVL11:
 115              	.L3:
 402:Middlewares/Third_Party/FreeRTOS/Source/portable/MemMang/heap_4.c **** 
 116              		.loc 1 402 12 view .LVU45
 117 003e 4FF48043 		mov	r3, #16384
 118 0042 E8E7     		b	.L2
 119              	.L5:
 120              		.align	2
 121              	.L4:
 122 0044 00000000 		.word	ucHeap
 123 0048 00000000 		.word	xStart
 124 004c 00000000 		.word	pxEnd
 125 0050 00000000 		.word	xMinimumEverFreeBytesRemaining
 126 0054 00000000 		.word	xFreeBytesRemaining
 127              		.cfi_endproc
 128              	.LFE10:
 130              		.section	.text.prvInsertBlockIntoFreeList,"ax",%progbits
 131              		.align	1
ARM GAS  /tmp/ccyaTnsP.s 			page 11


 132              		.syntax unified
 133              		.thumb
 134              		.thumb_func
 136              	prvInsertBlockIntoFreeList:
 137              	.LVL12:
 138              	.LFB11:
 440:Middlewares/Third_Party/FreeRTOS/Source/portable/MemMang/heap_4.c **** /*-----------------------------------------------------------*/
 441:Middlewares/Third_Party/FreeRTOS/Source/portable/MemMang/heap_4.c **** 
 442:Middlewares/Third_Party/FreeRTOS/Source/portable/MemMang/heap_4.c **** static void prvInsertBlockIntoFreeList( BlockLink_t * pxBlockToInsert ) /* PRIVILEGED_FUNCTION */
 443:Middlewares/Third_Party/FreeRTOS/Source/portable/MemMang/heap_4.c **** {
 139              		.loc 1 443 1 is_stmt 1 view -0
 140              		.cfi_startproc
 141              		@ args = 0, pretend = 0, frame = 0
 142              		@ frame_needed = 0, uses_anonymous_args = 0
 143              		@ link register save eliminated.
 444:Middlewares/Third_Party/FreeRTOS/Source/portable/MemMang/heap_4.c ****     BlockLink_t * pxIterator;
 144              		.loc 1 444 5 view .LVU47
 445:Middlewares/Third_Party/FreeRTOS/Source/portable/MemMang/heap_4.c ****     uint8_t * puc;
 145              		.loc 1 445 5 view .LVU48
 446:Middlewares/Third_Party/FreeRTOS/Source/portable/MemMang/heap_4.c **** 
 447:Middlewares/Third_Party/FreeRTOS/Source/portable/MemMang/heap_4.c ****     /* Iterate through the list until a block is found that has a higher address
 448:Middlewares/Third_Party/FreeRTOS/Source/portable/MemMang/heap_4.c ****      * than the block being inserted. */
 449:Middlewares/Third_Party/FreeRTOS/Source/portable/MemMang/heap_4.c ****     for( pxIterator = &xStart; pxIterator->pxNextFreeBlock < pxBlockToInsert; pxIterator = pxIterat
 146              		.loc 1 449 5 view .LVU49
 147              		.loc 1 449 21 is_stmt 0 view .LVU50
 148 0000 154B     		ldr	r3, .L21
 149              	.LVL13:
 150              	.L7:
 151              		.loc 1 449 60 is_stmt 1 discriminator 1 view .LVU51
 152 0002 1A46     		mov	r2, r3
 153              		.loc 1 449 42 is_stmt 0 discriminator 1 view .LVU52
 154 0004 1B68     		ldr	r3, [r3]
 155              	.LVL14:
 156              		.loc 1 449 60 discriminator 1 view .LVU53
 157 0006 8342     		cmp	r3, r0
 158 0008 FBD3     		bcc	.L7
 450:Middlewares/Third_Party/FreeRTOS/Source/portable/MemMang/heap_4.c ****     {
 451:Middlewares/Third_Party/FreeRTOS/Source/portable/MemMang/heap_4.c ****         /* Nothing to do here, just iterate to the right position. */
 452:Middlewares/Third_Party/FreeRTOS/Source/portable/MemMang/heap_4.c ****     }
 453:Middlewares/Third_Party/FreeRTOS/Source/portable/MemMang/heap_4.c **** 
 454:Middlewares/Third_Party/FreeRTOS/Source/portable/MemMang/heap_4.c ****     /* Do the block being inserted, and the block it is being inserted after
 455:Middlewares/Third_Party/FreeRTOS/Source/portable/MemMang/heap_4.c ****      * make a contiguous block of memory? */
 456:Middlewares/Third_Party/FreeRTOS/Source/portable/MemMang/heap_4.c ****     puc = ( uint8_t * ) pxIterator;
 159              		.loc 1 456 5 is_stmt 1 view .LVU54
 160              	.LVL15:
 457:Middlewares/Third_Party/FreeRTOS/Source/portable/MemMang/heap_4.c **** 
 458:Middlewares/Third_Party/FreeRTOS/Source/portable/MemMang/heap_4.c ****     if( ( puc + pxIterator->xBlockSize ) == ( uint8_t * ) pxBlockToInsert )
 161              		.loc 1 458 5 view .LVU55
 162              		.loc 1 458 27 is_stmt 0 view .LVU56
 163 000a 5168     		ldr	r1, [r2, #4]
 164              		.loc 1 458 15 view .LVU57
 165 000c 02EB010C 		add	ip, r2, r1
 166              		.loc 1 458 7 view .LVU58
 167 0010 8445     		cmp	ip, r0
 168 0012 09D0     		beq	.L19
 169              	.L8:
 459:Middlewares/Third_Party/FreeRTOS/Source/portable/MemMang/heap_4.c ****     {
ARM GAS  /tmp/ccyaTnsP.s 			page 12


 460:Middlewares/Third_Party/FreeRTOS/Source/portable/MemMang/heap_4.c ****         pxIterator->xBlockSize += pxBlockToInsert->xBlockSize;
 461:Middlewares/Third_Party/FreeRTOS/Source/portable/MemMang/heap_4.c ****         pxBlockToInsert = pxIterator;
 462:Middlewares/Third_Party/FreeRTOS/Source/portable/MemMang/heap_4.c ****     }
 463:Middlewares/Third_Party/FreeRTOS/Source/portable/MemMang/heap_4.c ****     else
 464:Middlewares/Third_Party/FreeRTOS/Source/portable/MemMang/heap_4.c ****     {
 465:Middlewares/Third_Party/FreeRTOS/Source/portable/MemMang/heap_4.c ****         mtCOVERAGE_TEST_MARKER();
 170              		.loc 1 465 33 is_stmt 1 view .LVU59
 466:Middlewares/Third_Party/FreeRTOS/Source/portable/MemMang/heap_4.c ****     }
 467:Middlewares/Third_Party/FreeRTOS/Source/portable/MemMang/heap_4.c **** 
 468:Middlewares/Third_Party/FreeRTOS/Source/portable/MemMang/heap_4.c ****     /* Do the block being inserted, and the block it is being inserted before
 469:Middlewares/Third_Party/FreeRTOS/Source/portable/MemMang/heap_4.c ****      * make a contiguous block of memory? */
 470:Middlewares/Third_Party/FreeRTOS/Source/portable/MemMang/heap_4.c ****     puc = ( uint8_t * ) pxBlockToInsert;
 171              		.loc 1 470 5 view .LVU60
 172              	.LVL16:
 471:Middlewares/Third_Party/FreeRTOS/Source/portable/MemMang/heap_4.c **** 
 472:Middlewares/Third_Party/FreeRTOS/Source/portable/MemMang/heap_4.c ****     if( ( puc + pxBlockToInsert->xBlockSize ) == ( uint8_t * ) pxIterator->pxNextFreeBlock )
 173              		.loc 1 472 5 view .LVU61
 174              		.loc 1 472 32 is_stmt 0 view .LVU62
 175 0014 4168     		ldr	r1, [r0, #4]
 176              		.loc 1 472 15 view .LVU63
 177 0016 00EB010C 		add	ip, r0, r1
 178              		.loc 1 472 7 view .LVU64
 179 001a 6345     		cmp	r3, ip
 180 001c 09D0     		beq	.L20
 473:Middlewares/Third_Party/FreeRTOS/Source/portable/MemMang/heap_4.c ****     {
 474:Middlewares/Third_Party/FreeRTOS/Source/portable/MemMang/heap_4.c ****         if( pxIterator->pxNextFreeBlock != pxEnd )
 475:Middlewares/Third_Party/FreeRTOS/Source/portable/MemMang/heap_4.c ****         {
 476:Middlewares/Third_Party/FreeRTOS/Source/portable/MemMang/heap_4.c ****             /* Form one big block from the two blocks. */
 477:Middlewares/Third_Party/FreeRTOS/Source/portable/MemMang/heap_4.c ****             pxBlockToInsert->xBlockSize += pxIterator->pxNextFreeBlock->xBlockSize;
 478:Middlewares/Third_Party/FreeRTOS/Source/portable/MemMang/heap_4.c ****             pxBlockToInsert->pxNextFreeBlock = pxIterator->pxNextFreeBlock->pxNextFreeBlock;
 479:Middlewares/Third_Party/FreeRTOS/Source/portable/MemMang/heap_4.c ****         }
 480:Middlewares/Third_Party/FreeRTOS/Source/portable/MemMang/heap_4.c ****         else
 481:Middlewares/Third_Party/FreeRTOS/Source/portable/MemMang/heap_4.c ****         {
 482:Middlewares/Third_Party/FreeRTOS/Source/portable/MemMang/heap_4.c ****             pxBlockToInsert->pxNextFreeBlock = pxEnd;
 483:Middlewares/Third_Party/FreeRTOS/Source/portable/MemMang/heap_4.c ****         }
 484:Middlewares/Third_Party/FreeRTOS/Source/portable/MemMang/heap_4.c ****     }
 485:Middlewares/Third_Party/FreeRTOS/Source/portable/MemMang/heap_4.c ****     else
 486:Middlewares/Third_Party/FreeRTOS/Source/portable/MemMang/heap_4.c ****     {
 487:Middlewares/Third_Party/FreeRTOS/Source/portable/MemMang/heap_4.c ****         pxBlockToInsert->pxNextFreeBlock = pxIterator->pxNextFreeBlock;
 181              		.loc 1 487 9 is_stmt 1 view .LVU65
 182              		.loc 1 487 42 is_stmt 0 view .LVU66
 183 001e 0360     		str	r3, [r0]
 488:Middlewares/Third_Party/FreeRTOS/Source/portable/MemMang/heap_4.c ****     }
 489:Middlewares/Third_Party/FreeRTOS/Source/portable/MemMang/heap_4.c **** 
 490:Middlewares/Third_Party/FreeRTOS/Source/portable/MemMang/heap_4.c ****     /* If the block being inserted plugged a gab, so was merged with the block
 491:Middlewares/Third_Party/FreeRTOS/Source/portable/MemMang/heap_4.c ****      * before and the block after, then it's pxNextFreeBlock pointer will have
 492:Middlewares/Third_Party/FreeRTOS/Source/portable/MemMang/heap_4.c ****      * already been set, and should not be set here as that would make it point
 493:Middlewares/Third_Party/FreeRTOS/Source/portable/MemMang/heap_4.c ****      * to itself. */
 494:Middlewares/Third_Party/FreeRTOS/Source/portable/MemMang/heap_4.c ****     if( pxIterator != pxBlockToInsert )
 184              		.loc 1 494 5 is_stmt 1 view .LVU67
 185              		.loc 1 494 7 is_stmt 0 view .LVU68
 186 0020 9042     		cmp	r0, r2
 187 0022 18D0     		beq	.L16
 495:Middlewares/Third_Party/FreeRTOS/Source/portable/MemMang/heap_4.c ****     {
 496:Middlewares/Third_Party/FreeRTOS/Source/portable/MemMang/heap_4.c ****         pxIterator->pxNextFreeBlock = pxBlockToInsert;
 188              		.loc 1 496 9 is_stmt 1 view .LVU69
 189              		.loc 1 496 37 is_stmt 0 view .LVU70
ARM GAS  /tmp/ccyaTnsP.s 			page 13


 190 0024 1060     		str	r0, [r2]
 497:Middlewares/Third_Party/FreeRTOS/Source/portable/MemMang/heap_4.c ****     }
 498:Middlewares/Third_Party/FreeRTOS/Source/portable/MemMang/heap_4.c ****     else
 499:Middlewares/Third_Party/FreeRTOS/Source/portable/MemMang/heap_4.c ****     {
 500:Middlewares/Third_Party/FreeRTOS/Source/portable/MemMang/heap_4.c ****         mtCOVERAGE_TEST_MARKER();
 191              		.loc 1 500 33 is_stmt 1 view .LVU71
 192 0026 7047     		bx	lr
 193              	.LVL17:
 194              	.L19:
 460:Middlewares/Third_Party/FreeRTOS/Source/portable/MemMang/heap_4.c ****         pxBlockToInsert = pxIterator;
 195              		.loc 1 460 9 view .LVU72
 460:Middlewares/Third_Party/FreeRTOS/Source/portable/MemMang/heap_4.c ****         pxBlockToInsert = pxIterator;
 196              		.loc 1 460 50 is_stmt 0 view .LVU73
 197 0028 4068     		ldr	r0, [r0, #4]
 198              	.LVL18:
 460:Middlewares/Third_Party/FreeRTOS/Source/portable/MemMang/heap_4.c ****         pxBlockToInsert = pxIterator;
 199              		.loc 1 460 32 view .LVU74
 200 002a 0144     		add	r1, r1, r0
 201 002c 5160     		str	r1, [r2, #4]
 461:Middlewares/Third_Party/FreeRTOS/Source/portable/MemMang/heap_4.c ****     }
 202              		.loc 1 461 9 is_stmt 1 view .LVU75
 203              	.LVL19:
 461:Middlewares/Third_Party/FreeRTOS/Source/portable/MemMang/heap_4.c ****     }
 204              		.loc 1 461 25 is_stmt 0 view .LVU76
 205 002e 1046     		mov	r0, r2
 206 0030 F0E7     		b	.L8
 207              	.LVL20:
 208              	.L20:
 443:Middlewares/Third_Party/FreeRTOS/Source/portable/MemMang/heap_4.c ****     BlockLink_t * pxIterator;
 209              		.loc 1 443 1 view .LVU77
 210 0032 10B4     		push	{r4}
 211              		.cfi_def_cfa_offset 4
 212              		.cfi_offset 4, -4
 474:Middlewares/Third_Party/FreeRTOS/Source/portable/MemMang/heap_4.c ****         {
 213              		.loc 1 474 9 is_stmt 1 view .LVU78
 474:Middlewares/Third_Party/FreeRTOS/Source/portable/MemMang/heap_4.c ****         {
 214              		.loc 1 474 41 is_stmt 0 view .LVU79
 215 0034 094C     		ldr	r4, .L21+4
 216 0036 2468     		ldr	r4, [r4]
 474:Middlewares/Third_Party/FreeRTOS/Source/portable/MemMang/heap_4.c ****         {
 217              		.loc 1 474 11 view .LVU80
 218 0038 A342     		cmp	r3, r4
 219 003a 0AD0     		beq	.L10
 477:Middlewares/Third_Party/FreeRTOS/Source/portable/MemMang/heap_4.c ****             pxBlockToInsert->pxNextFreeBlock = pxIterator->pxNextFreeBlock->pxNextFreeBlock;
 220              		.loc 1 477 13 is_stmt 1 view .LVU81
 477:Middlewares/Third_Party/FreeRTOS/Source/portable/MemMang/heap_4.c ****             pxBlockToInsert->pxNextFreeBlock = pxIterator->pxNextFreeBlock->pxNextFreeBlock;
 221              		.loc 1 477 71 is_stmt 0 view .LVU82
 222 003c 5B68     		ldr	r3, [r3, #4]
 477:Middlewares/Third_Party/FreeRTOS/Source/portable/MemMang/heap_4.c ****             pxBlockToInsert->pxNextFreeBlock = pxIterator->pxNextFreeBlock->pxNextFreeBlock;
 223              		.loc 1 477 41 view .LVU83
 224 003e 1944     		add	r1, r1, r3
 225 0040 4160     		str	r1, [r0, #4]
 478:Middlewares/Third_Party/FreeRTOS/Source/portable/MemMang/heap_4.c ****         }
 226              		.loc 1 478 13 is_stmt 1 view .LVU84
 478:Middlewares/Third_Party/FreeRTOS/Source/portable/MemMang/heap_4.c ****         }
 227              		.loc 1 478 58 is_stmt 0 view .LVU85
 228 0042 1368     		ldr	r3, [r2]
ARM GAS  /tmp/ccyaTnsP.s 			page 14


 478:Middlewares/Third_Party/FreeRTOS/Source/portable/MemMang/heap_4.c ****         }
 229              		.loc 1 478 75 view .LVU86
 230 0044 1B68     		ldr	r3, [r3]
 478:Middlewares/Third_Party/FreeRTOS/Source/portable/MemMang/heap_4.c ****         }
 231              		.loc 1 478 46 view .LVU87
 232 0046 0360     		str	r3, [r0]
 233              	.L11:
 494:Middlewares/Third_Party/FreeRTOS/Source/portable/MemMang/heap_4.c ****     {
 234              		.loc 1 494 5 is_stmt 1 view .LVU88
 494:Middlewares/Third_Party/FreeRTOS/Source/portable/MemMang/heap_4.c ****     {
 235              		.loc 1 494 7 is_stmt 0 view .LVU89
 236 0048 9042     		cmp	r0, r2
 237 004a 00D0     		beq	.L6
 496:Middlewares/Third_Party/FreeRTOS/Source/portable/MemMang/heap_4.c ****     }
 238              		.loc 1 496 9 is_stmt 1 view .LVU90
 496:Middlewares/Third_Party/FreeRTOS/Source/portable/MemMang/heap_4.c ****     }
 239              		.loc 1 496 37 is_stmt 0 view .LVU91
 240 004c 1060     		str	r0, [r2]
 241              		.loc 1 500 33 is_stmt 1 view .LVU92
 242              	.L6:
 501:Middlewares/Third_Party/FreeRTOS/Source/portable/MemMang/heap_4.c ****     }
 502:Middlewares/Third_Party/FreeRTOS/Source/portable/MemMang/heap_4.c **** }
 243              		.loc 1 502 1 is_stmt 0 view .LVU93
 244 004e 10BC     		pop	{r4}
 245              		.cfi_remember_state
 246              		.cfi_restore 4
 247              		.cfi_def_cfa_offset 0
 248 0050 7047     		bx	lr
 249              	.L10:
 250              		.cfi_restore_state
 482:Middlewares/Third_Party/FreeRTOS/Source/portable/MemMang/heap_4.c ****         }
 251              		.loc 1 482 13 is_stmt 1 view .LVU94
 482:Middlewares/Third_Party/FreeRTOS/Source/portable/MemMang/heap_4.c ****         }
 252              		.loc 1 482 46 is_stmt 0 view .LVU95
 253 0052 0460     		str	r4, [r0]
 254 0054 F8E7     		b	.L11
 255              	.L16:
 256              		.cfi_def_cfa_offset 0
 257              		.cfi_restore 4
 482:Middlewares/Third_Party/FreeRTOS/Source/portable/MemMang/heap_4.c ****         }
 258              		.loc 1 482 46 view .LVU96
 259 0056 7047     		bx	lr
 260              	.L22:
 261              		.align	2
 262              	.L21:
 263 0058 00000000 		.word	xStart
 264 005c 00000000 		.word	pxEnd
 265              		.cfi_endproc
 266              	.LFE11:
 268              		.section	.text.pvPortMalloc,"ax",%progbits
 269              		.align	1
 270              		.global	pvPortMalloc
 271              		.syntax unified
 272              		.thumb
 273              		.thumb_func
 275              	pvPortMalloc:
 276              	.LVL21:
ARM GAS  /tmp/ccyaTnsP.s 			page 15


 277              	.LFB4:
 139:Middlewares/Third_Party/FreeRTOS/Source/portable/MemMang/heap_4.c ****     BlockLink_t * pxBlock;
 278              		.loc 1 139 1 is_stmt 1 view -0
 279              		.cfi_startproc
 280              		@ args = 0, pretend = 0, frame = 0
 281              		@ frame_needed = 0, uses_anonymous_args = 0
 139:Middlewares/Third_Party/FreeRTOS/Source/portable/MemMang/heap_4.c ****     BlockLink_t * pxBlock;
 282              		.loc 1 139 1 is_stmt 0 view .LVU98
 283 0000 70B5     		push	{r4, r5, r6, lr}
 284              		.cfi_def_cfa_offset 16
 285              		.cfi_offset 4, -16
 286              		.cfi_offset 5, -12
 287              		.cfi_offset 6, -8
 288              		.cfi_offset 14, -4
 289 0002 0546     		mov	r5, r0
 140:Middlewares/Third_Party/FreeRTOS/Source/portable/MemMang/heap_4.c ****     BlockLink_t * pxPreviousBlock;
 290              		.loc 1 140 5 is_stmt 1 view .LVU99
 141:Middlewares/Third_Party/FreeRTOS/Source/portable/MemMang/heap_4.c ****     BlockLink_t * pxNewBlockLink;
 291              		.loc 1 141 5 view .LVU100
 142:Middlewares/Third_Party/FreeRTOS/Source/portable/MemMang/heap_4.c ****     void * pvReturn = NULL;
 292              		.loc 1 142 5 view .LVU101
 143:Middlewares/Third_Party/FreeRTOS/Source/portable/MemMang/heap_4.c ****     size_t xAdditionalRequiredSize;
 293              		.loc 1 143 5 view .LVU102
 294              	.LVL22:
 144:Middlewares/Third_Party/FreeRTOS/Source/portable/MemMang/heap_4.c **** 
 295              		.loc 1 144 5 view .LVU103
 146:Middlewares/Third_Party/FreeRTOS/Source/portable/MemMang/heap_4.c ****     {
 296              		.loc 1 146 5 view .LVU104
 297 0004 FFF7FEFF 		bl	vTaskSuspendAll
 298              	.LVL23:
 150:Middlewares/Third_Party/FreeRTOS/Source/portable/MemMang/heap_4.c ****         {
 299              		.loc 1 150 9 view .LVU105
 150:Middlewares/Third_Party/FreeRTOS/Source/portable/MemMang/heap_4.c ****         {
 300              		.loc 1 150 19 is_stmt 0 view .LVU106
 301 0008 3E4B     		ldr	r3, .L48
 302 000a 1B68     		ldr	r3, [r3]
 150:Middlewares/Third_Party/FreeRTOS/Source/portable/MemMang/heap_4.c ****         {
 303              		.loc 1 150 11 view .LVU107
 304 000c 9BB1     		cbz	r3, .L44
 305              	.L24:
 156:Middlewares/Third_Party/FreeRTOS/Source/portable/MemMang/heap_4.c ****         }
 306              		.loc 1 156 37 is_stmt 1 view .LVU108
 159:Middlewares/Third_Party/FreeRTOS/Source/portable/MemMang/heap_4.c ****         {
 307              		.loc 1 159 9 view .LVU109
 159:Middlewares/Third_Party/FreeRTOS/Source/portable/MemMang/heap_4.c ****         {
 308              		.loc 1 159 11 is_stmt 0 view .LVU110
 309 000e B5B1     		cbz	r5, .L25
 163:Middlewares/Third_Party/FreeRTOS/Source/portable/MemMang/heap_4.c ****             {
 310              		.loc 1 163 13 is_stmt 1 view .LVU111
 163:Middlewares/Third_Party/FreeRTOS/Source/portable/MemMang/heap_4.c ****             {
 311              		.loc 1 163 15 is_stmt 0 view .LVU112
 312 0010 15F1090F 		cmn	r5, #9
 313 0014 12D8     		bhi	.L40
 165:Middlewares/Third_Party/FreeRTOS/Source/portable/MemMang/heap_4.c **** 
 314              		.loc 1 165 17 is_stmt 1 view .LVU113
 165:Middlewares/Third_Party/FreeRTOS/Source/portable/MemMang/heap_4.c **** 
 315              		.loc 1 165 29 is_stmt 0 view .LVU114
ARM GAS  /tmp/ccyaTnsP.s 			page 16


 316 0016 0835     		adds	r5, r5, #8
 317              	.LVL24:
 169:Middlewares/Third_Party/FreeRTOS/Source/portable/MemMang/heap_4.c ****                 {
 318              		.loc 1 169 17 is_stmt 1 view .LVU115
 169:Middlewares/Third_Party/FreeRTOS/Source/portable/MemMang/heap_4.c ****                 {
 319              		.loc 1 169 19 is_stmt 0 view .LVU116
 320 0018 15F00703 		ands	r3, r5, #7
 321 001c 05D0     		beq	.L26
 172:Middlewares/Third_Party/FreeRTOS/Source/portable/MemMang/heap_4.c **** 
 322              		.loc 1 172 21 is_stmt 1 view .LVU117
 172:Middlewares/Third_Party/FreeRTOS/Source/portable/MemMang/heap_4.c **** 
 323              		.loc 1 172 45 is_stmt 0 view .LVU118
 324 001e C3F10802 		rsb	r2, r3, #8
 325              	.LVL25:
 174:Middlewares/Third_Party/FreeRTOS/Source/portable/MemMang/heap_4.c ****                     {
 326              		.loc 1 174 21 is_stmt 1 view .LVU119
 174:Middlewares/Third_Party/FreeRTOS/Source/portable/MemMang/heap_4.c ****                     {
 327              		.loc 1 174 25 is_stmt 0 view .LVU120
 328 0022 093B     		subs	r3, r3, #9
 174:Middlewares/Third_Party/FreeRTOS/Source/portable/MemMang/heap_4.c ****                     {
 329              		.loc 1 174 23 view .LVU121
 330 0024 AB42     		cmp	r3, r5
 331 0026 12D3     		bcc	.L41
 176:Middlewares/Third_Party/FreeRTOS/Source/portable/MemMang/heap_4.c ****                     }
 332              		.loc 1 176 25 is_stmt 1 view .LVU122
 176:Middlewares/Third_Party/FreeRTOS/Source/portable/MemMang/heap_4.c ****                     }
 333              		.loc 1 176 37 is_stmt 0 view .LVU123
 334 0028 1544     		add	r5, r5, r2
 335              	.LVL26:
 336              	.L26:
 195:Middlewares/Third_Party/FreeRTOS/Source/portable/MemMang/heap_4.c ****         }
 337              		.loc 1 195 37 is_stmt 1 view .LVU124
 202:Middlewares/Third_Party/FreeRTOS/Source/portable/MemMang/heap_4.c ****         {
 338              		.loc 1 202 9 view .LVU125
 202:Middlewares/Third_Party/FreeRTOS/Source/portable/MemMang/heap_4.c ****         {
 339              		.loc 1 202 11 is_stmt 0 view .LVU126
 340 002a 002D     		cmp	r5, #0
 341 002c 07DA     		bge	.L25
 282:Middlewares/Third_Party/FreeRTOS/Source/portable/MemMang/heap_4.c ****         }
 342              		.loc 1 282 37 is_stmt 1 view .LVU127
 285:Middlewares/Third_Party/FreeRTOS/Source/portable/MemMang/heap_4.c ****     }
 343              		.loc 1 285 45 view .LVU128
 287:Middlewares/Third_Party/FreeRTOS/Source/portable/MemMang/heap_4.c **** 
 344              		.loc 1 287 5 view .LVU129
 287:Middlewares/Third_Party/FreeRTOS/Source/portable/MemMang/heap_4.c **** 
 345              		.loc 1 287 14 is_stmt 0 view .LVU130
 346 002e FFF7FEFF 		bl	xTaskResumeAll
 347              	.LVL27:
 291:Middlewares/Third_Party/FreeRTOS/Source/portable/MemMang/heap_4.c ****         {
 348              		.loc 1 291 9 is_stmt 1 view .LVU131
 143:Middlewares/Third_Party/FreeRTOS/Source/portable/MemMang/heap_4.c ****     size_t xAdditionalRequiredSize;
 349              		.loc 1 143 12 is_stmt 0 view .LVU132
 350 0032 0026     		movs	r6, #0
 351 0034 10E0     		b	.L27
 352              	.L44:
 152:Middlewares/Third_Party/FreeRTOS/Source/portable/MemMang/heap_4.c ****         }
 353              		.loc 1 152 13 is_stmt 1 view .LVU133
ARM GAS  /tmp/ccyaTnsP.s 			page 17


 354 0036 FFF7FEFF 		bl	prvHeapInit
 355              	.LVL28:
 356 003a E8E7     		b	.L24
 357              	.L40:
 190:Middlewares/Third_Party/FreeRTOS/Source/portable/MemMang/heap_4.c ****             }
 358              		.loc 1 190 29 is_stmt 0 view .LVU134
 359 003c 0025     		movs	r5, #0
 360              	.LVL29:
 361              	.L25:
 204:Middlewares/Third_Party/FreeRTOS/Source/portable/MemMang/heap_4.c ****             {
 362              		.loc 1 204 13 is_stmt 1 view .LVU135
 204:Middlewares/Third_Party/FreeRTOS/Source/portable/MemMang/heap_4.c ****             {
 363              		.loc 1 204 15 is_stmt 0 view .LVU136
 364 003e 45B1     		cbz	r5, .L45
 204:Middlewares/Third_Party/FreeRTOS/Source/portable/MemMang/heap_4.c ****             {
 365              		.loc 1 204 54 discriminator 1 view .LVU137
 366 0040 314B     		ldr	r3, .L48+4
 367 0042 1B68     		ldr	r3, [r3]
 204:Middlewares/Third_Party/FreeRTOS/Source/portable/MemMang/heap_4.c ****             {
 368              		.loc 1 204 37 discriminator 1 view .LVU138
 369 0044 AB42     		cmp	r3, r5
 370 0046 15D3     		bcc	.L46
 208:Middlewares/Third_Party/FreeRTOS/Source/portable/MemMang/heap_4.c ****                 pxBlock = xStart.pxNextFreeBlock;
 371              		.loc 1 208 17 is_stmt 1 view .LVU139
 372              	.LVL30:
 209:Middlewares/Third_Party/FreeRTOS/Source/portable/MemMang/heap_4.c **** 
 373              		.loc 1 209 17 view .LVU140
 209:Middlewares/Third_Party/FreeRTOS/Source/portable/MemMang/heap_4.c **** 
 374              		.loc 1 209 25 is_stmt 0 view .LVU141
 375 0048 304A     		ldr	r2, .L48+8
 376 004a 1468     		ldr	r4, [r2]
 377              	.LVL31:
 211:Middlewares/Third_Party/FreeRTOS/Source/portable/MemMang/heap_4.c ****                 {
 378              		.loc 1 211 17 is_stmt 1 view .LVU142
 211:Middlewares/Third_Party/FreeRTOS/Source/portable/MemMang/heap_4.c ****                 {
 379              		.loc 1 211 22 is_stmt 0 view .LVU143
 380 004c 18E0     		b	.L31
 381              	.LVL32:
 382              	.L41:
 180:Middlewares/Third_Party/FreeRTOS/Source/portable/MemMang/heap_4.c ****                     }
 383              		.loc 1 180 37 view .LVU144
 384 004e 0025     		movs	r5, #0
 385              	.LVL33:
 180:Middlewares/Third_Party/FreeRTOS/Source/portable/MemMang/heap_4.c ****                     }
 386              		.loc 1 180 37 view .LVU145
 387 0050 F5E7     		b	.L25
 388              	.LVL34:
 389              	.L45:
 282:Middlewares/Third_Party/FreeRTOS/Source/portable/MemMang/heap_4.c ****         }
 390              		.loc 1 282 37 is_stmt 1 view .LVU146
 285:Middlewares/Third_Party/FreeRTOS/Source/portable/MemMang/heap_4.c ****     }
 391              		.loc 1 285 45 view .LVU147
 287:Middlewares/Third_Party/FreeRTOS/Source/portable/MemMang/heap_4.c **** 
 392              		.loc 1 287 5 view .LVU148
 287:Middlewares/Third_Party/FreeRTOS/Source/portable/MemMang/heap_4.c **** 
 393              		.loc 1 287 14 is_stmt 0 view .LVU149
 394 0052 FFF7FEFF 		bl	xTaskResumeAll
ARM GAS  /tmp/ccyaTnsP.s 			page 18


 395              	.LVL35:
 291:Middlewares/Third_Party/FreeRTOS/Source/portable/MemMang/heap_4.c ****         {
 396              		.loc 1 291 9 is_stmt 1 view .LVU150
 143:Middlewares/Third_Party/FreeRTOS/Source/portable/MemMang/heap_4.c ****     size_t xAdditionalRequiredSize;
 397              		.loc 1 143 12 is_stmt 0 view .LVU151
 398 0056 0026     		movs	r6, #0
 399              	.LVL36:
 400              	.L27:
 293:Middlewares/Third_Party/FreeRTOS/Source/portable/MemMang/heap_4.c ****         }
 401              		.loc 1 293 13 is_stmt 1 view .LVU152
 402 0058 FFF7FEFF 		bl	vApplicationMallocFailedHook
 403              	.LVL37:
 404              	.L37:
 297:Middlewares/Third_Party/FreeRTOS/Source/portable/MemMang/heap_4.c ****         }
 405              		.loc 1 297 37 view .LVU153
 302:Middlewares/Third_Party/FreeRTOS/Source/portable/MemMang/heap_4.c ****     return pvReturn;
 406              		.loc 1 302 5 view .LVU154
 407 005c 16F0070F 		tst	r6, #7
 408 0060 4ED0     		beq	.L23
 302:Middlewares/Third_Party/FreeRTOS/Source/portable/MemMang/heap_4.c ****     return pvReturn;
 409              		.loc 1 302 5 discriminator 1 view .LVU155
 410              	.LBB10:
 411              	.LBI10:
 412              		.file 2 "Middlewares/Third_Party/FreeRTOS/Source/portable/GCC/ARM_CM3/portmacro.h"
   1:Middlewares/Third_Party/FreeRTOS/Source/portable/GCC/ARM_CM3/portmacro.h **** /*
   2:Middlewares/Third_Party/FreeRTOS/Source/portable/GCC/ARM_CM3/portmacro.h ****  * FreeRTOS Kernel V10.6.2
   3:Middlewares/Third_Party/FreeRTOS/Source/portable/GCC/ARM_CM3/portmacro.h ****  * Copyright (C) 2021 Amazon.com, Inc. or its affiliates.  All Rights Reserved.
   4:Middlewares/Third_Party/FreeRTOS/Source/portable/GCC/ARM_CM3/portmacro.h ****  *
   5:Middlewares/Third_Party/FreeRTOS/Source/portable/GCC/ARM_CM3/portmacro.h ****  * SPDX-License-Identifier: MIT
   6:Middlewares/Third_Party/FreeRTOS/Source/portable/GCC/ARM_CM3/portmacro.h ****  *
   7:Middlewares/Third_Party/FreeRTOS/Source/portable/GCC/ARM_CM3/portmacro.h ****  * Permission is hereby granted, free of charge, to any person obtaining a copy of
   8:Middlewares/Third_Party/FreeRTOS/Source/portable/GCC/ARM_CM3/portmacro.h ****  * this software and associated documentation files (the "Software"), to deal in
   9:Middlewares/Third_Party/FreeRTOS/Source/portable/GCC/ARM_CM3/portmacro.h ****  * the Software without restriction, including without limitation the rights to
  10:Middlewares/Third_Party/FreeRTOS/Source/portable/GCC/ARM_CM3/portmacro.h ****  * use, copy, modify, merge, publish, distribute, sublicense, and/or sell copies of
  11:Middlewares/Third_Party/FreeRTOS/Source/portable/GCC/ARM_CM3/portmacro.h ****  * the Software, and to permit persons to whom the Software is furnished to do so,
  12:Middlewares/Third_Party/FreeRTOS/Source/portable/GCC/ARM_CM3/portmacro.h ****  * subject to the following conditions:
  13:Middlewares/Third_Party/FreeRTOS/Source/portable/GCC/ARM_CM3/portmacro.h ****  *
  14:Middlewares/Third_Party/FreeRTOS/Source/portable/GCC/ARM_CM3/portmacro.h ****  * The above copyright notice and this permission notice shall be included in all
  15:Middlewares/Third_Party/FreeRTOS/Source/portable/GCC/ARM_CM3/portmacro.h ****  * copies or substantial portions of the Software.
  16:Middlewares/Third_Party/FreeRTOS/Source/portable/GCC/ARM_CM3/portmacro.h ****  *
  17:Middlewares/Third_Party/FreeRTOS/Source/portable/GCC/ARM_CM3/portmacro.h ****  * THE SOFTWARE IS PROVIDED "AS IS", WITHOUT WARRANTY OF ANY KIND, EXPRESS OR
  18:Middlewares/Third_Party/FreeRTOS/Source/portable/GCC/ARM_CM3/portmacro.h ****  * IMPLIED, INCLUDING BUT NOT LIMITED TO THE WARRANTIES OF MERCHANTABILITY, FITNESS
  19:Middlewares/Third_Party/FreeRTOS/Source/portable/GCC/ARM_CM3/portmacro.h ****  * FOR A PARTICULAR PURPOSE AND NONINFRINGEMENT. IN NO EVENT SHALL THE AUTHORS OR
  20:Middlewares/Third_Party/FreeRTOS/Source/portable/GCC/ARM_CM3/portmacro.h ****  * COPYRIGHT HOLDERS BE LIABLE FOR ANY CLAIM, DAMAGES OR OTHER LIABILITY, WHETHER
  21:Middlewares/Third_Party/FreeRTOS/Source/portable/GCC/ARM_CM3/portmacro.h ****  * IN AN ACTION OF CONTRACT, TORT OR OTHERWISE, ARISING FROM, OUT OF OR IN
  22:Middlewares/Third_Party/FreeRTOS/Source/portable/GCC/ARM_CM3/portmacro.h ****  * CONNECTION WITH THE SOFTWARE OR THE USE OR OTHER DEALINGS IN THE SOFTWARE.
  23:Middlewares/Third_Party/FreeRTOS/Source/portable/GCC/ARM_CM3/portmacro.h ****  *
  24:Middlewares/Third_Party/FreeRTOS/Source/portable/GCC/ARM_CM3/portmacro.h ****  * https://www.FreeRTOS.org
  25:Middlewares/Third_Party/FreeRTOS/Source/portable/GCC/ARM_CM3/portmacro.h ****  * https://github.com/FreeRTOS
  26:Middlewares/Third_Party/FreeRTOS/Source/portable/GCC/ARM_CM3/portmacro.h ****  *
  27:Middlewares/Third_Party/FreeRTOS/Source/portable/GCC/ARM_CM3/portmacro.h ****  */
  28:Middlewares/Third_Party/FreeRTOS/Source/portable/GCC/ARM_CM3/portmacro.h **** 
  29:Middlewares/Third_Party/FreeRTOS/Source/portable/GCC/ARM_CM3/portmacro.h **** 
  30:Middlewares/Third_Party/FreeRTOS/Source/portable/GCC/ARM_CM3/portmacro.h **** #ifndef PORTMACRO_H
  31:Middlewares/Third_Party/FreeRTOS/Source/portable/GCC/ARM_CM3/portmacro.h ****     #define PORTMACRO_H
  32:Middlewares/Third_Party/FreeRTOS/Source/portable/GCC/ARM_CM3/portmacro.h **** 
  33:Middlewares/Third_Party/FreeRTOS/Source/portable/GCC/ARM_CM3/portmacro.h **** /* *INDENT-OFF* */
ARM GAS  /tmp/ccyaTnsP.s 			page 19


  34:Middlewares/Third_Party/FreeRTOS/Source/portable/GCC/ARM_CM3/portmacro.h **** #ifdef __cplusplus
  35:Middlewares/Third_Party/FreeRTOS/Source/portable/GCC/ARM_CM3/portmacro.h ****     extern "C" {
  36:Middlewares/Third_Party/FreeRTOS/Source/portable/GCC/ARM_CM3/portmacro.h **** #endif
  37:Middlewares/Third_Party/FreeRTOS/Source/portable/GCC/ARM_CM3/portmacro.h **** /* *INDENT-ON* */
  38:Middlewares/Third_Party/FreeRTOS/Source/portable/GCC/ARM_CM3/portmacro.h **** 
  39:Middlewares/Third_Party/FreeRTOS/Source/portable/GCC/ARM_CM3/portmacro.h **** /*-----------------------------------------------------------
  40:Middlewares/Third_Party/FreeRTOS/Source/portable/GCC/ARM_CM3/portmacro.h ****  * Port specific definitions.
  41:Middlewares/Third_Party/FreeRTOS/Source/portable/GCC/ARM_CM3/portmacro.h ****  *
  42:Middlewares/Third_Party/FreeRTOS/Source/portable/GCC/ARM_CM3/portmacro.h ****  * The settings in this file configure FreeRTOS correctly for the
  43:Middlewares/Third_Party/FreeRTOS/Source/portable/GCC/ARM_CM3/portmacro.h ****  * given hardware and compiler.
  44:Middlewares/Third_Party/FreeRTOS/Source/portable/GCC/ARM_CM3/portmacro.h ****  *
  45:Middlewares/Third_Party/FreeRTOS/Source/portable/GCC/ARM_CM3/portmacro.h ****  * These settings should not be altered.
  46:Middlewares/Third_Party/FreeRTOS/Source/portable/GCC/ARM_CM3/portmacro.h ****  *-----------------------------------------------------------
  47:Middlewares/Third_Party/FreeRTOS/Source/portable/GCC/ARM_CM3/portmacro.h ****  */
  48:Middlewares/Third_Party/FreeRTOS/Source/portable/GCC/ARM_CM3/portmacro.h **** 
  49:Middlewares/Third_Party/FreeRTOS/Source/portable/GCC/ARM_CM3/portmacro.h **** /* Type definitions. */
  50:Middlewares/Third_Party/FreeRTOS/Source/portable/GCC/ARM_CM3/portmacro.h ****     #define portCHAR          char
  51:Middlewares/Third_Party/FreeRTOS/Source/portable/GCC/ARM_CM3/portmacro.h ****     #define portFLOAT         float
  52:Middlewares/Third_Party/FreeRTOS/Source/portable/GCC/ARM_CM3/portmacro.h ****     #define portDOUBLE        double
  53:Middlewares/Third_Party/FreeRTOS/Source/portable/GCC/ARM_CM3/portmacro.h ****     #define portLONG          long
  54:Middlewares/Third_Party/FreeRTOS/Source/portable/GCC/ARM_CM3/portmacro.h ****     #define portSHORT         short
  55:Middlewares/Third_Party/FreeRTOS/Source/portable/GCC/ARM_CM3/portmacro.h ****     #define portSTACK_TYPE    uint32_t
  56:Middlewares/Third_Party/FreeRTOS/Source/portable/GCC/ARM_CM3/portmacro.h ****     #define portBASE_TYPE     long
  57:Middlewares/Third_Party/FreeRTOS/Source/portable/GCC/ARM_CM3/portmacro.h **** 
  58:Middlewares/Third_Party/FreeRTOS/Source/portable/GCC/ARM_CM3/portmacro.h ****     typedef portSTACK_TYPE   StackType_t;
  59:Middlewares/Third_Party/FreeRTOS/Source/portable/GCC/ARM_CM3/portmacro.h ****     typedef long             BaseType_t;
  60:Middlewares/Third_Party/FreeRTOS/Source/portable/GCC/ARM_CM3/portmacro.h ****     typedef unsigned long    UBaseType_t;
  61:Middlewares/Third_Party/FreeRTOS/Source/portable/GCC/ARM_CM3/portmacro.h **** 
  62:Middlewares/Third_Party/FreeRTOS/Source/portable/GCC/ARM_CM3/portmacro.h ****     #if ( configTICK_TYPE_WIDTH_IN_BITS == TICK_TYPE_WIDTH_16_BITS )
  63:Middlewares/Third_Party/FreeRTOS/Source/portable/GCC/ARM_CM3/portmacro.h ****         typedef uint16_t     TickType_t;
  64:Middlewares/Third_Party/FreeRTOS/Source/portable/GCC/ARM_CM3/portmacro.h ****         #define portMAX_DELAY              ( TickType_t ) 0xffff
  65:Middlewares/Third_Party/FreeRTOS/Source/portable/GCC/ARM_CM3/portmacro.h ****     #elif ( configTICK_TYPE_WIDTH_IN_BITS == TICK_TYPE_WIDTH_32_BITS )
  66:Middlewares/Third_Party/FreeRTOS/Source/portable/GCC/ARM_CM3/portmacro.h ****         typedef uint32_t     TickType_t;
  67:Middlewares/Third_Party/FreeRTOS/Source/portable/GCC/ARM_CM3/portmacro.h ****         #define portMAX_DELAY              ( TickType_t ) 0xffffffffUL
  68:Middlewares/Third_Party/FreeRTOS/Source/portable/GCC/ARM_CM3/portmacro.h **** 
  69:Middlewares/Third_Party/FreeRTOS/Source/portable/GCC/ARM_CM3/portmacro.h **** /* 32-bit tick type on a 32-bit architecture, so reads of the tick count do
  70:Middlewares/Third_Party/FreeRTOS/Source/portable/GCC/ARM_CM3/portmacro.h ****  * not need to be guarded with a critical section. */
  71:Middlewares/Third_Party/FreeRTOS/Source/portable/GCC/ARM_CM3/portmacro.h ****         #define portTICK_TYPE_IS_ATOMIC    1
  72:Middlewares/Third_Party/FreeRTOS/Source/portable/GCC/ARM_CM3/portmacro.h ****     #else
  73:Middlewares/Third_Party/FreeRTOS/Source/portable/GCC/ARM_CM3/portmacro.h ****         #error configTICK_TYPE_WIDTH_IN_BITS set to unsupported tick type width.
  74:Middlewares/Third_Party/FreeRTOS/Source/portable/GCC/ARM_CM3/portmacro.h ****     #endif
  75:Middlewares/Third_Party/FreeRTOS/Source/portable/GCC/ARM_CM3/portmacro.h **** /*-----------------------------------------------------------*/
  76:Middlewares/Third_Party/FreeRTOS/Source/portable/GCC/ARM_CM3/portmacro.h **** 
  77:Middlewares/Third_Party/FreeRTOS/Source/portable/GCC/ARM_CM3/portmacro.h **** /* Architecture specifics. */
  78:Middlewares/Third_Party/FreeRTOS/Source/portable/GCC/ARM_CM3/portmacro.h ****     #define portSTACK_GROWTH      ( -1 )
  79:Middlewares/Third_Party/FreeRTOS/Source/portable/GCC/ARM_CM3/portmacro.h ****     #define portTICK_PERIOD_MS    ( ( TickType_t ) 1000 / configTICK_RATE_HZ )
  80:Middlewares/Third_Party/FreeRTOS/Source/portable/GCC/ARM_CM3/portmacro.h ****     #define portBYTE_ALIGNMENT    8
  81:Middlewares/Third_Party/FreeRTOS/Source/portable/GCC/ARM_CM3/portmacro.h ****     #define portDONT_DISCARD      __attribute__( ( used ) )
  82:Middlewares/Third_Party/FreeRTOS/Source/portable/GCC/ARM_CM3/portmacro.h **** /*-----------------------------------------------------------*/
  83:Middlewares/Third_Party/FreeRTOS/Source/portable/GCC/ARM_CM3/portmacro.h **** 
  84:Middlewares/Third_Party/FreeRTOS/Source/portable/GCC/ARM_CM3/portmacro.h **** /* Scheduler utilities. */
  85:Middlewares/Third_Party/FreeRTOS/Source/portable/GCC/ARM_CM3/portmacro.h ****     #define portYIELD()                                 \
  86:Middlewares/Third_Party/FreeRTOS/Source/portable/GCC/ARM_CM3/portmacro.h ****     {                                                   \
  87:Middlewares/Third_Party/FreeRTOS/Source/portable/GCC/ARM_CM3/portmacro.h ****         /* Set a PendSV to request a context switch. */ \
  88:Middlewares/Third_Party/FreeRTOS/Source/portable/GCC/ARM_CM3/portmacro.h ****         portNVIC_INT_CTRL_REG = portNVIC_PENDSVSET_BIT; \
  89:Middlewares/Third_Party/FreeRTOS/Source/portable/GCC/ARM_CM3/portmacro.h ****                                                         \
  90:Middlewares/Third_Party/FreeRTOS/Source/portable/GCC/ARM_CM3/portmacro.h ****         /* Barriers are normally not required but do ensure the code is completely \
ARM GAS  /tmp/ccyaTnsP.s 			page 20


  91:Middlewares/Third_Party/FreeRTOS/Source/portable/GCC/ARM_CM3/portmacro.h ****          * within the specified behaviour for the architecture. */ \
  92:Middlewares/Third_Party/FreeRTOS/Source/portable/GCC/ARM_CM3/portmacro.h ****         __asm volatile ( "dsb" ::: "memory" );                     \
  93:Middlewares/Third_Party/FreeRTOS/Source/portable/GCC/ARM_CM3/portmacro.h ****         __asm volatile ( "isb" );                                  \
  94:Middlewares/Third_Party/FreeRTOS/Source/portable/GCC/ARM_CM3/portmacro.h ****     }
  95:Middlewares/Third_Party/FreeRTOS/Source/portable/GCC/ARM_CM3/portmacro.h **** 
  96:Middlewares/Third_Party/FreeRTOS/Source/portable/GCC/ARM_CM3/portmacro.h ****     #define portNVIC_INT_CTRL_REG     ( *( ( volatile uint32_t * ) 0xe000ed04 ) )
  97:Middlewares/Third_Party/FreeRTOS/Source/portable/GCC/ARM_CM3/portmacro.h ****     #define portNVIC_PENDSVSET_BIT    ( 1UL << 28UL )
  98:Middlewares/Third_Party/FreeRTOS/Source/portable/GCC/ARM_CM3/portmacro.h ****     #define portEND_SWITCHING_ISR( xSwitchRequired )    do { if( xSwitchRequired != pdFALSE ) portY
  99:Middlewares/Third_Party/FreeRTOS/Source/portable/GCC/ARM_CM3/portmacro.h ****     #define portYIELD_FROM_ISR( x )                     portEND_SWITCHING_ISR( x )
 100:Middlewares/Third_Party/FreeRTOS/Source/portable/GCC/ARM_CM3/portmacro.h **** /*-----------------------------------------------------------*/
 101:Middlewares/Third_Party/FreeRTOS/Source/portable/GCC/ARM_CM3/portmacro.h **** 
 102:Middlewares/Third_Party/FreeRTOS/Source/portable/GCC/ARM_CM3/portmacro.h **** /* Critical section management. */
 103:Middlewares/Third_Party/FreeRTOS/Source/portable/GCC/ARM_CM3/portmacro.h ****     extern void vPortEnterCritical( void );
 104:Middlewares/Third_Party/FreeRTOS/Source/portable/GCC/ARM_CM3/portmacro.h ****     extern void vPortExitCritical( void );
 105:Middlewares/Third_Party/FreeRTOS/Source/portable/GCC/ARM_CM3/portmacro.h ****     #define portSET_INTERRUPT_MASK_FROM_ISR()         ulPortRaiseBASEPRI()
 106:Middlewares/Third_Party/FreeRTOS/Source/portable/GCC/ARM_CM3/portmacro.h ****     #define portCLEAR_INTERRUPT_MASK_FROM_ISR( x )    vPortSetBASEPRI( x )
 107:Middlewares/Third_Party/FreeRTOS/Source/portable/GCC/ARM_CM3/portmacro.h ****     #define portDISABLE_INTERRUPTS()                  vPortRaiseBASEPRI()
 108:Middlewares/Third_Party/FreeRTOS/Source/portable/GCC/ARM_CM3/portmacro.h ****     #define portENABLE_INTERRUPTS()                   vPortSetBASEPRI( 0 )
 109:Middlewares/Third_Party/FreeRTOS/Source/portable/GCC/ARM_CM3/portmacro.h ****     #define portENTER_CRITICAL()                      vPortEnterCritical()
 110:Middlewares/Third_Party/FreeRTOS/Source/portable/GCC/ARM_CM3/portmacro.h ****     #define portEXIT_CRITICAL()                       vPortExitCritical()
 111:Middlewares/Third_Party/FreeRTOS/Source/portable/GCC/ARM_CM3/portmacro.h **** 
 112:Middlewares/Third_Party/FreeRTOS/Source/portable/GCC/ARM_CM3/portmacro.h **** /*-----------------------------------------------------------*/
 113:Middlewares/Third_Party/FreeRTOS/Source/portable/GCC/ARM_CM3/portmacro.h **** 
 114:Middlewares/Third_Party/FreeRTOS/Source/portable/GCC/ARM_CM3/portmacro.h **** /* Task function macros as described on the FreeRTOS.org WEB site.  These are
 115:Middlewares/Third_Party/FreeRTOS/Source/portable/GCC/ARM_CM3/portmacro.h ****  * not necessary for to use this port.  They are defined so the common demo files
 116:Middlewares/Third_Party/FreeRTOS/Source/portable/GCC/ARM_CM3/portmacro.h ****  * (which build with all the ports) will build. */
 117:Middlewares/Third_Party/FreeRTOS/Source/portable/GCC/ARM_CM3/portmacro.h ****     #define portTASK_FUNCTION_PROTO( vFunction, pvParameters )    void vFunction( void * pvParamete
 118:Middlewares/Third_Party/FreeRTOS/Source/portable/GCC/ARM_CM3/portmacro.h ****     #define portTASK_FUNCTION( vFunction, pvParameters )          void vFunction( void * pvParamete
 119:Middlewares/Third_Party/FreeRTOS/Source/portable/GCC/ARM_CM3/portmacro.h **** /*-----------------------------------------------------------*/
 120:Middlewares/Third_Party/FreeRTOS/Source/portable/GCC/ARM_CM3/portmacro.h **** 
 121:Middlewares/Third_Party/FreeRTOS/Source/portable/GCC/ARM_CM3/portmacro.h **** /* Tickless idle/low power functionality. */
 122:Middlewares/Third_Party/FreeRTOS/Source/portable/GCC/ARM_CM3/portmacro.h ****     #ifndef portSUPPRESS_TICKS_AND_SLEEP
 123:Middlewares/Third_Party/FreeRTOS/Source/portable/GCC/ARM_CM3/portmacro.h ****         extern void vPortSuppressTicksAndSleep( TickType_t xExpectedIdleTime );
 124:Middlewares/Third_Party/FreeRTOS/Source/portable/GCC/ARM_CM3/portmacro.h ****         #define portSUPPRESS_TICKS_AND_SLEEP( xExpectedIdleTime )    vPortSuppressTicksAndSleep( xE
 125:Middlewares/Third_Party/FreeRTOS/Source/portable/GCC/ARM_CM3/portmacro.h ****     #endif
 126:Middlewares/Third_Party/FreeRTOS/Source/portable/GCC/ARM_CM3/portmacro.h **** /*-----------------------------------------------------------*/
 127:Middlewares/Third_Party/FreeRTOS/Source/portable/GCC/ARM_CM3/portmacro.h **** 
 128:Middlewares/Third_Party/FreeRTOS/Source/portable/GCC/ARM_CM3/portmacro.h **** /* Architecture specific optimisations. */
 129:Middlewares/Third_Party/FreeRTOS/Source/portable/GCC/ARM_CM3/portmacro.h ****     #ifndef configUSE_PORT_OPTIMISED_TASK_SELECTION
 130:Middlewares/Third_Party/FreeRTOS/Source/portable/GCC/ARM_CM3/portmacro.h ****         #define configUSE_PORT_OPTIMISED_TASK_SELECTION    1
 131:Middlewares/Third_Party/FreeRTOS/Source/portable/GCC/ARM_CM3/portmacro.h ****     #endif
 132:Middlewares/Third_Party/FreeRTOS/Source/portable/GCC/ARM_CM3/portmacro.h **** 
 133:Middlewares/Third_Party/FreeRTOS/Source/portable/GCC/ARM_CM3/portmacro.h ****     #if configUSE_PORT_OPTIMISED_TASK_SELECTION == 1
 134:Middlewares/Third_Party/FreeRTOS/Source/portable/GCC/ARM_CM3/portmacro.h **** 
 135:Middlewares/Third_Party/FreeRTOS/Source/portable/GCC/ARM_CM3/portmacro.h **** /* Generic helper function. */
 136:Middlewares/Third_Party/FreeRTOS/Source/portable/GCC/ARM_CM3/portmacro.h ****         __attribute__( ( always_inline ) ) static inline uint8_t ucPortCountLeadingZeros( uint32_t 
 137:Middlewares/Third_Party/FreeRTOS/Source/portable/GCC/ARM_CM3/portmacro.h ****         {
 138:Middlewares/Third_Party/FreeRTOS/Source/portable/GCC/ARM_CM3/portmacro.h ****             uint8_t ucReturn;
 139:Middlewares/Third_Party/FreeRTOS/Source/portable/GCC/ARM_CM3/portmacro.h **** 
 140:Middlewares/Third_Party/FreeRTOS/Source/portable/GCC/ARM_CM3/portmacro.h ****             __asm volatile ( "clz %0, %1" : "=r" ( ucReturn ) : "r" ( ulBitmap ) : "memory" );
 141:Middlewares/Third_Party/FreeRTOS/Source/portable/GCC/ARM_CM3/portmacro.h **** 
 142:Middlewares/Third_Party/FreeRTOS/Source/portable/GCC/ARM_CM3/portmacro.h ****             return ucReturn;
 143:Middlewares/Third_Party/FreeRTOS/Source/portable/GCC/ARM_CM3/portmacro.h ****         }
 144:Middlewares/Third_Party/FreeRTOS/Source/portable/GCC/ARM_CM3/portmacro.h **** 
 145:Middlewares/Third_Party/FreeRTOS/Source/portable/GCC/ARM_CM3/portmacro.h **** /* Check the configuration. */
 146:Middlewares/Third_Party/FreeRTOS/Source/portable/GCC/ARM_CM3/portmacro.h ****         #if ( configMAX_PRIORITIES > 32 )
 147:Middlewares/Third_Party/FreeRTOS/Source/portable/GCC/ARM_CM3/portmacro.h ****             #error configUSE_PORT_OPTIMISED_TASK_SELECTION can only be set to 1 when configMAX_PRIO
ARM GAS  /tmp/ccyaTnsP.s 			page 21


 148:Middlewares/Third_Party/FreeRTOS/Source/portable/GCC/ARM_CM3/portmacro.h ****         #endif
 149:Middlewares/Third_Party/FreeRTOS/Source/portable/GCC/ARM_CM3/portmacro.h **** 
 150:Middlewares/Third_Party/FreeRTOS/Source/portable/GCC/ARM_CM3/portmacro.h **** /* Store/clear the ready priorities in a bit map. */
 151:Middlewares/Third_Party/FreeRTOS/Source/portable/GCC/ARM_CM3/portmacro.h ****         #define portRECORD_READY_PRIORITY( uxPriority, uxReadyPriorities )    ( uxReadyPriorities )
 152:Middlewares/Third_Party/FreeRTOS/Source/portable/GCC/ARM_CM3/portmacro.h ****         #define portRESET_READY_PRIORITY( uxPriority, uxReadyPriorities )     ( uxReadyPriorities )
 153:Middlewares/Third_Party/FreeRTOS/Source/portable/GCC/ARM_CM3/portmacro.h **** 
 154:Middlewares/Third_Party/FreeRTOS/Source/portable/GCC/ARM_CM3/portmacro.h **** /*-----------------------------------------------------------*/
 155:Middlewares/Third_Party/FreeRTOS/Source/portable/GCC/ARM_CM3/portmacro.h **** 
 156:Middlewares/Third_Party/FreeRTOS/Source/portable/GCC/ARM_CM3/portmacro.h ****         #define portGET_HIGHEST_PRIORITY( uxTopPriority, uxReadyPriorities )    uxTopPriority = ( 3
 157:Middlewares/Third_Party/FreeRTOS/Source/portable/GCC/ARM_CM3/portmacro.h **** 
 158:Middlewares/Third_Party/FreeRTOS/Source/portable/GCC/ARM_CM3/portmacro.h ****     #endif /* configUSE_PORT_OPTIMISED_TASK_SELECTION */
 159:Middlewares/Third_Party/FreeRTOS/Source/portable/GCC/ARM_CM3/portmacro.h **** 
 160:Middlewares/Third_Party/FreeRTOS/Source/portable/GCC/ARM_CM3/portmacro.h **** /*-----------------------------------------------------------*/
 161:Middlewares/Third_Party/FreeRTOS/Source/portable/GCC/ARM_CM3/portmacro.h **** 
 162:Middlewares/Third_Party/FreeRTOS/Source/portable/GCC/ARM_CM3/portmacro.h ****     #ifdef configASSERT
 163:Middlewares/Third_Party/FreeRTOS/Source/portable/GCC/ARM_CM3/portmacro.h ****         void vPortValidateInterruptPriority( void );
 164:Middlewares/Third_Party/FreeRTOS/Source/portable/GCC/ARM_CM3/portmacro.h ****         #define portASSERT_IF_INTERRUPT_PRIORITY_INVALID()    vPortValidateInterruptPriority()
 165:Middlewares/Third_Party/FreeRTOS/Source/portable/GCC/ARM_CM3/portmacro.h ****     #endif
 166:Middlewares/Third_Party/FreeRTOS/Source/portable/GCC/ARM_CM3/portmacro.h **** 
 167:Middlewares/Third_Party/FreeRTOS/Source/portable/GCC/ARM_CM3/portmacro.h **** /* portNOP() is not required by this port. */
 168:Middlewares/Third_Party/FreeRTOS/Source/portable/GCC/ARM_CM3/portmacro.h ****     #define portNOP()
 169:Middlewares/Third_Party/FreeRTOS/Source/portable/GCC/ARM_CM3/portmacro.h **** 
 170:Middlewares/Third_Party/FreeRTOS/Source/portable/GCC/ARM_CM3/portmacro.h ****     #define portINLINE              __inline
 171:Middlewares/Third_Party/FreeRTOS/Source/portable/GCC/ARM_CM3/portmacro.h **** 
 172:Middlewares/Third_Party/FreeRTOS/Source/portable/GCC/ARM_CM3/portmacro.h ****     #ifndef portFORCE_INLINE
 173:Middlewares/Third_Party/FreeRTOS/Source/portable/GCC/ARM_CM3/portmacro.h ****         #define portFORCE_INLINE    inline __attribute__( ( always_inline ) )
 174:Middlewares/Third_Party/FreeRTOS/Source/portable/GCC/ARM_CM3/portmacro.h ****     #endif
 175:Middlewares/Third_Party/FreeRTOS/Source/portable/GCC/ARM_CM3/portmacro.h **** 
 176:Middlewares/Third_Party/FreeRTOS/Source/portable/GCC/ARM_CM3/portmacro.h **** /*-----------------------------------------------------------*/
 177:Middlewares/Third_Party/FreeRTOS/Source/portable/GCC/ARM_CM3/portmacro.h **** 
 178:Middlewares/Third_Party/FreeRTOS/Source/portable/GCC/ARM_CM3/portmacro.h ****     portFORCE_INLINE static BaseType_t xPortIsInsideInterrupt( void )
 179:Middlewares/Third_Party/FreeRTOS/Source/portable/GCC/ARM_CM3/portmacro.h ****     {
 180:Middlewares/Third_Party/FreeRTOS/Source/portable/GCC/ARM_CM3/portmacro.h ****         uint32_t ulCurrentInterrupt;
 181:Middlewares/Third_Party/FreeRTOS/Source/portable/GCC/ARM_CM3/portmacro.h ****         BaseType_t xReturn;
 182:Middlewares/Third_Party/FreeRTOS/Source/portable/GCC/ARM_CM3/portmacro.h **** 
 183:Middlewares/Third_Party/FreeRTOS/Source/portable/GCC/ARM_CM3/portmacro.h ****         /* Obtain the number of the currently executing interrupt. */
 184:Middlewares/Third_Party/FreeRTOS/Source/portable/GCC/ARM_CM3/portmacro.h ****         __asm volatile ( "mrs %0, ipsr" : "=r" ( ulCurrentInterrupt )::"memory" );
 185:Middlewares/Third_Party/FreeRTOS/Source/portable/GCC/ARM_CM3/portmacro.h **** 
 186:Middlewares/Third_Party/FreeRTOS/Source/portable/GCC/ARM_CM3/portmacro.h ****         if( ulCurrentInterrupt == 0 )
 187:Middlewares/Third_Party/FreeRTOS/Source/portable/GCC/ARM_CM3/portmacro.h ****         {
 188:Middlewares/Third_Party/FreeRTOS/Source/portable/GCC/ARM_CM3/portmacro.h ****             xReturn = pdFALSE;
 189:Middlewares/Third_Party/FreeRTOS/Source/portable/GCC/ARM_CM3/portmacro.h ****         }
 190:Middlewares/Third_Party/FreeRTOS/Source/portable/GCC/ARM_CM3/portmacro.h ****         else
 191:Middlewares/Third_Party/FreeRTOS/Source/portable/GCC/ARM_CM3/portmacro.h ****         {
 192:Middlewares/Third_Party/FreeRTOS/Source/portable/GCC/ARM_CM3/portmacro.h ****             xReturn = pdTRUE;
 193:Middlewares/Third_Party/FreeRTOS/Source/portable/GCC/ARM_CM3/portmacro.h ****         }
 194:Middlewares/Third_Party/FreeRTOS/Source/portable/GCC/ARM_CM3/portmacro.h **** 
 195:Middlewares/Third_Party/FreeRTOS/Source/portable/GCC/ARM_CM3/portmacro.h ****         return xReturn;
 196:Middlewares/Third_Party/FreeRTOS/Source/portable/GCC/ARM_CM3/portmacro.h ****     }
 197:Middlewares/Third_Party/FreeRTOS/Source/portable/GCC/ARM_CM3/portmacro.h **** 
 198:Middlewares/Third_Party/FreeRTOS/Source/portable/GCC/ARM_CM3/portmacro.h **** /*-----------------------------------------------------------*/
 199:Middlewares/Third_Party/FreeRTOS/Source/portable/GCC/ARM_CM3/portmacro.h **** 
 200:Middlewares/Third_Party/FreeRTOS/Source/portable/GCC/ARM_CM3/portmacro.h ****     portFORCE_INLINE static void vPortRaiseBASEPRI( void )
 413              		.loc 2 200 34 view .LVU156
 414              	.LBB11:
 201:Middlewares/Third_Party/FreeRTOS/Source/portable/GCC/ARM_CM3/portmacro.h ****     {
 202:Middlewares/Third_Party/FreeRTOS/Source/portable/GCC/ARM_CM3/portmacro.h ****         uint32_t ulNewBASEPRI;
ARM GAS  /tmp/ccyaTnsP.s 			page 22


 415              		.loc 2 202 9 view .LVU157
 203:Middlewares/Third_Party/FreeRTOS/Source/portable/GCC/ARM_CM3/portmacro.h **** 
 204:Middlewares/Third_Party/FreeRTOS/Source/portable/GCC/ARM_CM3/portmacro.h ****         __asm volatile
 416              		.loc 2 204 9 view .LVU158
 417              		.syntax unified
 418              	@ 204 "Middlewares/Third_Party/FreeRTOS/Source/portable/GCC/ARM_CM3/portmacro.h" 1
 419 0062 4FF05003 		   mov r3, #80                                              
 420 0066 83F31188 	   msr basepri, r3                                         
 421 006a BFF36F8F 	   isb                                                     
 422 006e BFF34F8F 	   dsb                                                     
 423              	
 424              	@ 0 "" 2
 425              		.thumb
 426              		.syntax unified
 427              	.L39:
 428              	.LBE11:
 429              	.LBE10:
 302:Middlewares/Third_Party/FreeRTOS/Source/portable/MemMang/heap_4.c ****     return pvReturn;
 430              		.loc 1 302 5 discriminator 3 view .LVU159
 302:Middlewares/Third_Party/FreeRTOS/Source/portable/MemMang/heap_4.c ****     return pvReturn;
 431              		.loc 1 302 5 discriminator 3 view .LVU160
 432 0072 FEE7     		b	.L39
 433              	.LVL38:
 434              	.L46:
 282:Middlewares/Third_Party/FreeRTOS/Source/portable/MemMang/heap_4.c ****         }
 435              		.loc 1 282 37 view .LVU161
 285:Middlewares/Third_Party/FreeRTOS/Source/portable/MemMang/heap_4.c ****     }
 436              		.loc 1 285 45 view .LVU162
 287:Middlewares/Third_Party/FreeRTOS/Source/portable/MemMang/heap_4.c **** 
 437              		.loc 1 287 5 view .LVU163
 287:Middlewares/Third_Party/FreeRTOS/Source/portable/MemMang/heap_4.c **** 
 438              		.loc 1 287 14 is_stmt 0 view .LVU164
 439 0074 FFF7FEFF 		bl	xTaskResumeAll
 440              	.LVL39:
 291:Middlewares/Third_Party/FreeRTOS/Source/portable/MemMang/heap_4.c ****         {
 441              		.loc 1 291 9 is_stmt 1 view .LVU165
 143:Middlewares/Third_Party/FreeRTOS/Source/portable/MemMang/heap_4.c ****     size_t xAdditionalRequiredSize;
 442              		.loc 1 143 12 is_stmt 0 view .LVU166
 443 0078 0026     		movs	r6, #0
 444 007a EDE7     		b	.L27
 445              	.LVL40:
 446              	.L42:
 213:Middlewares/Third_Party/FreeRTOS/Source/portable/MemMang/heap_4.c ****                     pxBlock = pxBlock->pxNextFreeBlock;
 447              		.loc 1 213 37 view .LVU167
 448 007c 2246     		mov	r2, r4
 449              	.LVL41:
 214:Middlewares/Third_Party/FreeRTOS/Source/portable/MemMang/heap_4.c ****                 }
 450              		.loc 1 214 29 view .LVU168
 451 007e 1C46     		mov	r4, r3
 452              	.LVL42:
 453              	.L31:
 211:Middlewares/Third_Party/FreeRTOS/Source/portable/MemMang/heap_4.c ****                 {
 454              		.loc 1 211 62 is_stmt 1 view .LVU169
 211:Middlewares/Third_Party/FreeRTOS/Source/portable/MemMang/heap_4.c ****                 {
 455              		.loc 1 211 33 is_stmt 0 view .LVU170
 456 0080 6368     		ldr	r3, [r4, #4]
 211:Middlewares/Third_Party/FreeRTOS/Source/portable/MemMang/heap_4.c ****                 {
ARM GAS  /tmp/ccyaTnsP.s 			page 23


 457              		.loc 1 211 62 view .LVU171
 458 0082 AB42     		cmp	r3, r5
 459 0084 02D2     		bcs	.L30
 211:Middlewares/Third_Party/FreeRTOS/Source/portable/MemMang/heap_4.c ****                 {
 460              		.loc 1 211 74 discriminator 1 view .LVU172
 461 0086 2368     		ldr	r3, [r4]
 211:Middlewares/Third_Party/FreeRTOS/Source/portable/MemMang/heap_4.c ****                 {
 462              		.loc 1 211 62 discriminator 1 view .LVU173
 463 0088 002B     		cmp	r3, #0
 464 008a F7D1     		bne	.L42
 465              	.L30:
 219:Middlewares/Third_Party/FreeRTOS/Source/portable/MemMang/heap_4.c ****                 {
 466              		.loc 1 219 17 is_stmt 1 view .LVU174
 219:Middlewares/Third_Party/FreeRTOS/Source/portable/MemMang/heap_4.c ****                 {
 467              		.loc 1 219 29 is_stmt 0 view .LVU175
 468 008c 1D4B     		ldr	r3, .L48
 469 008e 1B68     		ldr	r3, [r3]
 219:Middlewares/Third_Party/FreeRTOS/Source/portable/MemMang/heap_4.c ****                 {
 470              		.loc 1 219 19 view .LVU176
 471 0090 A342     		cmp	r3, r4
 472 0092 14D0     		beq	.L47
 223:Middlewares/Third_Party/FreeRTOS/Source/portable/MemMang/heap_4.c **** 
 473              		.loc 1 223 21 is_stmt 1 view .LVU177
 223:Middlewares/Third_Party/FreeRTOS/Source/portable/MemMang/heap_4.c **** 
 474              		.loc 1 223 76 is_stmt 0 view .LVU178
 475 0094 1668     		ldr	r6, [r2]
 223:Middlewares/Third_Party/FreeRTOS/Source/portable/MemMang/heap_4.c **** 
 476              		.loc 1 223 30 view .LVU179
 477 0096 0836     		adds	r6, r6, #8
 478              	.LVL43:
 227:Middlewares/Third_Party/FreeRTOS/Source/portable/MemMang/heap_4.c **** 
 479              		.loc 1 227 21 is_stmt 1 view .LVU180
 227:Middlewares/Third_Party/FreeRTOS/Source/portable/MemMang/heap_4.c **** 
 480              		.loc 1 227 63 is_stmt 0 view .LVU181
 481 0098 2368     		ldr	r3, [r4]
 227:Middlewares/Third_Party/FreeRTOS/Source/portable/MemMang/heap_4.c **** 
 482              		.loc 1 227 54 view .LVU182
 483 009a 1360     		str	r3, [r2]
 231:Middlewares/Third_Party/FreeRTOS/Source/portable/MemMang/heap_4.c ****                     {
 484              		.loc 1 231 21 is_stmt 1 view .LVU183
 231:Middlewares/Third_Party/FreeRTOS/Source/portable/MemMang/heap_4.c ****                     {
 485              		.loc 1 231 34 is_stmt 0 view .LVU184
 486 009c 6368     		ldr	r3, [r4, #4]
 231:Middlewares/Third_Party/FreeRTOS/Source/portable/MemMang/heap_4.c ****                     {
 487              		.loc 1 231 47 view .LVU185
 488 009e 5B1B     		subs	r3, r3, r5
 231:Middlewares/Third_Party/FreeRTOS/Source/portable/MemMang/heap_4.c ****                     {
 489              		.loc 1 231 23 view .LVU186
 490 00a0 102B     		cmp	r3, #16
 491 00a2 14D9     		bls	.L33
 237:Middlewares/Third_Party/FreeRTOS/Source/portable/MemMang/heap_4.c ****                         configASSERT( ( ( ( size_t ) pxNewBlockLink ) & portBYTE_ALIGNMENT_MASK ) =
 492              		.loc 1 237 25 is_stmt 1 view .LVU187
 237:Middlewares/Third_Party/FreeRTOS/Source/portable/MemMang/heap_4.c ****                         configASSERT( ( ( ( size_t ) pxNewBlockLink ) & portBYTE_ALIGNMENT_MASK ) =
 493              		.loc 1 237 40 is_stmt 0 view .LVU188
 494 00a4 6019     		adds	r0, r4, r5
 495              	.LVL44:
 238:Middlewares/Third_Party/FreeRTOS/Source/portable/MemMang/heap_4.c **** 
ARM GAS  /tmp/ccyaTnsP.s 			page 24


 496              		.loc 1 238 25 is_stmt 1 view .LVU189
 497 00a6 10F0070F 		tst	r0, #7
 498 00aa 0CD0     		beq	.L34
 238:Middlewares/Third_Party/FreeRTOS/Source/portable/MemMang/heap_4.c **** 
 499              		.loc 1 238 25 discriminator 1 view .LVU190
 500              	.LBB12:
 501              	.LBI12:
 200:Middlewares/Third_Party/FreeRTOS/Source/portable/GCC/ARM_CM3/portmacro.h ****     {
 502              		.loc 2 200 34 view .LVU191
 503              	.LBB13:
 202:Middlewares/Third_Party/FreeRTOS/Source/portable/GCC/ARM_CM3/portmacro.h **** 
 504              		.loc 2 202 9 view .LVU192
 505              		.loc 2 204 9 view .LVU193
 506              		.syntax unified
 507              	@ 204 "Middlewares/Third_Party/FreeRTOS/Source/portable/GCC/ARM_CM3/portmacro.h" 1
 508 00ac 4FF05003 		   mov r3, #80                                              
 509 00b0 83F31188 	   msr basepri, r3                                         
 510 00b4 BFF36F8F 	   isb                                                     
 511 00b8 BFF34F8F 	   dsb                                                     
 512              	
 513              	@ 0 "" 2
 514              		.thumb
 515              		.syntax unified
 516              	.L35:
 517              	.LBE13:
 518              	.LBE12:
 238:Middlewares/Third_Party/FreeRTOS/Source/portable/MemMang/heap_4.c **** 
 519              		.loc 1 238 25 discriminator 3 view .LVU194
 238:Middlewares/Third_Party/FreeRTOS/Source/portable/MemMang/heap_4.c **** 
 520              		.loc 1 238 25 discriminator 3 view .LVU195
 521 00bc FEE7     		b	.L35
 522              	.LVL45:
 523              	.L47:
 282:Middlewares/Third_Party/FreeRTOS/Source/portable/MemMang/heap_4.c ****         }
 524              		.loc 1 282 37 view .LVU196
 285:Middlewares/Third_Party/FreeRTOS/Source/portable/MemMang/heap_4.c ****     }
 525              		.loc 1 285 45 view .LVU197
 287:Middlewares/Third_Party/FreeRTOS/Source/portable/MemMang/heap_4.c **** 
 526              		.loc 1 287 5 view .LVU198
 287:Middlewares/Third_Party/FreeRTOS/Source/portable/MemMang/heap_4.c **** 
 527              		.loc 1 287 14 is_stmt 0 view .LVU199
 528 00be FFF7FEFF 		bl	xTaskResumeAll
 529              	.LVL46:
 291:Middlewares/Third_Party/FreeRTOS/Source/portable/MemMang/heap_4.c ****         {
 530              		.loc 1 291 9 is_stmt 1 view .LVU200
 143:Middlewares/Third_Party/FreeRTOS/Source/portable/MemMang/heap_4.c ****     size_t xAdditionalRequiredSize;
 531              		.loc 1 143 12 is_stmt 0 view .LVU201
 532 00c2 0026     		movs	r6, #0
 533 00c4 C8E7     		b	.L27
 534              	.LVL47:
 535              	.L34:
 238:Middlewares/Third_Party/FreeRTOS/Source/portable/MemMang/heap_4.c **** 
 536              		.loc 1 238 105 is_stmt 1 discriminator 2 view .LVU202
 242:Middlewares/Third_Party/FreeRTOS/Source/portable/MemMang/heap_4.c ****                         pxBlock->xBlockSize = xWantedSize;
 537              		.loc 1 242 25 view .LVU203
 242:Middlewares/Third_Party/FreeRTOS/Source/portable/MemMang/heap_4.c ****                         pxBlock->xBlockSize = xWantedSize;
 538              		.loc 1 242 52 is_stmt 0 view .LVU204
ARM GAS  /tmp/ccyaTnsP.s 			page 25


 539 00c6 4360     		str	r3, [r0, #4]
 243:Middlewares/Third_Party/FreeRTOS/Source/portable/MemMang/heap_4.c **** 
 540              		.loc 1 243 25 is_stmt 1 view .LVU205
 243:Middlewares/Third_Party/FreeRTOS/Source/portable/MemMang/heap_4.c **** 
 541              		.loc 1 243 45 is_stmt 0 view .LVU206
 542 00c8 6560     		str	r5, [r4, #4]
 246:Middlewares/Third_Party/FreeRTOS/Source/portable/MemMang/heap_4.c ****                     }
 543              		.loc 1 246 25 is_stmt 1 view .LVU207
 544 00ca FFF7FEFF 		bl	prvInsertBlockIntoFreeList
 545              	.LVL48:
 546              	.L33:
 250:Middlewares/Third_Party/FreeRTOS/Source/portable/MemMang/heap_4.c ****                     }
 547              		.loc 1 250 49 view .LVU208
 253:Middlewares/Third_Party/FreeRTOS/Source/portable/MemMang/heap_4.c **** 
 548              		.loc 1 253 21 view .LVU209
 253:Middlewares/Third_Party/FreeRTOS/Source/portable/MemMang/heap_4.c **** 
 549              		.loc 1 253 51 is_stmt 0 view .LVU210
 550 00ce 6268     		ldr	r2, [r4, #4]
 253:Middlewares/Third_Party/FreeRTOS/Source/portable/MemMang/heap_4.c **** 
 551              		.loc 1 253 41 view .LVU211
 552 00d0 0D49     		ldr	r1, .L48+4
 553 00d2 0B68     		ldr	r3, [r1]
 554 00d4 9B1A     		subs	r3, r3, r2
 555 00d6 0B60     		str	r3, [r1]
 255:Middlewares/Third_Party/FreeRTOS/Source/portable/MemMang/heap_4.c ****                     {
 556              		.loc 1 255 21 is_stmt 1 view .LVU212
 255:Middlewares/Third_Party/FreeRTOS/Source/portable/MemMang/heap_4.c ****                     {
 557              		.loc 1 255 45 is_stmt 0 view .LVU213
 558 00d8 0D49     		ldr	r1, .L48+12
 559 00da 0968     		ldr	r1, [r1]
 255:Middlewares/Third_Party/FreeRTOS/Source/portable/MemMang/heap_4.c ****                     {
 560              		.loc 1 255 23 view .LVU214
 561 00dc 8B42     		cmp	r3, r1
 562 00de 01D2     		bcs	.L36
 257:Middlewares/Third_Party/FreeRTOS/Source/portable/MemMang/heap_4.c ****                     }
 563              		.loc 1 257 25 is_stmt 1 view .LVU215
 257:Middlewares/Third_Party/FreeRTOS/Source/portable/MemMang/heap_4.c ****                     }
 564              		.loc 1 257 56 is_stmt 0 view .LVU216
 565 00e0 0B49     		ldr	r1, .L48+12
 566 00e2 0B60     		str	r3, [r1]
 567              	.L36:
 261:Middlewares/Third_Party/FreeRTOS/Source/portable/MemMang/heap_4.c ****                     }
 568              		.loc 1 261 49 is_stmt 1 view .LVU217
 266:Middlewares/Third_Party/FreeRTOS/Source/portable/MemMang/heap_4.c ****                     pxBlock->pxNextFreeBlock = NULL;
 569              		.loc 1 266 21 view .LVU218
 570 00e4 42F00042 		orr	r2, r2, #-2147483648
 571 00e8 6260     		str	r2, [r4, #4]
 267:Middlewares/Third_Party/FreeRTOS/Source/portable/MemMang/heap_4.c ****                     xNumberOfSuccessfulAllocations++;
 572              		.loc 1 267 21 view .LVU219
 267:Middlewares/Third_Party/FreeRTOS/Source/portable/MemMang/heap_4.c ****                     xNumberOfSuccessfulAllocations++;
 573              		.loc 1 267 46 is_stmt 0 view .LVU220
 574 00ea 0023     		movs	r3, #0
 575 00ec 2360     		str	r3, [r4]
 268:Middlewares/Third_Party/FreeRTOS/Source/portable/MemMang/heap_4.c ****                 }
 576              		.loc 1 268 21 is_stmt 1 view .LVU221
 268:Middlewares/Third_Party/FreeRTOS/Source/portable/MemMang/heap_4.c ****                 }
 577              		.loc 1 268 51 is_stmt 0 view .LVU222
ARM GAS  /tmp/ccyaTnsP.s 			page 26


 578 00ee 094A     		ldr	r2, .L48+16
 579 00f0 1368     		ldr	r3, [r2]
 580 00f2 0133     		adds	r3, r3, #1
 581 00f4 1360     		str	r3, [r2]
 282:Middlewares/Third_Party/FreeRTOS/Source/portable/MemMang/heap_4.c ****         }
 582              		.loc 1 282 37 is_stmt 1 view .LVU223
 285:Middlewares/Third_Party/FreeRTOS/Source/portable/MemMang/heap_4.c ****     }
 583              		.loc 1 285 45 view .LVU224
 287:Middlewares/Third_Party/FreeRTOS/Source/portable/MemMang/heap_4.c **** 
 584              		.loc 1 287 5 view .LVU225
 287:Middlewares/Third_Party/FreeRTOS/Source/portable/MemMang/heap_4.c **** 
 585              		.loc 1 287 14 is_stmt 0 view .LVU226
 586 00f6 FFF7FEFF 		bl	xTaskResumeAll
 587              	.LVL49:
 291:Middlewares/Third_Party/FreeRTOS/Source/portable/MemMang/heap_4.c ****         {
 588              		.loc 1 291 9 is_stmt 1 view .LVU227
 291:Middlewares/Third_Party/FreeRTOS/Source/portable/MemMang/heap_4.c ****         {
 589              		.loc 1 291 11 is_stmt 0 view .LVU228
 590 00fa 002E     		cmp	r6, #0
 591 00fc AED1     		bne	.L37
 592 00fe ABE7     		b	.L27
 593              	.LVL50:
 594              	.L23:
 304:Middlewares/Third_Party/FreeRTOS/Source/portable/MemMang/heap_4.c **** /*-----------------------------------------------------------*/
 595              		.loc 1 304 1 view .LVU229
 596 0100 3046     		mov	r0, r6
 597 0102 70BD     		pop	{r4, r5, r6, pc}
 598              	.L49:
 599              		.align	2
 600              	.L48:
 601 0104 00000000 		.word	pxEnd
 602 0108 00000000 		.word	xFreeBytesRemaining
 603 010c 00000000 		.word	xStart
 604 0110 00000000 		.word	xMinimumEverFreeBytesRemaining
 605 0114 00000000 		.word	xNumberOfSuccessfulAllocations
 606              		.cfi_endproc
 607              	.LFE4:
 609              		.section	.text.vPortFree,"ax",%progbits
 610              		.align	1
 611              		.global	vPortFree
 612              		.syntax unified
 613              		.thumb
 614              		.thumb_func
 616              	vPortFree:
 617              	.LVL51:
 618              	.LFB5:
 308:Middlewares/Third_Party/FreeRTOS/Source/portable/MemMang/heap_4.c ****     uint8_t * puc = ( uint8_t * ) pv;
 619              		.loc 1 308 1 is_stmt 1 view -0
 620              		.cfi_startproc
 621              		@ args = 0, pretend = 0, frame = 0
 622              		@ frame_needed = 0, uses_anonymous_args = 0
 309:Middlewares/Third_Party/FreeRTOS/Source/portable/MemMang/heap_4.c ****     BlockLink_t * pxLink;
 623              		.loc 1 309 5 view .LVU231
 310:Middlewares/Third_Party/FreeRTOS/Source/portable/MemMang/heap_4.c **** 
 624              		.loc 1 310 5 view .LVU232
 312:Middlewares/Third_Party/FreeRTOS/Source/portable/MemMang/heap_4.c ****     {
 625              		.loc 1 312 5 view .LVU233
ARM GAS  /tmp/ccyaTnsP.s 			page 27


 312:Middlewares/Third_Party/FreeRTOS/Source/portable/MemMang/heap_4.c ****     {
 626              		.loc 1 312 7 is_stmt 0 view .LVU234
 627 0000 90B3     		cbz	r0, .L57
 308:Middlewares/Third_Party/FreeRTOS/Source/portable/MemMang/heap_4.c ****     uint8_t * puc = ( uint8_t * ) pv;
 628              		.loc 1 308 1 view .LVU235
 629 0002 38B5     		push	{r3, r4, r5, lr}
 630              		.cfi_def_cfa_offset 16
 631              		.cfi_offset 3, -16
 632              		.cfi_offset 4, -12
 633              		.cfi_offset 5, -8
 634              		.cfi_offset 14, -4
 635 0004 0446     		mov	r4, r0
 316:Middlewares/Third_Party/FreeRTOS/Source/portable/MemMang/heap_4.c **** 
 636              		.loc 1 316 9 is_stmt 1 view .LVU236
 316:Middlewares/Third_Party/FreeRTOS/Source/portable/MemMang/heap_4.c **** 
 637              		.loc 1 316 13 is_stmt 0 view .LVU237
 638 0006 A0F10805 		sub	r5, r0, #8
 639              	.LVL52:
 319:Middlewares/Third_Party/FreeRTOS/Source/portable/MemMang/heap_4.c **** 
 640              		.loc 1 319 9 is_stmt 1 view .LVU238
 321:Middlewares/Third_Party/FreeRTOS/Source/portable/MemMang/heap_4.c ****         configASSERT( pxLink->pxNextFreeBlock == NULL );
 641              		.loc 1 321 9 view .LVU239
 642 000a 50F8043C 		ldr	r3, [r0, #-4]
 643 000e 002B     		cmp	r3, #0
 644 0010 08DB     		blt	.L52
 321:Middlewares/Third_Party/FreeRTOS/Source/portable/MemMang/heap_4.c ****         configASSERT( pxLink->pxNextFreeBlock == NULL );
 645              		.loc 1 321 9 discriminator 1 view .LVU240
 646              	.LBB14:
 647              	.LBI14:
 200:Middlewares/Third_Party/FreeRTOS/Source/portable/GCC/ARM_CM3/portmacro.h ****     {
 648              		.loc 2 200 34 view .LVU241
 649              	.LBB15:
 202:Middlewares/Third_Party/FreeRTOS/Source/portable/GCC/ARM_CM3/portmacro.h **** 
 650              		.loc 2 202 9 view .LVU242
 651              		.loc 2 204 9 view .LVU243
 652              		.syntax unified
 653              	@ 204 "Middlewares/Third_Party/FreeRTOS/Source/portable/GCC/ARM_CM3/portmacro.h" 1
 654 0012 4FF05003 		   mov r3, #80                                              
 655 0016 83F31188 	   msr basepri, r3                                         
 656 001a BFF36F8F 	   isb                                                     
 657 001e BFF34F8F 	   dsb                                                     
 658              	
 659              	@ 0 "" 2
 660              		.thumb
 661              		.syntax unified
 662              	.L53:
 663              	.LBE15:
 664              	.LBE14:
 321:Middlewares/Third_Party/FreeRTOS/Source/portable/MemMang/heap_4.c ****         configASSERT( pxLink->pxNextFreeBlock == NULL );
 665              		.loc 1 321 9 discriminator 3 view .LVU244
 321:Middlewares/Third_Party/FreeRTOS/Source/portable/MemMang/heap_4.c ****         configASSERT( pxLink->pxNextFreeBlock == NULL );
 666              		.loc 1 321 9 discriminator 3 view .LVU245
 667 0022 FEE7     		b	.L53
 668              	.L52:
 321:Middlewares/Third_Party/FreeRTOS/Source/portable/MemMang/heap_4.c ****         configASSERT( pxLink->pxNextFreeBlock == NULL );
 669              		.loc 1 321 62 discriminator 2 view .LVU246
 322:Middlewares/Third_Party/FreeRTOS/Source/portable/MemMang/heap_4.c **** 
ARM GAS  /tmp/ccyaTnsP.s 			page 28


 670              		.loc 1 322 9 view .LVU247
 671 0024 50F8082C 		ldr	r2, [r0, #-8]
 672 0028 42B1     		cbz	r2, .L54
 322:Middlewares/Third_Party/FreeRTOS/Source/portable/MemMang/heap_4.c **** 
 673              		.loc 1 322 9 discriminator 1 view .LVU248
 674              	.LBB16:
 675              	.LBI16:
 200:Middlewares/Third_Party/FreeRTOS/Source/portable/GCC/ARM_CM3/portmacro.h ****     {
 676              		.loc 2 200 34 view .LVU249
 677              	.LBB17:
 202:Middlewares/Third_Party/FreeRTOS/Source/portable/GCC/ARM_CM3/portmacro.h **** 
 678              		.loc 2 202 9 view .LVU250
 679              		.loc 2 204 9 view .LVU251
 680              		.syntax unified
 681              	@ 204 "Middlewares/Third_Party/FreeRTOS/Source/portable/GCC/ARM_CM3/portmacro.h" 1
 682 002a 4FF05003 		   mov r3, #80                                              
 683 002e 83F31188 	   msr basepri, r3                                         
 684 0032 BFF36F8F 	   isb                                                     
 685 0036 BFF34F8F 	   dsb                                                     
 686              	
 687              	@ 0 "" 2
 688              		.thumb
 689              		.syntax unified
 690              	.L55:
 691              	.LBE17:
 692              	.LBE16:
 322:Middlewares/Third_Party/FreeRTOS/Source/portable/MemMang/heap_4.c **** 
 693              		.loc 1 322 9 discriminator 3 view .LVU252
 322:Middlewares/Third_Party/FreeRTOS/Source/portable/MemMang/heap_4.c **** 
 694              		.loc 1 322 9 discriminator 3 view .LVU253
 695 003a FEE7     		b	.L55
 696              	.L54:
 322:Middlewares/Third_Party/FreeRTOS/Source/portable/MemMang/heap_4.c **** 
 697              		.loc 1 322 56 discriminator 2 view .LVU254
 324:Middlewares/Third_Party/FreeRTOS/Source/portable/MemMang/heap_4.c ****         {
 698              		.loc 1 324 9 view .LVU255
 326:Middlewares/Third_Party/FreeRTOS/Source/portable/MemMang/heap_4.c ****             {
 699              		.loc 1 326 13 view .LVU256
 330:Middlewares/Third_Party/FreeRTOS/Source/portable/MemMang/heap_4.c ****                 #if ( configHEAP_CLEAR_MEMORY_ON_FREE == 1 )
 700              		.loc 1 330 17 view .LVU257
 701 003c 23F00043 		bic	r3, r3, #-2147483648
 702 0040 40F8043C 		str	r3, [r0, #-4]
 337:Middlewares/Third_Party/FreeRTOS/Source/portable/MemMang/heap_4.c ****                 {
 703              		.loc 1 337 17 view .LVU258
 704 0044 FFF7FEFF 		bl	vTaskSuspendAll
 705              	.LVL53:
 340:Middlewares/Third_Party/FreeRTOS/Source/portable/MemMang/heap_4.c ****                     traceFREE( pv, pxLink->xBlockSize );
 706              		.loc 1 340 21 view .LVU259
 340:Middlewares/Third_Party/FreeRTOS/Source/portable/MemMang/heap_4.c ****                     traceFREE( pv, pxLink->xBlockSize );
 707              		.loc 1 340 50 is_stmt 0 view .LVU260
 708 0048 54F8041C 		ldr	r1, [r4, #-4]
 340:Middlewares/Third_Party/FreeRTOS/Source/portable/MemMang/heap_4.c ****                     traceFREE( pv, pxLink->xBlockSize );
 709              		.loc 1 340 41 view .LVU261
 710 004c 074A     		ldr	r2, .L60
 711 004e 1368     		ldr	r3, [r2]
 712 0050 0B44     		add	r3, r3, r1
 713 0052 1360     		str	r3, [r2]
ARM GAS  /tmp/ccyaTnsP.s 			page 29


 341:Middlewares/Third_Party/FreeRTOS/Source/portable/MemMang/heap_4.c ****                     prvInsertBlockIntoFreeList( ( ( BlockLink_t * ) pxLink ) );
 714              		.loc 1 341 56 is_stmt 1 view .LVU262
 342:Middlewares/Third_Party/FreeRTOS/Source/portable/MemMang/heap_4.c ****                     xNumberOfSuccessfulFrees++;
 715              		.loc 1 342 21 view .LVU263
 716 0054 2846     		mov	r0, r5
 717 0056 FFF7FEFF 		bl	prvInsertBlockIntoFreeList
 718              	.LVL54:
 343:Middlewares/Third_Party/FreeRTOS/Source/portable/MemMang/heap_4.c ****                 }
 719              		.loc 1 343 21 view .LVU264
 343:Middlewares/Third_Party/FreeRTOS/Source/portable/MemMang/heap_4.c ****                 }
 720              		.loc 1 343 45 is_stmt 0 view .LVU265
 721 005a 054A     		ldr	r2, .L60+4
 722 005c 1368     		ldr	r3, [r2]
 723 005e 0133     		adds	r3, r3, #1
 724 0060 1360     		str	r3, [r2]
 345:Middlewares/Third_Party/FreeRTOS/Source/portable/MemMang/heap_4.c ****             }
 725              		.loc 1 345 17 is_stmt 1 view .LVU266
 345:Middlewares/Third_Party/FreeRTOS/Source/portable/MemMang/heap_4.c ****             }
 726              		.loc 1 345 26 is_stmt 0 view .LVU267
 727 0062 FFF7FEFF 		bl	xTaskResumeAll
 728              	.LVL55:
 354:Middlewares/Third_Party/FreeRTOS/Source/portable/MemMang/heap_4.c ****         }
 729              		.loc 1 354 37 is_stmt 1 view .LVU268
 357:Middlewares/Third_Party/FreeRTOS/Source/portable/MemMang/heap_4.c **** /*-----------------------------------------------------------*/
 730              		.loc 1 357 1 is_stmt 0 view .LVU269
 731 0066 38BD     		pop	{r3, r4, r5, pc}
 732              	.LVL56:
 733              	.L57:
 734              		.cfi_def_cfa_offset 0
 735              		.cfi_restore 3
 736              		.cfi_restore 4
 737              		.cfi_restore 5
 738              		.cfi_restore 14
 357:Middlewares/Third_Party/FreeRTOS/Source/portable/MemMang/heap_4.c **** /*-----------------------------------------------------------*/
 739              		.loc 1 357 1 view .LVU270
 740 0068 7047     		bx	lr
 741              	.L61:
 742 006a 00BF     		.align	2
 743              	.L60:
 744 006c 00000000 		.word	xFreeBytesRemaining
 745 0070 00000000 		.word	xNumberOfSuccessfulFrees
 746              		.cfi_endproc
 747              	.LFE5:
 749              		.section	.text.xPortGetFreeHeapSize,"ax",%progbits
 750              		.align	1
 751              		.global	xPortGetFreeHeapSize
 752              		.syntax unified
 753              		.thumb
 754              		.thumb_func
 756              	xPortGetFreeHeapSize:
 757              	.LFB6:
 361:Middlewares/Third_Party/FreeRTOS/Source/portable/MemMang/heap_4.c ****     return xFreeBytesRemaining;
 758              		.loc 1 361 1 is_stmt 1 view -0
 759              		.cfi_startproc
 760              		@ args = 0, pretend = 0, frame = 0
 761              		@ frame_needed = 0, uses_anonymous_args = 0
 762              		@ link register save eliminated.
ARM GAS  /tmp/ccyaTnsP.s 			page 30


 362:Middlewares/Third_Party/FreeRTOS/Source/portable/MemMang/heap_4.c **** }
 763              		.loc 1 362 5 view .LVU272
 363:Middlewares/Third_Party/FreeRTOS/Source/portable/MemMang/heap_4.c **** /*-----------------------------------------------------------*/
 764              		.loc 1 363 1 is_stmt 0 view .LVU273
 765 0000 014B     		ldr	r3, .L63
 766 0002 1868     		ldr	r0, [r3]
 767 0004 7047     		bx	lr
 768              	.L64:
 769 0006 00BF     		.align	2
 770              	.L63:
 771 0008 00000000 		.word	xFreeBytesRemaining
 772              		.cfi_endproc
 773              	.LFE6:
 775              		.section	.text.xPortGetMinimumEverFreeHeapSize,"ax",%progbits
 776              		.align	1
 777              		.global	xPortGetMinimumEverFreeHeapSize
 778              		.syntax unified
 779              		.thumb
 780              		.thumb_func
 782              	xPortGetMinimumEverFreeHeapSize:
 783              	.LFB7:
 367:Middlewares/Third_Party/FreeRTOS/Source/portable/MemMang/heap_4.c ****     return xMinimumEverFreeBytesRemaining;
 784              		.loc 1 367 1 is_stmt 1 view -0
 785              		.cfi_startproc
 786              		@ args = 0, pretend = 0, frame = 0
 787              		@ frame_needed = 0, uses_anonymous_args = 0
 788              		@ link register save eliminated.
 368:Middlewares/Third_Party/FreeRTOS/Source/portable/MemMang/heap_4.c **** }
 789              		.loc 1 368 5 view .LVU275
 369:Middlewares/Third_Party/FreeRTOS/Source/portable/MemMang/heap_4.c **** /*-----------------------------------------------------------*/
 790              		.loc 1 369 1 is_stmt 0 view .LVU276
 791 0000 014B     		ldr	r3, .L66
 792 0002 1868     		ldr	r0, [r3]
 793 0004 7047     		bx	lr
 794              	.L67:
 795 0006 00BF     		.align	2
 796              	.L66:
 797 0008 00000000 		.word	xMinimumEverFreeBytesRemaining
 798              		.cfi_endproc
 799              	.LFE7:
 801              		.section	.text.vPortInitialiseBlocks,"ax",%progbits
 802              		.align	1
 803              		.global	vPortInitialiseBlocks
 804              		.syntax unified
 805              		.thumb
 806              		.thumb_func
 808              	vPortInitialiseBlocks:
 809              	.LFB8:
 373:Middlewares/Third_Party/FreeRTOS/Source/portable/MemMang/heap_4.c ****     /* This just exists to keep the linker quiet. */
 810              		.loc 1 373 1 is_stmt 1 view -0
 811              		.cfi_startproc
 812              		@ args = 0, pretend = 0, frame = 0
 813              		@ frame_needed = 0, uses_anonymous_args = 0
 814              		@ link register save eliminated.
 375:Middlewares/Third_Party/FreeRTOS/Source/portable/MemMang/heap_4.c **** /*-----------------------------------------------------------*/
 815              		.loc 1 375 1 view .LVU278
 816 0000 7047     		bx	lr
ARM GAS  /tmp/ccyaTnsP.s 			page 31


 817              		.cfi_endproc
 818              	.LFE8:
 820              		.section	.text.pvPortCalloc,"ax",%progbits
 821              		.align	1
 822              		.global	pvPortCalloc
 823              		.syntax unified
 824              		.thumb
 825              		.thumb_func
 827              	pvPortCalloc:
 828              	.LVL57:
 829              	.LFB9:
 380:Middlewares/Third_Party/FreeRTOS/Source/portable/MemMang/heap_4.c ****     void * pv = NULL;
 830              		.loc 1 380 1 view -0
 831              		.cfi_startproc
 832              		@ args = 0, pretend = 0, frame = 0
 833              		@ frame_needed = 0, uses_anonymous_args = 0
 380:Middlewares/Third_Party/FreeRTOS/Source/portable/MemMang/heap_4.c ****     void * pv = NULL;
 834              		.loc 1 380 1 is_stmt 0 view .LVU280
 835 0000 38B5     		push	{r3, r4, r5, lr}
 836              		.cfi_def_cfa_offset 16
 837              		.cfi_offset 3, -16
 838              		.cfi_offset 4, -12
 839              		.cfi_offset 5, -8
 840              		.cfi_offset 14, -4
 381:Middlewares/Third_Party/FreeRTOS/Source/portable/MemMang/heap_4.c **** 
 841              		.loc 1 381 5 is_stmt 1 view .LVU281
 842              	.LVL58:
 383:Middlewares/Third_Party/FreeRTOS/Source/portable/MemMang/heap_4.c ****     {
 843              		.loc 1 383 5 view .LVU282
 383:Middlewares/Third_Party/FreeRTOS/Source/portable/MemMang/heap_4.c ****     {
 844              		.loc 1 383 9 is_stmt 0 view .LVU283
 845 0002 0346     		mov	r3, r0
 846 0004 20B1     		cbz	r0, .L70
 847 0006 0022     		movs	r2, #0
 848 0008 A1FB0040 		umull	r4, r0, r1, r0
 849              	.LVL59:
 383:Middlewares/Third_Party/FreeRTOS/Source/portable/MemMang/heap_4.c ****     {
 850              		.loc 1 383 9 view .LVU284
 851 000c 68B9     		cbnz	r0, .L76
 852              	.L71:
 383:Middlewares/Third_Party/FreeRTOS/Source/portable/MemMang/heap_4.c ****     {
 853              		.loc 1 383 9 discriminator 1 view .LVU285
 854 000e 72B9     		cbnz	r2, .L74
 855              	.L70:
 385:Middlewares/Third_Party/FreeRTOS/Source/portable/MemMang/heap_4.c **** 
 856              		.loc 1 385 9 is_stmt 1 view .LVU286
 385:Middlewares/Third_Party/FreeRTOS/Source/portable/MemMang/heap_4.c **** 
 857              		.loc 1 385 14 is_stmt 0 view .LVU287
 858 0010 01FB03F4 		mul	r4, r1, r3
 859 0014 2046     		mov	r0, r4
 860 0016 FFF7FEFF 		bl	pvPortMalloc
 861              	.LVL60:
 387:Middlewares/Third_Party/FreeRTOS/Source/portable/MemMang/heap_4.c ****         {
 862              		.loc 1 387 9 is_stmt 1 view .LVU288
 387:Middlewares/Third_Party/FreeRTOS/Source/portable/MemMang/heap_4.c ****         {
 863              		.loc 1 387 11 is_stmt 0 view .LVU289
 864 001a 0546     		mov	r5, r0
ARM GAS  /tmp/ccyaTnsP.s 			page 32


 865 001c 18B1     		cbz	r0, .L69
 389:Middlewares/Third_Party/FreeRTOS/Source/portable/MemMang/heap_4.c ****         }
 866              		.loc 1 389 13 is_stmt 1 view .LVU290
 389:Middlewares/Third_Party/FreeRTOS/Source/portable/MemMang/heap_4.c ****         }
 867              		.loc 1 389 22 is_stmt 0 view .LVU291
 868 001e 2246     		mov	r2, r4
 869 0020 0021     		movs	r1, #0
 870 0022 FFF7FEFF 		bl	memset
 871              	.LVL61:
 872              	.L69:
 394:Middlewares/Third_Party/FreeRTOS/Source/portable/MemMang/heap_4.c **** /*-----------------------------------------------------------*/
 873              		.loc 1 394 1 view .LVU292
 874 0026 2846     		mov	r0, r5
 875 0028 38BD     		pop	{r3, r4, r5, pc}
 876              	.LVL62:
 877              	.L76:
 394:Middlewares/Third_Party/FreeRTOS/Source/portable/MemMang/heap_4.c **** /*-----------------------------------------------------------*/
 878              		.loc 1 394 1 view .LVU293
 879 002a 0122     		movs	r2, #1
 880 002c EFE7     		b	.L71
 881              	.L74:
 381:Middlewares/Third_Party/FreeRTOS/Source/portable/MemMang/heap_4.c **** 
 882              		.loc 1 381 12 view .LVU294
 883 002e 0025     		movs	r5, #0
 393:Middlewares/Third_Party/FreeRTOS/Source/portable/MemMang/heap_4.c **** }
 884              		.loc 1 393 5 is_stmt 1 view .LVU295
 393:Middlewares/Third_Party/FreeRTOS/Source/portable/MemMang/heap_4.c **** }
 885              		.loc 1 393 12 is_stmt 0 view .LVU296
 886 0030 F9E7     		b	.L69
 887              		.cfi_endproc
 888              	.LFE9:
 890              		.section	.text.vPortGetHeapStats,"ax",%progbits
 891              		.align	1
 892              		.global	vPortGetHeapStats
 893              		.syntax unified
 894              		.thumb
 895              		.thumb_func
 897              	vPortGetHeapStats:
 898              	.LVL63:
 899              	.LFB12:
 503:Middlewares/Third_Party/FreeRTOS/Source/portable/MemMang/heap_4.c **** /*-----------------------------------------------------------*/
 504:Middlewares/Third_Party/FreeRTOS/Source/portable/MemMang/heap_4.c **** 
 505:Middlewares/Third_Party/FreeRTOS/Source/portable/MemMang/heap_4.c **** void vPortGetHeapStats( HeapStats_t * pxHeapStats )
 506:Middlewares/Third_Party/FreeRTOS/Source/portable/MemMang/heap_4.c **** {
 900              		.loc 1 506 1 is_stmt 1 view -0
 901              		.cfi_startproc
 902              		@ args = 0, pretend = 0, frame = 0
 903              		@ frame_needed = 0, uses_anonymous_args = 0
 904              		.loc 1 506 1 is_stmt 0 view .LVU298
 905 0000 F8B5     		push	{r3, r4, r5, r6, r7, lr}
 906              		.cfi_def_cfa_offset 24
 907              		.cfi_offset 3, -24
 908              		.cfi_offset 4, -20
 909              		.cfi_offset 5, -16
 910              		.cfi_offset 6, -12
 911              		.cfi_offset 7, -8
 912              		.cfi_offset 14, -4
ARM GAS  /tmp/ccyaTnsP.s 			page 33


 913 0002 0746     		mov	r7, r0
 507:Middlewares/Third_Party/FreeRTOS/Source/portable/MemMang/heap_4.c ****     BlockLink_t * pxBlock;
 914              		.loc 1 507 5 is_stmt 1 view .LVU299
 508:Middlewares/Third_Party/FreeRTOS/Source/portable/MemMang/heap_4.c ****     size_t xBlocks = 0, xMaxSize = 0, xMinSize = portMAX_DELAY; /* portMAX_DELAY used as a portable
 915              		.loc 1 508 5 view .LVU300
 916              	.LVL64:
 509:Middlewares/Third_Party/FreeRTOS/Source/portable/MemMang/heap_4.c **** 
 510:Middlewares/Third_Party/FreeRTOS/Source/portable/MemMang/heap_4.c ****     vTaskSuspendAll();
 917              		.loc 1 510 5 view .LVU301
 918 0004 FFF7FEFF 		bl	vTaskSuspendAll
 919              	.LVL65:
 511:Middlewares/Third_Party/FreeRTOS/Source/portable/MemMang/heap_4.c ****     {
 512:Middlewares/Third_Party/FreeRTOS/Source/portable/MemMang/heap_4.c ****         pxBlock = xStart.pxNextFreeBlock;
 920              		.loc 1 512 9 view .LVU302
 921              		.loc 1 512 17 is_stmt 0 view .LVU303
 922 0008 174B     		ldr	r3, .L88
 923 000a 1B68     		ldr	r3, [r3]
 924              	.LVL66:
 513:Middlewares/Third_Party/FreeRTOS/Source/portable/MemMang/heap_4.c **** 
 514:Middlewares/Third_Party/FreeRTOS/Source/portable/MemMang/heap_4.c ****         /* pxBlock will be NULL if the heap has not been initialised.  The heap
 515:Middlewares/Third_Party/FreeRTOS/Source/portable/MemMang/heap_4.c ****          * is initialised automatically when the first allocation is made. */
 516:Middlewares/Third_Party/FreeRTOS/Source/portable/MemMang/heap_4.c ****         if( pxBlock != NULL )
 925              		.loc 1 516 9 is_stmt 1 view .LVU304
 926              		.loc 1 516 11 is_stmt 0 view .LVU305
 927 000c 23B1     		cbz	r3, .L87
 508:Middlewares/Third_Party/FreeRTOS/Source/portable/MemMang/heap_4.c **** 
 928              		.loc 1 508 39 view .LVU306
 929 000e 4FF0FF36 		mov	r6, #-1
 508:Middlewares/Third_Party/FreeRTOS/Source/portable/MemMang/heap_4.c **** 
 930              		.loc 1 508 25 view .LVU307
 931 0012 0025     		movs	r5, #0
 508:Middlewares/Third_Party/FreeRTOS/Source/portable/MemMang/heap_4.c **** 
 932              		.loc 1 508 12 view .LVU308
 933 0014 2C46     		mov	r4, r5
 934 0016 1AE0     		b	.L78
 935              	.L87:
 508:Middlewares/Third_Party/FreeRTOS/Source/portable/MemMang/heap_4.c **** 
 936              		.loc 1 508 39 view .LVU309
 937 0018 4FF0FF36 		mov	r6, #-1
 508:Middlewares/Third_Party/FreeRTOS/Source/portable/MemMang/heap_4.c **** 
 938              		.loc 1 508 25 view .LVU310
 939 001c 0025     		movs	r5, #0
 508:Middlewares/Third_Party/FreeRTOS/Source/portable/MemMang/heap_4.c **** 
 940              		.loc 1 508 12 view .LVU311
 941 001e 2C46     		mov	r4, r5
 942              	.LVL67:
 943              	.L79:
 517:Middlewares/Third_Party/FreeRTOS/Source/portable/MemMang/heap_4.c ****         {
 518:Middlewares/Third_Party/FreeRTOS/Source/portable/MemMang/heap_4.c ****             while( pxBlock != pxEnd )
 519:Middlewares/Third_Party/FreeRTOS/Source/portable/MemMang/heap_4.c ****             {
 520:Middlewares/Third_Party/FreeRTOS/Source/portable/MemMang/heap_4.c ****                 /* Increment the number of blocks and record the largest block seen
 521:Middlewares/Third_Party/FreeRTOS/Source/portable/MemMang/heap_4.c ****                  * so far. */
 522:Middlewares/Third_Party/FreeRTOS/Source/portable/MemMang/heap_4.c ****                 xBlocks++;
 523:Middlewares/Third_Party/FreeRTOS/Source/portable/MemMang/heap_4.c **** 
 524:Middlewares/Third_Party/FreeRTOS/Source/portable/MemMang/heap_4.c ****                 if( pxBlock->xBlockSize > xMaxSize )
 525:Middlewares/Third_Party/FreeRTOS/Source/portable/MemMang/heap_4.c ****                 {
 526:Middlewares/Third_Party/FreeRTOS/Source/portable/MemMang/heap_4.c ****                     xMaxSize = pxBlock->xBlockSize;
ARM GAS  /tmp/ccyaTnsP.s 			page 34


 527:Middlewares/Third_Party/FreeRTOS/Source/portable/MemMang/heap_4.c ****                 }
 528:Middlewares/Third_Party/FreeRTOS/Source/portable/MemMang/heap_4.c **** 
 529:Middlewares/Third_Party/FreeRTOS/Source/portable/MemMang/heap_4.c ****                 if( pxBlock->xBlockSize < xMinSize )
 530:Middlewares/Third_Party/FreeRTOS/Source/portable/MemMang/heap_4.c ****                 {
 531:Middlewares/Third_Party/FreeRTOS/Source/portable/MemMang/heap_4.c ****                     xMinSize = pxBlock->xBlockSize;
 532:Middlewares/Third_Party/FreeRTOS/Source/portable/MemMang/heap_4.c ****                 }
 533:Middlewares/Third_Party/FreeRTOS/Source/portable/MemMang/heap_4.c **** 
 534:Middlewares/Third_Party/FreeRTOS/Source/portable/MemMang/heap_4.c ****                 /* Move to the next block in the chain until the last block is
 535:Middlewares/Third_Party/FreeRTOS/Source/portable/MemMang/heap_4.c ****                  * reached. */
 536:Middlewares/Third_Party/FreeRTOS/Source/portable/MemMang/heap_4.c ****                 pxBlock = pxBlock->pxNextFreeBlock;
 537:Middlewares/Third_Party/FreeRTOS/Source/portable/MemMang/heap_4.c ****             }
 538:Middlewares/Third_Party/FreeRTOS/Source/portable/MemMang/heap_4.c ****         }
 539:Middlewares/Third_Party/FreeRTOS/Source/portable/MemMang/heap_4.c ****     }
 540:Middlewares/Third_Party/FreeRTOS/Source/portable/MemMang/heap_4.c ****     ( void ) xTaskResumeAll();
 944              		.loc 1 540 5 is_stmt 1 view .LVU312
 945              		.loc 1 540 14 is_stmt 0 view .LVU313
 946 0020 FFF7FEFF 		bl	xTaskResumeAll
 947              	.LVL68:
 541:Middlewares/Third_Party/FreeRTOS/Source/portable/MemMang/heap_4.c **** 
 542:Middlewares/Third_Party/FreeRTOS/Source/portable/MemMang/heap_4.c ****     pxHeapStats->xSizeOfLargestFreeBlockInBytes = xMaxSize;
 948              		.loc 1 542 5 is_stmt 1 view .LVU314
 949              		.loc 1 542 49 is_stmt 0 view .LVU315
 950 0024 7D60     		str	r5, [r7, #4]
 543:Middlewares/Third_Party/FreeRTOS/Source/portable/MemMang/heap_4.c ****     pxHeapStats->xSizeOfSmallestFreeBlockInBytes = xMinSize;
 951              		.loc 1 543 5 is_stmt 1 view .LVU316
 952              		.loc 1 543 50 is_stmt 0 view .LVU317
 953 0026 BE60     		str	r6, [r7, #8]
 544:Middlewares/Third_Party/FreeRTOS/Source/portable/MemMang/heap_4.c ****     pxHeapStats->xNumberOfFreeBlocks = xBlocks;
 954              		.loc 1 544 5 is_stmt 1 view .LVU318
 955              		.loc 1 544 38 is_stmt 0 view .LVU319
 956 0028 FC60     		str	r4, [r7, #12]
 545:Middlewares/Third_Party/FreeRTOS/Source/portable/MemMang/heap_4.c **** 
 546:Middlewares/Third_Party/FreeRTOS/Source/portable/MemMang/heap_4.c ****     taskENTER_CRITICAL();
 957              		.loc 1 546 5 is_stmt 1 view .LVU320
 958 002a FFF7FEFF 		bl	vPortEnterCritical
 959              	.LVL69:
 547:Middlewares/Third_Party/FreeRTOS/Source/portable/MemMang/heap_4.c ****     {
 548:Middlewares/Third_Party/FreeRTOS/Source/portable/MemMang/heap_4.c ****         pxHeapStats->xAvailableHeapSpaceInBytes = xFreeBytesRemaining;
 960              		.loc 1 548 9 view .LVU321
 961              		.loc 1 548 49 is_stmt 0 view .LVU322
 962 002e 0F4B     		ldr	r3, .L88+4
 963 0030 1B68     		ldr	r3, [r3]
 964 0032 3B60     		str	r3, [r7]
 549:Middlewares/Third_Party/FreeRTOS/Source/portable/MemMang/heap_4.c ****         pxHeapStats->xNumberOfSuccessfulAllocations = xNumberOfSuccessfulAllocations;
 965              		.loc 1 549 9 is_stmt 1 view .LVU323
 966              		.loc 1 549 53 is_stmt 0 view .LVU324
 967 0034 0E4B     		ldr	r3, .L88+8
 968 0036 1B68     		ldr	r3, [r3]
 969 0038 7B61     		str	r3, [r7, #20]
 550:Middlewares/Third_Party/FreeRTOS/Source/portable/MemMang/heap_4.c ****         pxHeapStats->xNumberOfSuccessfulFrees = xNumberOfSuccessfulFrees;
 970              		.loc 1 550 9 is_stmt 1 view .LVU325
 971              		.loc 1 550 47 is_stmt 0 view .LVU326
 972 003a 0E4B     		ldr	r3, .L88+12
 973 003c 1B68     		ldr	r3, [r3]
 974 003e BB61     		str	r3, [r7, #24]
 551:Middlewares/Third_Party/FreeRTOS/Source/portable/MemMang/heap_4.c ****         pxHeapStats->xMinimumEverFreeBytesRemaining = xMinimumEverFreeBytesRemaining;
 975              		.loc 1 551 9 is_stmt 1 view .LVU327
ARM GAS  /tmp/ccyaTnsP.s 			page 35


 976              		.loc 1 551 53 is_stmt 0 view .LVU328
 977 0040 0D4B     		ldr	r3, .L88+16
 978 0042 1B68     		ldr	r3, [r3]
 979 0044 3B61     		str	r3, [r7, #16]
 552:Middlewares/Third_Party/FreeRTOS/Source/portable/MemMang/heap_4.c ****     }
 553:Middlewares/Third_Party/FreeRTOS/Source/portable/MemMang/heap_4.c ****     taskEXIT_CRITICAL();
 980              		.loc 1 553 5 is_stmt 1 view .LVU329
 981 0046 FFF7FEFF 		bl	vPortExitCritical
 982              	.LVL70:
 554:Middlewares/Third_Party/FreeRTOS/Source/portable/MemMang/heap_4.c **** }
 983              		.loc 1 554 1 is_stmt 0 view .LVU330
 984 004a F8BD     		pop	{r3, r4, r5, r6, r7, pc}
 985              	.LVL71:
 986              	.L81:
 536:Middlewares/Third_Party/FreeRTOS/Source/portable/MemMang/heap_4.c ****             }
 987              		.loc 1 536 17 is_stmt 1 view .LVU331
 536:Middlewares/Third_Party/FreeRTOS/Source/portable/MemMang/heap_4.c ****             }
 988              		.loc 1 536 25 is_stmt 0 view .LVU332
 989 004c 1B68     		ldr	r3, [r3]
 990              	.LVL72:
 991              	.L78:
 518:Middlewares/Third_Party/FreeRTOS/Source/portable/MemMang/heap_4.c ****             {
 992              		.loc 1 518 28 is_stmt 1 view .LVU333
 993 004e 0B4A     		ldr	r2, .L88+20
 994 0050 1268     		ldr	r2, [r2]
 995 0052 9A42     		cmp	r2, r3
 996 0054 E4D0     		beq	.L79
 522:Middlewares/Third_Party/FreeRTOS/Source/portable/MemMang/heap_4.c **** 
 997              		.loc 1 522 17 view .LVU334
 522:Middlewares/Third_Party/FreeRTOS/Source/portable/MemMang/heap_4.c **** 
 998              		.loc 1 522 24 is_stmt 0 view .LVU335
 999 0056 0134     		adds	r4, r4, #1
 1000              	.LVL73:
 524:Middlewares/Third_Party/FreeRTOS/Source/portable/MemMang/heap_4.c ****                 {
 1001              		.loc 1 524 17 is_stmt 1 view .LVU336
 524:Middlewares/Third_Party/FreeRTOS/Source/portable/MemMang/heap_4.c ****                 {
 1002              		.loc 1 524 28 is_stmt 0 view .LVU337
 1003 0058 5A68     		ldr	r2, [r3, #4]
 524:Middlewares/Third_Party/FreeRTOS/Source/portable/MemMang/heap_4.c ****                 {
 1004              		.loc 1 524 19 view .LVU338
 1005 005a AA42     		cmp	r2, r5
 1006 005c 00D9     		bls	.L80
 526:Middlewares/Third_Party/FreeRTOS/Source/portable/MemMang/heap_4.c ****                 }
 1007              		.loc 1 526 30 view .LVU339
 1008 005e 1546     		mov	r5, r2
 1009              	.LVL74:
 1010              	.L80:
 529:Middlewares/Third_Party/FreeRTOS/Source/portable/MemMang/heap_4.c ****                 {
 1011              		.loc 1 529 17 is_stmt 1 view .LVU340
 529:Middlewares/Third_Party/FreeRTOS/Source/portable/MemMang/heap_4.c ****                 {
 1012              		.loc 1 529 19 is_stmt 0 view .LVU341
 1013 0060 B242     		cmp	r2, r6
 1014 0062 F3D2     		bcs	.L81
 531:Middlewares/Third_Party/FreeRTOS/Source/portable/MemMang/heap_4.c ****                 }
 1015              		.loc 1 531 30 view .LVU342
 1016 0064 1646     		mov	r6, r2
 1017              	.LVL75:
ARM GAS  /tmp/ccyaTnsP.s 			page 36


 531:Middlewares/Third_Party/FreeRTOS/Source/portable/MemMang/heap_4.c ****                 }
 1018              		.loc 1 531 30 view .LVU343
 1019 0066 F1E7     		b	.L81
 1020              	.L89:
 1021              		.align	2
 1022              	.L88:
 1023 0068 00000000 		.word	xStart
 1024 006c 00000000 		.word	xFreeBytesRemaining
 1025 0070 00000000 		.word	xNumberOfSuccessfulAllocations
 1026 0074 00000000 		.word	xNumberOfSuccessfulFrees
 1027 0078 00000000 		.word	xMinimumEverFreeBytesRemaining
 1028 007c 00000000 		.word	pxEnd
 1029              		.cfi_endproc
 1030              	.LFE12:
 1032              		.section	.bss.xNumberOfSuccessfulFrees,"aw",%nobits
 1033              		.align	2
 1036              	xNumberOfSuccessfulFrees:
 1037 0000 00000000 		.space	4
 1038              		.section	.bss.xNumberOfSuccessfulAllocations,"aw",%nobits
 1039              		.align	2
 1042              	xNumberOfSuccessfulAllocations:
 1043 0000 00000000 		.space	4
 1044              		.section	.bss.xMinimumEverFreeBytesRemaining,"aw",%nobits
 1045              		.align	2
 1048              	xMinimumEverFreeBytesRemaining:
 1049 0000 00000000 		.space	4
 1050              		.section	.bss.xFreeBytesRemaining,"aw",%nobits
 1051              		.align	2
 1054              	xFreeBytesRemaining:
 1055 0000 00000000 		.space	4
 1056              		.section	.bss.pxEnd,"aw",%nobits
 1057              		.align	2
 1060              	pxEnd:
 1061 0000 00000000 		.space	4
 1062              		.section	.bss.xStart,"aw",%nobits
 1063              		.align	2
 1066              	xStart:
 1067 0000 00000000 		.space	8
 1067      00000000 
 1068              		.section	.bss.ucHeap,"aw",%nobits
 1069              		.align	2
 1072              	ucHeap:
 1073 0000 00000000 		.space	16384
 1073      00000000 
 1073      00000000 
 1073      00000000 
 1073      00000000 
 1074              		.text
 1075              	.Letext0:
 1076              		.file 3 "/home/zgsdlv/.arduino15/packages/STMicroelectronics/tools/xpack-arm-none-eabi-gcc/14.2.1-
 1077              		.file 4 "/home/zgsdlv/.arduino15/packages/STMicroelectronics/tools/xpack-arm-none-eabi-gcc/14.2.1-
 1078              		.file 5 "/home/zgsdlv/.arduino15/packages/STMicroelectronics/tools/xpack-arm-none-eabi-gcc/14.2.1-
 1079              		.file 6 "Middlewares/Third_Party/FreeRTOS/Source/include/portable.h"
 1080              		.file 7 "Middlewares/Third_Party/FreeRTOS/Source/include/task.h"
 1081              		.file 8 "/home/zgsdlv/.arduino15/packages/STMicroelectronics/tools/xpack-arm-none-eabi-gcc/14.2.1-
 1082              		.file 9 "<built-in>"
ARM GAS  /tmp/ccyaTnsP.s 			page 37

