ARM GAS  /tmp/ccvq1YAY.s 			page 1


   1              		.cpu cortex-m4
   2              		.arch armv7e-m
   3              		.fpu softvfp
   4              		.eabi_attribute 20, 1
   5              		.eabi_attribute 21, 1
   6              		.eabi_attribute 23, 3
   7              		.eabi_attribute 24, 1
   8              		.eabi_attribute 25, 1
   9              		.eabi_attribute 26, 1
  10              		.eabi_attribute 30, 1
  11              		.eabi_attribute 34, 1
  12              		.eabi_attribute 18, 4
  13              		.file	"lr_fhss_mac.c"
  14              		.text
  15              	.Ltext0:
  16              		.cfi_sections	.debug_frame
  17              		.file 1 "Middlewares/Third_Party/SubGHz_Phy/radio_driver/lr_fhss_mac.c"
  18              		.section	.text.lr_fhss_payload_crc16,"ax",%progbits
  19              		.align	1
  20              		.syntax unified
  21              		.thumb
  22              		.thumb_func
  24              	lr_fhss_payload_crc16:
  25              	.LVL0:
  26              	.LFB8:
   1:Middlewares/Third_Party/SubGHz_Phy/radio_driver/lr_fhss_mac.c **** /*!
   2:Middlewares/Third_Party/SubGHz_Phy/radio_driver/lr_fhss_mac.c ****  * @file      lr_fhss_mac.c
   3:Middlewares/Third_Party/SubGHz_Phy/radio_driver/lr_fhss_mac.c ****  *
   4:Middlewares/Third_Party/SubGHz_Phy/radio_driver/lr_fhss_mac.c ****  * @brief     Radio-independent LR-FHSS driver implementation
   5:Middlewares/Third_Party/SubGHz_Phy/radio_driver/lr_fhss_mac.c ****  *
   6:Middlewares/Third_Party/SubGHz_Phy/radio_driver/lr_fhss_mac.c ****  * The Clear BSD License
   7:Middlewares/Third_Party/SubGHz_Phy/radio_driver/lr_fhss_mac.c ****  * Copyright Semtech Corporation 2021. All rights reserved.
   8:Middlewares/Third_Party/SubGHz_Phy/radio_driver/lr_fhss_mac.c ****  *
   9:Middlewares/Third_Party/SubGHz_Phy/radio_driver/lr_fhss_mac.c ****  * Redistribution and use in source and binary forms, with or without
  10:Middlewares/Third_Party/SubGHz_Phy/radio_driver/lr_fhss_mac.c ****  * modification, are permitted (subject to the limitations in the disclaimer
  11:Middlewares/Third_Party/SubGHz_Phy/radio_driver/lr_fhss_mac.c ****  * below) provided that the following conditions are met:
  12:Middlewares/Third_Party/SubGHz_Phy/radio_driver/lr_fhss_mac.c ****  *     * Redistributions of source code must retain the above copyright
  13:Middlewares/Third_Party/SubGHz_Phy/radio_driver/lr_fhss_mac.c ****  *       notice, this list of conditions and the following disclaimer.
  14:Middlewares/Third_Party/SubGHz_Phy/radio_driver/lr_fhss_mac.c ****  *     * Redistributions in binary form must reproduce the above copyright
  15:Middlewares/Third_Party/SubGHz_Phy/radio_driver/lr_fhss_mac.c ****  *       notice, this list of conditions and the following disclaimer in the
  16:Middlewares/Third_Party/SubGHz_Phy/radio_driver/lr_fhss_mac.c ****  *       documentation and/or other materials provided with the distribution.
  17:Middlewares/Third_Party/SubGHz_Phy/radio_driver/lr_fhss_mac.c ****  *     * Neither the name of the Semtech corporation nor the
  18:Middlewares/Third_Party/SubGHz_Phy/radio_driver/lr_fhss_mac.c ****  *       names of its contributors may be used to endorse or promote products
  19:Middlewares/Third_Party/SubGHz_Phy/radio_driver/lr_fhss_mac.c ****  *       derived from this software without specific prior written permission.
  20:Middlewares/Third_Party/SubGHz_Phy/radio_driver/lr_fhss_mac.c ****  *
  21:Middlewares/Third_Party/SubGHz_Phy/radio_driver/lr_fhss_mac.c ****  * NO EXPRESS OR IMPLIED LICENSES TO ANY PARTY'S PATENT RIGHTS ARE GRANTED BY
  22:Middlewares/Third_Party/SubGHz_Phy/radio_driver/lr_fhss_mac.c ****  * THIS LICENSE. THIS SOFTWARE IS PROVIDED BY THE COPYRIGHT HOLDERS AND
  23:Middlewares/Third_Party/SubGHz_Phy/radio_driver/lr_fhss_mac.c ****  * CONTRIBUTORS "AS IS" AND ANY EXPRESS OR IMPLIED WARRANTIES, INCLUDING, BUT
  24:Middlewares/Third_Party/SubGHz_Phy/radio_driver/lr_fhss_mac.c ****  * NOT LIMITED TO, THE IMPLIED WARRANTIES OF MERCHANTABILITY AND FITNESS FOR A
  25:Middlewares/Third_Party/SubGHz_Phy/radio_driver/lr_fhss_mac.c ****  * PARTICULAR PURPOSE ARE DISCLAIMED. IN NO EVENT SHALL SEMTECH CORPORATION BE
  26:Middlewares/Third_Party/SubGHz_Phy/radio_driver/lr_fhss_mac.c ****  * LIABLE FOR ANY DIRECT, INDIRECT, INCIDENTAL, SPECIAL, EXEMPLARY, OR
  27:Middlewares/Third_Party/SubGHz_Phy/radio_driver/lr_fhss_mac.c ****  * CONSEQUENTIAL DAMAGES (INCLUDING, BUT NOT LIMITED TO, PROCUREMENT OF
  28:Middlewares/Third_Party/SubGHz_Phy/radio_driver/lr_fhss_mac.c ****  * SUBSTITUTE GOODS OR SERVICES; LOSS OF USE, DATA, OR PROFITS; OR BUSINESS
  29:Middlewares/Third_Party/SubGHz_Phy/radio_driver/lr_fhss_mac.c ****  * INTERRUPTION) HOWEVER CAUSED AND ON ANY THEORY OF LIABILITY, WHETHER IN
  30:Middlewares/Third_Party/SubGHz_Phy/radio_driver/lr_fhss_mac.c ****  * CONTRACT, STRICT LIABILITY, OR TORT (INCLUDING NEGLIGENCE OR OTHERWISE)
  31:Middlewares/Third_Party/SubGHz_Phy/radio_driver/lr_fhss_mac.c ****  * ARISING IN ANY WAY OUT OF THE USE OF THIS SOFTWARE, EVEN IF ADVISED OF THE
  32:Middlewares/Third_Party/SubGHz_Phy/radio_driver/lr_fhss_mac.c ****  * POSSIBILITY OF SUCH DAMAGE.
ARM GAS  /tmp/ccvq1YAY.s 			page 2


  33:Middlewares/Third_Party/SubGHz_Phy/radio_driver/lr_fhss_mac.c ****  */
  34:Middlewares/Third_Party/SubGHz_Phy/radio_driver/lr_fhss_mac.c **** 
  35:Middlewares/Third_Party/SubGHz_Phy/radio_driver/lr_fhss_mac.c **** /*
  36:Middlewares/Third_Party/SubGHz_Phy/radio_driver/lr_fhss_mac.c ****  * -----------------------------------------------------------------------------
  37:Middlewares/Third_Party/SubGHz_Phy/radio_driver/lr_fhss_mac.c ****  * --- DEPENDENCIES ------------------------------------------------------------
  38:Middlewares/Third_Party/SubGHz_Phy/radio_driver/lr_fhss_mac.c ****  */
  39:Middlewares/Third_Party/SubGHz_Phy/radio_driver/lr_fhss_mac.c **** #include "lr_fhss_mac.h"
  40:Middlewares/Third_Party/SubGHz_Phy/radio_driver/lr_fhss_mac.c **** #include <string.h>
  41:Middlewares/Third_Party/SubGHz_Phy/radio_driver/lr_fhss_mac.c **** 
  42:Middlewares/Third_Party/SubGHz_Phy/radio_driver/lr_fhss_mac.c **** /*
  43:Middlewares/Third_Party/SubGHz_Phy/radio_driver/lr_fhss_mac.c ****  * -----------------------------------------------------------------------------
  44:Middlewares/Third_Party/SubGHz_Phy/radio_driver/lr_fhss_mac.c ****  * --- PRIVATE MACROS-----------------------------------------------------------
  45:Middlewares/Third_Party/SubGHz_Phy/radio_driver/lr_fhss_mac.c ****  */
  46:Middlewares/Third_Party/SubGHz_Phy/radio_driver/lr_fhss_mac.c **** 
  47:Middlewares/Third_Party/SubGHz_Phy/radio_driver/lr_fhss_mac.c **** #ifdef TEST
  48:Middlewares/Third_Party/SubGHz_Phy/radio_driver/lr_fhss_mac.c **** #define STATIC
  49:Middlewares/Third_Party/SubGHz_Phy/radio_driver/lr_fhss_mac.c **** #else
  50:Middlewares/Third_Party/SubGHz_Phy/radio_driver/lr_fhss_mac.c **** #define STATIC static
  51:Middlewares/Third_Party/SubGHz_Phy/radio_driver/lr_fhss_mac.c **** #endif
  52:Middlewares/Third_Party/SubGHz_Phy/radio_driver/lr_fhss_mac.c **** 
  53:Middlewares/Third_Party/SubGHz_Phy/radio_driver/lr_fhss_mac.c **** /*
  54:Middlewares/Third_Party/SubGHz_Phy/radio_driver/lr_fhss_mac.c ****  * -----------------------------------------------------------------------------
  55:Middlewares/Third_Party/SubGHz_Phy/radio_driver/lr_fhss_mac.c ****  * --- PRIVATE CONSTANTS -------------------------------------------------------
  56:Middlewares/Third_Party/SubGHz_Phy/radio_driver/lr_fhss_mac.c ****  */
  57:Middlewares/Third_Party/SubGHz_Phy/radio_driver/lr_fhss_mac.c **** 
  58:Middlewares/Third_Party/SubGHz_Phy/radio_driver/lr_fhss_mac.c **** #define LR_FHSS_MAX_TMP_BUF_BYTES ( 608 )
  59:Middlewares/Third_Party/SubGHz_Phy/radio_driver/lr_fhss_mac.c **** 
  60:Middlewares/Third_Party/SubGHz_Phy/radio_driver/lr_fhss_mac.c **** /*
  61:Middlewares/Third_Party/SubGHz_Phy/radio_driver/lr_fhss_mac.c ****  * -----------------------------------------------------------------------------
  62:Middlewares/Third_Party/SubGHz_Phy/radio_driver/lr_fhss_mac.c ****  * --- PRIVATE TYPES -----------------------------------------------------------
  63:Middlewares/Third_Party/SubGHz_Phy/radio_driver/lr_fhss_mac.c ****  */
  64:Middlewares/Third_Party/SubGHz_Phy/radio_driver/lr_fhss_mac.c **** 
  65:Middlewares/Third_Party/SubGHz_Phy/radio_driver/lr_fhss_mac.c **** /*
  66:Middlewares/Third_Party/SubGHz_Phy/radio_driver/lr_fhss_mac.c ****  * -----------------------------------------------------------------------------
  67:Middlewares/Third_Party/SubGHz_Phy/radio_driver/lr_fhss_mac.c ****  * --- PRIVATE VARIABLES -------------------------------------------------------
  68:Middlewares/Third_Party/SubGHz_Phy/radio_driver/lr_fhss_mac.c ****  */
  69:Middlewares/Third_Party/SubGHz_Phy/radio_driver/lr_fhss_mac.c **** 
  70:Middlewares/Third_Party/SubGHz_Phy/radio_driver/lr_fhss_mac.c **** /** @brief Channel count as function of bandwidth index, from Table 9 specification v18 */
  71:Middlewares/Third_Party/SubGHz_Phy/radio_driver/lr_fhss_mac.c **** STATIC const uint16_t lr_fhss_channel_count[] = { 80, 176, 280, 376, 688, 792, 1480, 1584, 3120, 32
  72:Middlewares/Third_Party/SubGHz_Phy/radio_driver/lr_fhss_mac.c **** 
  73:Middlewares/Third_Party/SubGHz_Phy/radio_driver/lr_fhss_mac.c **** /** @brief Generating polynomial as function of polynomial index, n_grid in { 10, 22, 28, 30, 35, 4
  74:Middlewares/Third_Party/SubGHz_Phy/radio_driver/lr_fhss_mac.c **** STATIC const uint8_t lr_fhss_lfsr_poly1[] = { 33, 45, 48, 51, 54, 57 };
  75:Middlewares/Third_Party/SubGHz_Phy/radio_driver/lr_fhss_mac.c **** 
  76:Middlewares/Third_Party/SubGHz_Phy/radio_driver/lr_fhss_mac.c **** /** @brief Generating polynomial as function of polynomial index, n_grid in { 86, 99 } */
  77:Middlewares/Third_Party/SubGHz_Phy/radio_driver/lr_fhss_mac.c **** STATIC const uint8_t lr_fhss_lfsr_poly2[] = { 65, 68, 71, 72 };
  78:Middlewares/Third_Party/SubGHz_Phy/radio_driver/lr_fhss_mac.c **** 
  79:Middlewares/Third_Party/SubGHz_Phy/radio_driver/lr_fhss_mac.c **** /** @brief Generating polynomial as function of polynomial index, n_grid in { 185, 198 } */
  80:Middlewares/Third_Party/SubGHz_Phy/radio_driver/lr_fhss_mac.c **** STATIC const uint8_t lr_fhss_lfsr_poly3[] = { 142, 149 };
  81:Middlewares/Third_Party/SubGHz_Phy/radio_driver/lr_fhss_mac.c **** 
  82:Middlewares/Third_Party/SubGHz_Phy/radio_driver/lr_fhss_mac.c **** /** @brief used for 1/3 rate viterbi encoding */
  83:Middlewares/Third_Party/SubGHz_Phy/radio_driver/lr_fhss_mac.c **** STATIC const uint8_t lr_fhss_viterbi_1_3_table[64][2] =
  84:Middlewares/Third_Party/SubGHz_Phy/radio_driver/lr_fhss_mac.c **** {
  85:Middlewares/Third_Party/SubGHz_Phy/radio_driver/lr_fhss_mac.c ****     { 0, 7 }, { 3, 4 }, { 7, 0 }, { 4, 3 }, { 6, 1 }, { 5, 2 }, { 1, 6 }, { 2, 5 }, { 1, 6 }, { 2, 
  86:Middlewares/Third_Party/SubGHz_Phy/radio_driver/lr_fhss_mac.c ****     { 5, 2 }, { 7, 0 }, { 4, 3 }, { 0, 7 }, { 3, 4 }, { 4, 3 }, { 7, 0 }, { 3, 4 }, { 0, 7 }, { 2, 
  87:Middlewares/Third_Party/SubGHz_Phy/radio_driver/lr_fhss_mac.c ****     { 5, 2 }, { 6, 1 }, { 5, 2 }, { 6, 1 }, { 2, 5 }, { 1, 6 }, { 3, 4 }, { 0, 7 }, { 4, 3 }, { 7, 
  88:Middlewares/Third_Party/SubGHz_Phy/radio_driver/lr_fhss_mac.c ****     { 4, 3 }, { 0, 7 }, { 3, 4 }, { 1, 6 }, { 2, 5 }, { 6, 1 }, { 5, 2 }, { 6, 1 }, { 5, 2 }, { 1, 
  89:Middlewares/Third_Party/SubGHz_Phy/radio_driver/lr_fhss_mac.c ****     { 0, 7 }, { 3, 4 }, { 7, 0 }, { 4, 3 }, { 3, 4 }, { 0, 7 }, { 4, 3 }, { 7, 0 }, { 5, 2 }, { 6, 
ARM GAS  /tmp/ccvq1YAY.s 			page 3


  90:Middlewares/Third_Party/SubGHz_Phy/radio_driver/lr_fhss_mac.c ****     { 1, 6 }, { 2, 5 }, { 1, 6 }, { 5, 2 }, { 6, 1 }, { 4, 3 }, { 7, 0 }, { 3, 4 }, { 0, 7 }
  91:Middlewares/Third_Party/SubGHz_Phy/radio_driver/lr_fhss_mac.c **** };
  92:Middlewares/Third_Party/SubGHz_Phy/radio_driver/lr_fhss_mac.c **** 
  93:Middlewares/Third_Party/SubGHz_Phy/radio_driver/lr_fhss_mac.c **** /** @brief used for 1/2 rate viterbi encoding */
  94:Middlewares/Third_Party/SubGHz_Phy/radio_driver/lr_fhss_mac.c **** STATIC const uint8_t lr_fhss_viterbi_1_2_table[16][2] =
  95:Middlewares/Third_Party/SubGHz_Phy/radio_driver/lr_fhss_mac.c **** {
  96:Middlewares/Third_Party/SubGHz_Phy/radio_driver/lr_fhss_mac.c ****     { 0, 3 }, { 1, 2 }, { 2, 1 }, { 3, 0 }, { 2, 1 }, { 3, 0 },
  97:Middlewares/Third_Party/SubGHz_Phy/radio_driver/lr_fhss_mac.c ****     { 0, 3 }, { 1, 2 }, { 3, 0 }, { 2, 1 }, { 1, 2 }, { 0, 3 },
  98:Middlewares/Third_Party/SubGHz_Phy/radio_driver/lr_fhss_mac.c ****     { 1, 2 }, { 0, 3 }, { 3, 0 }, { 2, 1 }
  99:Middlewares/Third_Party/SubGHz_Phy/radio_driver/lr_fhss_mac.c **** };
 100:Middlewares/Third_Party/SubGHz_Phy/radio_driver/lr_fhss_mac.c **** 
 101:Middlewares/Third_Party/SubGHz_Phy/radio_driver/lr_fhss_mac.c **** /** @brief used header interleaving */
 102:Middlewares/Third_Party/SubGHz_Phy/radio_driver/lr_fhss_mac.c **** STATIC const uint8_t lr_fhss_header_interleaver_minus_one[80] =
 103:Middlewares/Third_Party/SubGHz_Phy/radio_driver/lr_fhss_mac.c **** {
 104:Middlewares/Third_Party/SubGHz_Phy/radio_driver/lr_fhss_mac.c ****     0,  18, 36, 54, 72, 4,  22, 40,  //
 105:Middlewares/Third_Party/SubGHz_Phy/radio_driver/lr_fhss_mac.c ****     58, 76, 8,  26, 44, 62, 12, 30,  //
 106:Middlewares/Third_Party/SubGHz_Phy/radio_driver/lr_fhss_mac.c ****     48, 66, 16, 34, 52, 70, 1,  19,  //
 107:Middlewares/Third_Party/SubGHz_Phy/radio_driver/lr_fhss_mac.c ****     37, 55, 73, 5,  23, 41, 59, 77,  //
 108:Middlewares/Third_Party/SubGHz_Phy/radio_driver/lr_fhss_mac.c ****     9,  27, 45, 63, 13, 31, 49, 67,  //
 109:Middlewares/Third_Party/SubGHz_Phy/radio_driver/lr_fhss_mac.c ****     17, 35, 53, 71, 2,  20, 38, 56,  //
 110:Middlewares/Third_Party/SubGHz_Phy/radio_driver/lr_fhss_mac.c ****     74, 6,  24, 42, 60, 78, 10, 28,  //
 111:Middlewares/Third_Party/SubGHz_Phy/radio_driver/lr_fhss_mac.c ****     46, 64, 14, 32, 50, 68, 3,  21,  //
 112:Middlewares/Third_Party/SubGHz_Phy/radio_driver/lr_fhss_mac.c ****     39, 57, 75, 7,  25, 43, 61, 79,  //
 113:Middlewares/Third_Party/SubGHz_Phy/radio_driver/lr_fhss_mac.c ****     11, 29, 47, 65, 15, 33, 51, 69   //
 114:Middlewares/Third_Party/SubGHz_Phy/radio_driver/lr_fhss_mac.c **** };
 115:Middlewares/Third_Party/SubGHz_Phy/radio_driver/lr_fhss_mac.c **** 
 116:Middlewares/Third_Party/SubGHz_Phy/radio_driver/lr_fhss_mac.c **** /** @brief lookup table for lr_fhss_header_crc8 */
 117:Middlewares/Third_Party/SubGHz_Phy/radio_driver/lr_fhss_mac.c **** const uint8_t lr_fhss_header_crc8_lut[256] =
 118:Middlewares/Third_Party/SubGHz_Phy/radio_driver/lr_fhss_mac.c **** {
 119:Middlewares/Third_Party/SubGHz_Phy/radio_driver/lr_fhss_mac.c ****     0,   47,  94,  113, 188, 147, 226, 205, 87,  120, 9,   38,  235, 196, 181, 154,  //
 120:Middlewares/Third_Party/SubGHz_Phy/radio_driver/lr_fhss_mac.c ****     174, 129, 240, 223, 18,  61,  76,  99,  249, 214, 167, 136, 69,  106, 27,  52,   //
 121:Middlewares/Third_Party/SubGHz_Phy/radio_driver/lr_fhss_mac.c ****     115, 92,  45,  2,   207, 224, 145, 190, 36,  11,  122, 85,  152, 183, 198, 233,  //
 122:Middlewares/Third_Party/SubGHz_Phy/radio_driver/lr_fhss_mac.c ****     221, 242, 131, 172, 97,  78,  63,  16,  138, 165, 212, 251, 54,  25,  104, 71,   //
 123:Middlewares/Third_Party/SubGHz_Phy/radio_driver/lr_fhss_mac.c ****     230, 201, 184, 151, 90,  117, 4,   43,  177, 158, 239, 192, 13,  34,  83,  124,  //
 124:Middlewares/Third_Party/SubGHz_Phy/radio_driver/lr_fhss_mac.c ****     72,  103, 22,  57,  244, 219, 170, 133, 31,  48,  65,  110, 163, 140, 253, 210,  //
 125:Middlewares/Third_Party/SubGHz_Phy/radio_driver/lr_fhss_mac.c ****     149, 186, 203, 228, 41,  6,   119, 88,  194, 237, 156, 179, 126, 81,  32,  15,   //
 126:Middlewares/Third_Party/SubGHz_Phy/radio_driver/lr_fhss_mac.c ****     59,  20,  101, 74,  135, 168, 217, 246, 108, 67,  50,  29,  208, 255, 142, 161,  //
 127:Middlewares/Third_Party/SubGHz_Phy/radio_driver/lr_fhss_mac.c ****     227, 204, 189, 146, 95,  112, 1,   46,  180, 155, 234, 197, 8,   39,  86,  121,  //
 128:Middlewares/Third_Party/SubGHz_Phy/radio_driver/lr_fhss_mac.c ****     77,  98,  19,  60,  241, 222, 175, 128, 26,  53,  68,  107, 166, 137, 248, 215,  //
 129:Middlewares/Third_Party/SubGHz_Phy/radio_driver/lr_fhss_mac.c ****     144, 191, 206, 225, 44,  3,   114, 93,  199, 232, 153, 182, 123, 84,  37,  10,   //
 130:Middlewares/Third_Party/SubGHz_Phy/radio_driver/lr_fhss_mac.c ****     62,  17,  96,  79,  130, 173, 220, 243, 105, 70,  55,  24,  213, 250, 139, 164,  //
 131:Middlewares/Third_Party/SubGHz_Phy/radio_driver/lr_fhss_mac.c ****     5,   42,  91,  116, 185, 150, 231, 200, 82,  125, 12,  35,  238, 193, 176, 159,  //
 132:Middlewares/Third_Party/SubGHz_Phy/radio_driver/lr_fhss_mac.c ****     171, 132, 245, 218, 23,  56,  73,  102, 252, 211, 162, 141, 64,  111, 30,  49,   //
 133:Middlewares/Third_Party/SubGHz_Phy/radio_driver/lr_fhss_mac.c ****     118, 89,  40,  7,   202, 229, 148, 187, 33,  14,  127, 80,  157, 178, 195, 236,  //
 134:Middlewares/Third_Party/SubGHz_Phy/radio_driver/lr_fhss_mac.c ****     216, 247, 134, 169, 100, 75,  58,  21,  143, 160, 209, 254, 51,  28,  109, 66    //
 135:Middlewares/Third_Party/SubGHz_Phy/radio_driver/lr_fhss_mac.c **** };
 136:Middlewares/Third_Party/SubGHz_Phy/radio_driver/lr_fhss_mac.c **** 
 137:Middlewares/Third_Party/SubGHz_Phy/radio_driver/lr_fhss_mac.c **** /** @brief lookup table for lr_fhss_payload_crc16 */
 138:Middlewares/Third_Party/SubGHz_Phy/radio_driver/lr_fhss_mac.c **** const uint16_t lr_fhss_payload_crc16_lut[256] =
 139:Middlewares/Third_Party/SubGHz_Phy/radio_driver/lr_fhss_mac.c **** {
 140:Middlewares/Third_Party/SubGHz_Phy/radio_driver/lr_fhss_mac.c ****     0,     30043, 60086, 40941, 41015, 54636, 19073, 16346, 13621, 16494, 57219, 43736, 38146, 5743
 141:Middlewares/Third_Party/SubGHz_Phy/radio_driver/lr_fhss_mac.c ****     27242, 7985,  32988, 62855, 51805, 48902, 8427,  21936, 24415, 10756, 46569, 49330, 65384, 3537
 142:Middlewares/Third_Party/SubGHz_Phy/radio_driver/lr_fhss_mac.c ****     54484, 41359, 15970, 19257, 29923, 440,   40533, 60174, 57825, 38074, 2903,  32268, 16854, 1345
 143:Middlewares/Third_Party/SubGHz_Phy/radio_driver/lr_fhss_mac.c ****     48830, 52197, 21512, 8531,  7817,  27602, 62527, 33124, 35723, 65232, 24893, 5222,  11196, 2429
 144:Middlewares/Third_Party/SubGHz_Phy/radio_driver/lr_fhss_mac.c ****     56563, 43432, 13893, 17182, 31940, 2463,  38514, 58153, 59846, 40093, 880,   30251, 18929, 1553
 145:Middlewares/Third_Party/SubGHz_Phy/radio_driver/lr_fhss_mac.c ****     46745, 50114, 23599, 10612, 5806,  25589, 64536, 35139, 33708, 63223, 26906, 7233,  9115,  2220
 146:Middlewares/Third_Party/SubGHz_Phy/radio_driver/lr_fhss_mac.c ****     2087,  32124, 58001, 38858, 43024, 56651, 17062, 14333, 15634, 18505, 55204, 41727, 40229, 5951
ARM GAS  /tmp/ccvq1YAY.s 			page 4


 147:Middlewares/Third_Party/SubGHz_Phy/radio_driver/lr_fhss_mac.c ****     25165, 5910,  35067, 64928, 49786, 46881, 10444, 23959, 22392, 8739,  48590, 51349, 63311, 3330
 148:Middlewares/Third_Party/SubGHz_Phy/radio_driver/lr_fhss_mac.c ****     52413, 47590, 9739,  21328, 27786, 6609,  34364, 62311, 63880, 36051, 4926,  26213, 22975, 1149
 149:Middlewares/Third_Party/SubGHz_Phy/radio_driver/lr_fhss_mac.c ****     42711, 54156, 19553, 14650, 1760,  29627, 60502, 39181, 37858, 59065, 31060, 3087,  13269, 1806
 150:Middlewares/Third_Party/SubGHz_Phy/radio_driver/lr_fhss_mac.c ****     6249,  27954, 62175, 34692, 47198, 52485, 21224, 10163, 11612, 22535, 51178, 45745, 36203, 6353
 151:Middlewares/Third_Party/SubGHz_Phy/radio_driver/lr_fhss_mac.c ****     29187, 1880,  39093, 60910, 53812, 42863, 14466, 19929, 18230, 12909, 44416, 55515, 59137, 3746
 152:Middlewares/Third_Party/SubGHz_Phy/radio_driver/lr_fhss_mac.c ****     4174,  25877, 64248, 36771, 45177, 50466, 23247, 12180, 9595,  20512, 53197, 47766, 34124, 6146
 153:Middlewares/Third_Party/SubGHz_Phy/radio_driver/lr_fhss_mac.c ****     31268, 3967,  37010, 58825, 55827, 44872, 12453, 17918, 20241, 14922, 42407, 53500, 61222, 3954
 154:Middlewares/Third_Party/SubGHz_Phy/radio_driver/lr_fhss_mac.c ****     50330, 45505, 11820, 23415, 25773, 4598,  36379, 64320, 61871, 34036, 6937,  28226, 20888, 9411
 155:Middlewares/Third_Party/SubGHz_Phy/radio_driver/lr_fhss_mac.c ****     44784, 56235, 17478, 12573, 3783,  31644, 58481, 37162, 39877, 61086, 29043, 1064,  15346, 2013
 156:Middlewares/Third_Party/SubGHz_Phy/radio_driver/lr_fhss_mac.c **** };
 157:Middlewares/Third_Party/SubGHz_Phy/radio_driver/lr_fhss_mac.c **** 
 158:Middlewares/Third_Party/SubGHz_Phy/radio_driver/lr_fhss_mac.c **** /*!
 159:Middlewares/Third_Party/SubGHz_Phy/radio_driver/lr_fhss_mac.c ****  * @brief integral square root, rounded up
 160:Middlewares/Third_Party/SubGHz_Phy/radio_driver/lr_fhss_mac.c ****  *
 161:Middlewares/Third_Party/SubGHz_Phy/radio_driver/lr_fhss_mac.c ****  * @param  [in] x argument
 162:Middlewares/Third_Party/SubGHz_Phy/radio_driver/lr_fhss_mac.c ****  *
 163:Middlewares/Third_Party/SubGHz_Phy/radio_driver/lr_fhss_mac.c ****  * @returns Square root of argument, rounded up to next integer
 164:Middlewares/Third_Party/SubGHz_Phy/radio_driver/lr_fhss_mac.c ****  *
 165:Middlewares/Third_Party/SubGHz_Phy/radio_driver/lr_fhss_mac.c ****  * @remark This function is only appropriate to use for reasonably small arguments
 166:Middlewares/Third_Party/SubGHz_Phy/radio_driver/lr_fhss_mac.c ****  */
 167:Middlewares/Third_Party/SubGHz_Phy/radio_driver/lr_fhss_mac.c **** STATIC uint16_t sqrt_uint16( uint16_t x );
 168:Middlewares/Third_Party/SubGHz_Phy/radio_driver/lr_fhss_mac.c **** 
 169:Middlewares/Third_Party/SubGHz_Phy/radio_driver/lr_fhss_mac.c **** /*
 170:Middlewares/Third_Party/SubGHz_Phy/radio_driver/lr_fhss_mac.c ****  * -----------------------------------------------------------------------------
 171:Middlewares/Third_Party/SubGHz_Phy/radio_driver/lr_fhss_mac.c ****  * --- PRIVATE FUNCTION DECLARATIONS -------------------------------------------
 172:Middlewares/Third_Party/SubGHz_Phy/radio_driver/lr_fhss_mac.c ****  */
 173:Middlewares/Third_Party/SubGHz_Phy/radio_driver/lr_fhss_mac.c **** 
 174:Middlewares/Third_Party/SubGHz_Phy/radio_driver/lr_fhss_mac.c **** /*!
 175:Middlewares/Third_Party/SubGHz_Phy/radio_driver/lr_fhss_mac.c ****  * @brief Compute 16-bit payload CRC
 176:Middlewares/Third_Party/SubGHz_Phy/radio_driver/lr_fhss_mac.c ****  *
 177:Middlewares/Third_Party/SubGHz_Phy/radio_driver/lr_fhss_mac.c ****  * @param  [in] data_in        Pointer to input buffer
 178:Middlewares/Third_Party/SubGHz_Phy/radio_driver/lr_fhss_mac.c ****  * @param  [in] data_in_bytecount Input buffer length, in bytes
 179:Middlewares/Third_Party/SubGHz_Phy/radio_driver/lr_fhss_mac.c ****  *
 180:Middlewares/Third_Party/SubGHz_Phy/radio_driver/lr_fhss_mac.c ****  * @returns 16-bit CRC
 181:Middlewares/Third_Party/SubGHz_Phy/radio_driver/lr_fhss_mac.c ****  */
 182:Middlewares/Third_Party/SubGHz_Phy/radio_driver/lr_fhss_mac.c **** STATIC uint16_t lr_fhss_payload_crc16( const uint8_t *data_in, uint16_t data_in_bytecount );
 183:Middlewares/Third_Party/SubGHz_Phy/radio_driver/lr_fhss_mac.c **** 
 184:Middlewares/Third_Party/SubGHz_Phy/radio_driver/lr_fhss_mac.c **** /*!
 185:Middlewares/Third_Party/SubGHz_Phy/radio_driver/lr_fhss_mac.c ****  * @brief Compute 8-bit header CRC
 186:Middlewares/Third_Party/SubGHz_Phy/radio_driver/lr_fhss_mac.c ****  *
 187:Middlewares/Third_Party/SubGHz_Phy/radio_driver/lr_fhss_mac.c ****  * @param  [in] data_in        Pointer to input buffer
 188:Middlewares/Third_Party/SubGHz_Phy/radio_driver/lr_fhss_mac.c ****  * @param  [in] data_in_bytecount Input buffer length, in bytes
 189:Middlewares/Third_Party/SubGHz_Phy/radio_driver/lr_fhss_mac.c ****  *
 190:Middlewares/Third_Party/SubGHz_Phy/radio_driver/lr_fhss_mac.c ****  * @returns 8-bit CRC
 191:Middlewares/Third_Party/SubGHz_Phy/radio_driver/lr_fhss_mac.c ****  */
 192:Middlewares/Third_Party/SubGHz_Phy/radio_driver/lr_fhss_mac.c **** STATIC uint8_t lr_fhss_header_crc8( const uint8_t *data_in, uint16_t data_in_bytecount );
 193:Middlewares/Third_Party/SubGHz_Phy/radio_driver/lr_fhss_mac.c **** 
 194:Middlewares/Third_Party/SubGHz_Phy/radio_driver/lr_fhss_mac.c **** /*!
 195:Middlewares/Third_Party/SubGHz_Phy/radio_driver/lr_fhss_mac.c ****  * @brief Whiten the payload
 196:Middlewares/Third_Party/SubGHz_Phy/radio_driver/lr_fhss_mac.c ****  *
 197:Middlewares/Third_Party/SubGHz_Phy/radio_driver/lr_fhss_mac.c ****  * @param  [in] data_in           Pointer to input buffer
 198:Middlewares/Third_Party/SubGHz_Phy/radio_driver/lr_fhss_mac.c ****  * @param  [in] data_in_bytecount Input buffer length, in bytes
 199:Middlewares/Third_Party/SubGHz_Phy/radio_driver/lr_fhss_mac.c ****  * @param [out] data_out          Pointer to output buffer, of same length as input buffer
 200:Middlewares/Third_Party/SubGHz_Phy/radio_driver/lr_fhss_mac.c ****  */
 201:Middlewares/Third_Party/SubGHz_Phy/radio_driver/lr_fhss_mac.c **** STATIC void lr_fhss_payload_whitening( const uint8_t *data_in, uint16_t data_in_bytecount, uint8_t 
 202:Middlewares/Third_Party/SubGHz_Phy/radio_driver/lr_fhss_mac.c **** 
 203:Middlewares/Third_Party/SubGHz_Phy/radio_driver/lr_fhss_mac.c **** /*!
ARM GAS  /tmp/ccvq1YAY.s 			page 5


 204:Middlewares/Third_Party/SubGHz_Phy/radio_driver/lr_fhss_mac.c ****  * @brief Extract specific bit from array of bytes
 205:Middlewares/Third_Party/SubGHz_Phy/radio_driver/lr_fhss_mac.c ****  *
 206:Middlewares/Third_Party/SubGHz_Phy/radio_driver/lr_fhss_mac.c ****  * @param  [in] data_in    Array of bytes
 207:Middlewares/Third_Party/SubGHz_Phy/radio_driver/lr_fhss_mac.c ****  * @param  [in] bit_number Index of bit in array
 208:Middlewares/Third_Party/SubGHz_Phy/radio_driver/lr_fhss_mac.c ****  *
 209:Middlewares/Third_Party/SubGHz_Phy/radio_driver/lr_fhss_mac.c ****  * @returns Value of the bit
 210:Middlewares/Third_Party/SubGHz_Phy/radio_driver/lr_fhss_mac.c ****  */
 211:Middlewares/Third_Party/SubGHz_Phy/radio_driver/lr_fhss_mac.c **** STATIC uint8_t lr_fhss_extract_bit_in_byte_vector( const uint8_t *data_in, uint32_t bit_number );
 212:Middlewares/Third_Party/SubGHz_Phy/radio_driver/lr_fhss_mac.c **** 
 213:Middlewares/Third_Party/SubGHz_Phy/radio_driver/lr_fhss_mac.c **** /*!
 214:Middlewares/Third_Party/SubGHz_Phy/radio_driver/lr_fhss_mac.c ****  * @brief Set specific bit in array of bytes
 215:Middlewares/Third_Party/SubGHz_Phy/radio_driver/lr_fhss_mac.c ****  *
 216:Middlewares/Third_Party/SubGHz_Phy/radio_driver/lr_fhss_mac.c ****  * @param  [in] data_in   Array of bytes
 217:Middlewares/Third_Party/SubGHz_Phy/radio_driver/lr_fhss_mac.c ****  * @param  [in] bit_number Index of bit in array
 218:Middlewares/Third_Party/SubGHz_Phy/radio_driver/lr_fhss_mac.c ****  * @param  [in] bit_value  Value to be set
 219:Middlewares/Third_Party/SubGHz_Phy/radio_driver/lr_fhss_mac.c ****  */
 220:Middlewares/Third_Party/SubGHz_Phy/radio_driver/lr_fhss_mac.c **** STATIC void lr_fhss_set_bit_in_byte_vector( uint8_t *vector, uint32_t bit_number, uint8_t bit_value
 221:Middlewares/Third_Party/SubGHz_Phy/radio_driver/lr_fhss_mac.c **** 
 222:Middlewares/Third_Party/SubGHz_Phy/radio_driver/lr_fhss_mac.c **** /*!
 223:Middlewares/Third_Party/SubGHz_Phy/radio_driver/lr_fhss_mac.c ****  * @brief Compute 1/2 rate Viterbi encoding
 224:Middlewares/Third_Party/SubGHz_Phy/radio_driver/lr_fhss_mac.c ****  *
 225:Middlewares/Third_Party/SubGHz_Phy/radio_driver/lr_fhss_mac.c ****  * @param [in,out] encod_state      Pointer to encoded state
 226:Middlewares/Third_Party/SubGHz_Phy/radio_driver/lr_fhss_mac.c ****  * @param     [in] data_in          Pointer to input buffer
 227:Middlewares/Third_Party/SubGHz_Phy/radio_driver/lr_fhss_mac.c ****  * @param     [in] data_in_bitcount Length of input buffer, in bits
 228:Middlewares/Third_Party/SubGHz_Phy/radio_driver/lr_fhss_mac.c ****  * @param     [in] data_out         Pointer to output buffer
 229:Middlewares/Third_Party/SubGHz_Phy/radio_driver/lr_fhss_mac.c ****  *
 230:Middlewares/Third_Party/SubGHz_Phy/radio_driver/lr_fhss_mac.c ****  * @returns Length of output buffer, in bits
 231:Middlewares/Third_Party/SubGHz_Phy/radio_driver/lr_fhss_mac.c ****  */
 232:Middlewares/Third_Party/SubGHz_Phy/radio_driver/lr_fhss_mac.c **** STATIC uint16_t lr_fhss_convolution_encode_viterbi_1_2_base( uint8_t *encod_state, const uint8_t *d
 233:Middlewares/Third_Party/SubGHz_Phy/radio_driver/lr_fhss_mac.c ****                                                              uint16_t data_in_bitcount, uint8_t *da
 234:Middlewares/Third_Party/SubGHz_Phy/radio_driver/lr_fhss_mac.c **** 
 235:Middlewares/Third_Party/SubGHz_Phy/radio_driver/lr_fhss_mac.c **** /*!
 236:Middlewares/Third_Party/SubGHz_Phy/radio_driver/lr_fhss_mac.c ****  * @brief Compute 1/3 rate Viterbi encoding
 237:Middlewares/Third_Party/SubGHz_Phy/radio_driver/lr_fhss_mac.c ****  *
 238:Middlewares/Third_Party/SubGHz_Phy/radio_driver/lr_fhss_mac.c ****  * @param [in,out] encod_state      Pointer to encoded state
 239:Middlewares/Third_Party/SubGHz_Phy/radio_driver/lr_fhss_mac.c ****  * @param     [in] data_in          Pointer to input buffer
 240:Middlewares/Third_Party/SubGHz_Phy/radio_driver/lr_fhss_mac.c ****  * @param     [in] data_in_bitcount Length of input buffer, in bits
 241:Middlewares/Third_Party/SubGHz_Phy/radio_driver/lr_fhss_mac.c ****  * @param    [out] data_out         Pointer to output buffer
 242:Middlewares/Third_Party/SubGHz_Phy/radio_driver/lr_fhss_mac.c ****  *
 243:Middlewares/Third_Party/SubGHz_Phy/radio_driver/lr_fhss_mac.c ****  * @returns Length of output buffer, in bits
 244:Middlewares/Third_Party/SubGHz_Phy/radio_driver/lr_fhss_mac.c ****  */
 245:Middlewares/Third_Party/SubGHz_Phy/radio_driver/lr_fhss_mac.c **** STATIC uint16_t lr_fhss_convolution_encode_viterbi_1_3_base( uint8_t *encod_state, const uint8_t *d
 246:Middlewares/Third_Party/SubGHz_Phy/radio_driver/lr_fhss_mac.c ****                                                              uint16_t data_in_bitcount, uint8_t *da
 247:Middlewares/Third_Party/SubGHz_Phy/radio_driver/lr_fhss_mac.c **** 
 248:Middlewares/Third_Party/SubGHz_Phy/radio_driver/lr_fhss_mac.c **** /*!
 249:Middlewares/Third_Party/SubGHz_Phy/radio_driver/lr_fhss_mac.c ****  * @brief Convolute using lr_fhss_convolution_encode_viterbi_1_2_base with optional tail-biting
 250:Middlewares/Third_Party/SubGHz_Phy/radio_driver/lr_fhss_mac.c ****  *
 251:Middlewares/Third_Party/SubGHz_Phy/radio_driver/lr_fhss_mac.c ****  * @param  [in] data_in          Pointer to input buffer
 252:Middlewares/Third_Party/SubGHz_Phy/radio_driver/lr_fhss_mac.c ****  * @param  [in] data_in_bitcount Length of input buffer, in bits
 253:Middlewares/Third_Party/SubGHz_Phy/radio_driver/lr_fhss_mac.c ****  * @param  [in] tail_biting      Set to true to activate tail-biting
 254:Middlewares/Third_Party/SubGHz_Phy/radio_driver/lr_fhss_mac.c ****  * @param [out] data_out         Pointer to output buffer
 255:Middlewares/Third_Party/SubGHz_Phy/radio_driver/lr_fhss_mac.c ****  *
 256:Middlewares/Third_Party/SubGHz_Phy/radio_driver/lr_fhss_mac.c ****  * @remark If tail-biting is activated, this function calls lr_fhss_convolution_encode_viterbi_1_2_
 257:Middlewares/Third_Party/SubGHz_Phy/radio_driver/lr_fhss_mac.c ****  *
 258:Middlewares/Third_Party/SubGHz_Phy/radio_driver/lr_fhss_mac.c ****  * @returns Length of output buffer, in bits
 259:Middlewares/Third_Party/SubGHz_Phy/radio_driver/lr_fhss_mac.c ****  */
 260:Middlewares/Third_Party/SubGHz_Phy/radio_driver/lr_fhss_mac.c **** STATIC uint16_t lr_fhss_convolution_encode_viterbi_1_2( const uint8_t *data_in, uint16_t data_in_bi
ARM GAS  /tmp/ccvq1YAY.s 			page 6


 261:Middlewares/Third_Party/SubGHz_Phy/radio_driver/lr_fhss_mac.c ****                                                         bool tail_biting, uint8_t *data_out );
 262:Middlewares/Third_Party/SubGHz_Phy/radio_driver/lr_fhss_mac.c **** 
 263:Middlewares/Third_Party/SubGHz_Phy/radio_driver/lr_fhss_mac.c **** /*!
 264:Middlewares/Third_Party/SubGHz_Phy/radio_driver/lr_fhss_mac.c ****  * @brief Convolute using lr_fhss_convolution_encode_viterbi_1_3_base
 265:Middlewares/Third_Party/SubGHz_Phy/radio_driver/lr_fhss_mac.c ****  *
 266:Middlewares/Third_Party/SubGHz_Phy/radio_driver/lr_fhss_mac.c ****  * @param  [in] data_in          Pointer to input buffer
 267:Middlewares/Third_Party/SubGHz_Phy/radio_driver/lr_fhss_mac.c ****  * @param  [in] data_in_bitcount Length of input buffer, in bits
 268:Middlewares/Third_Party/SubGHz_Phy/radio_driver/lr_fhss_mac.c ****  * @param [out] data_out         Pointer to output buffer
 269:Middlewares/Third_Party/SubGHz_Phy/radio_driver/lr_fhss_mac.c ****  *
 270:Middlewares/Third_Party/SubGHz_Phy/radio_driver/lr_fhss_mac.c ****  * @returns Length of output buffer, in bits
 271:Middlewares/Third_Party/SubGHz_Phy/radio_driver/lr_fhss_mac.c ****  */
 272:Middlewares/Third_Party/SubGHz_Phy/radio_driver/lr_fhss_mac.c **** STATIC uint16_t lr_fhss_convolution_encode_viterbi_1_3( const uint8_t *data_in, uint16_t data_in_bi
 273:Middlewares/Third_Party/SubGHz_Phy/radio_driver/lr_fhss_mac.c ****                                                         uint8_t *data_out );
 274:Middlewares/Third_Party/SubGHz_Phy/radio_driver/lr_fhss_mac.c **** 
 275:Middlewares/Third_Party/SubGHz_Phy/radio_driver/lr_fhss_mac.c **** /*!
 276:Middlewares/Third_Party/SubGHz_Phy/radio_driver/lr_fhss_mac.c ****  * @brief Computes payload interleaving
 277:Middlewares/Third_Party/SubGHz_Phy/radio_driver/lr_fhss_mac.c ****  *
 278:Middlewares/Third_Party/SubGHz_Phy/radio_driver/lr_fhss_mac.c ****  * @param  [in] data_in          Pointer to input buffer
 279:Middlewares/Third_Party/SubGHz_Phy/radio_driver/lr_fhss_mac.c ****  * @param  [in] data_in_bitcount Length of input buffer, in bits
 280:Middlewares/Third_Party/SubGHz_Phy/radio_driver/lr_fhss_mac.c ****  * @param [out] data_out         Pointer to output buffer
 281:Middlewares/Third_Party/SubGHz_Phy/radio_driver/lr_fhss_mac.c ****  * @param  [in] output_offset    Output offset indicating where data must be placed, in bits, relat
 282:Middlewares/Third_Party/SubGHz_Phy/radio_driver/lr_fhss_mac.c ****  *
 283:Middlewares/Third_Party/SubGHz_Phy/radio_driver/lr_fhss_mac.c ****  * @returns Length of output buffer, in bits
 284:Middlewares/Third_Party/SubGHz_Phy/radio_driver/lr_fhss_mac.c ****  */
 285:Middlewares/Third_Party/SubGHz_Phy/radio_driver/lr_fhss_mac.c **** STATIC uint16_t lr_fhss_payload_interleaving( const uint8_t *data_in, uint16_t data_in_bitcount, ui
 286:Middlewares/Third_Party/SubGHz_Phy/radio_driver/lr_fhss_mac.c ****                                               uint32_t output_offset );
 287:Middlewares/Third_Party/SubGHz_Phy/radio_driver/lr_fhss_mac.c **** 
 288:Middlewares/Third_Party/SubGHz_Phy/radio_driver/lr_fhss_mac.c **** /*!
 289:Middlewares/Third_Party/SubGHz_Phy/radio_driver/lr_fhss_mac.c ****  * @brief Create the raw LR-FHSS header
 290:Middlewares/Third_Party/SubGHz_Phy/radio_driver/lr_fhss_mac.c ****  *
 291:Middlewares/Third_Party/SubGHz_Phy/radio_driver/lr_fhss_mac.c ****  * @param  [in] params          Parameter structure
 292:Middlewares/Third_Party/SubGHz_Phy/radio_driver/lr_fhss_mac.c ****  * @param  [in] hop_sequence_id The hop sequence ID that will be used to obtain hop-related data
 293:Middlewares/Third_Party/SubGHz_Phy/radio_driver/lr_fhss_mac.c ****  * @param  [in] payload_length  Length of application payload, in bytes
 294:Middlewares/Third_Party/SubGHz_Phy/radio_driver/lr_fhss_mac.c ****  * @param [out] data_out        Pointer to output buffer
 295:Middlewares/Third_Party/SubGHz_Phy/radio_driver/lr_fhss_mac.c ****  */
 296:Middlewares/Third_Party/SubGHz_Phy/radio_driver/lr_fhss_mac.c **** STATIC void lr_fhss_raw_header( const lr_fhss_v1_params_t *params, uint16_t hop_sequence_id, uint16
 297:Middlewares/Third_Party/SubGHz_Phy/radio_driver/lr_fhss_mac.c ****                                 uint8_t *data_out );
 298:Middlewares/Third_Party/SubGHz_Phy/radio_driver/lr_fhss_mac.c **** 
 299:Middlewares/Third_Party/SubGHz_Phy/radio_driver/lr_fhss_mac.c **** /*!
 300:Middlewares/Third_Party/SubGHz_Phy/radio_driver/lr_fhss_mac.c ****  * @brief Store sync word index inside provided header
 301:Middlewares/Third_Party/SubGHz_Phy/radio_driver/lr_fhss_mac.c ****  *
 302:Middlewares/Third_Party/SubGHz_Phy/radio_driver/lr_fhss_mac.c ****  * @param  [in] sync_word_index The sync word index to store
 303:Middlewares/Third_Party/SubGHz_Phy/radio_driver/lr_fhss_mac.c ****  * @param [out] data_out        Pointer to output buffer
 304:Middlewares/Third_Party/SubGHz_Phy/radio_driver/lr_fhss_mac.c ****  */
 305:Middlewares/Third_Party/SubGHz_Phy/radio_driver/lr_fhss_mac.c **** STATIC void lr_fhss_store_header_sync_word_index( uint8_t sync_word_index, uint8_t *data_out );
 306:Middlewares/Third_Party/SubGHz_Phy/radio_driver/lr_fhss_mac.c **** 
 307:Middlewares/Third_Party/SubGHz_Phy/radio_driver/lr_fhss_mac.c **** /*!
 308:Middlewares/Third_Party/SubGHz_Phy/radio_driver/lr_fhss_mac.c ****  * @brief Get the bit count and block count for a LR-FHSS frame
 309:Middlewares/Third_Party/SubGHz_Phy/radio_driver/lr_fhss_mac.c ****  *
 310:Middlewares/Third_Party/SubGHz_Phy/radio_driver/lr_fhss_mac.c ****  * @param  [in] params         Parameter structure
 311:Middlewares/Third_Party/SubGHz_Phy/radio_driver/lr_fhss_mac.c ****  * @param  [in] payload_length Length of physical payload, in bytes
 312:Middlewares/Third_Party/SubGHz_Phy/radio_driver/lr_fhss_mac.c ****  * @param [out] nb_hops_out    Number of LR-FHSS hops
 313:Middlewares/Third_Party/SubGHz_Phy/radio_driver/lr_fhss_mac.c ****  *
 314:Middlewares/Third_Party/SubGHz_Phy/radio_driver/lr_fhss_mac.c ****  * @returns Length of physical payload, in bits
 315:Middlewares/Third_Party/SubGHz_Phy/radio_driver/lr_fhss_mac.c ****  */
 316:Middlewares/Third_Party/SubGHz_Phy/radio_driver/lr_fhss_mac.c **** STATIC uint16_t lr_fhss_get_bit_and_hop_count( const lr_fhss_v1_params_t *params, uint16_t payload_
 317:Middlewares/Third_Party/SubGHz_Phy/radio_driver/lr_fhss_mac.c ****                                                uint8_t *nb_hops_out );
ARM GAS  /tmp/ccvq1YAY.s 			page 7


 318:Middlewares/Third_Party/SubGHz_Phy/radio_driver/lr_fhss_mac.c **** 
 319:Middlewares/Third_Party/SubGHz_Phy/radio_driver/lr_fhss_mac.c **** /*
 320:Middlewares/Third_Party/SubGHz_Phy/radio_driver/lr_fhss_mac.c ****  * -----------------------------------------------------------------------------
 321:Middlewares/Third_Party/SubGHz_Phy/radio_driver/lr_fhss_mac.c ****  * --- PUBLIC FUNCTION DEFINITIONS ---------------------------------------------
 322:Middlewares/Third_Party/SubGHz_Phy/radio_driver/lr_fhss_mac.c ****  */
 323:Middlewares/Third_Party/SubGHz_Phy/radio_driver/lr_fhss_mac.c **** 
 324:Middlewares/Third_Party/SubGHz_Phy/radio_driver/lr_fhss_mac.c **** unsigned int lr_fhss_get_hop_sequence_count( const lr_fhss_v1_params_t *params )
 325:Middlewares/Third_Party/SubGHz_Phy/radio_driver/lr_fhss_mac.c **** {
 326:Middlewares/Third_Party/SubGHz_Phy/radio_driver/lr_fhss_mac.c ****     if( ( params->grid == LR_FHSS_V1_GRID_25391_HZ ) ||
 327:Middlewares/Third_Party/SubGHz_Phy/radio_driver/lr_fhss_mac.c ****         ( ( params->grid == LR_FHSS_V1_GRID_3906_HZ ) && ( params->bw < LR_FHSS_V1_BW_335938_HZ ) )
 328:Middlewares/Third_Party/SubGHz_Phy/radio_driver/lr_fhss_mac.c ****     {
 329:Middlewares/Third_Party/SubGHz_Phy/radio_driver/lr_fhss_mac.c ****         return 384;
 330:Middlewares/Third_Party/SubGHz_Phy/radio_driver/lr_fhss_mac.c ****     }
 331:Middlewares/Third_Party/SubGHz_Phy/radio_driver/lr_fhss_mac.c ****     return 512;
 332:Middlewares/Third_Party/SubGHz_Phy/radio_driver/lr_fhss_mac.c **** }
 333:Middlewares/Third_Party/SubGHz_Phy/radio_driver/lr_fhss_mac.c **** 
 334:Middlewares/Third_Party/SubGHz_Phy/radio_driver/lr_fhss_mac.c **** void lr_fhss_process_parameters( const lr_fhss_v1_params_t *params, uint16_t payload_length, lr_fhs
 335:Middlewares/Third_Party/SubGHz_Phy/radio_driver/lr_fhss_mac.c **** {
 336:Middlewares/Third_Party/SubGHz_Phy/radio_driver/lr_fhss_mac.c ****     digest->nb_bits = lr_fhss_get_bit_and_hop_count( params, payload_length, &digest->nb_hops );
 337:Middlewares/Third_Party/SubGHz_Phy/radio_driver/lr_fhss_mac.c **** 
 338:Middlewares/Third_Party/SubGHz_Phy/radio_driver/lr_fhss_mac.c ****     digest->nb_bytes = ( digest->nb_bits + 8 - 1 ) / 8;
 339:Middlewares/Third_Party/SubGHz_Phy/radio_driver/lr_fhss_mac.c ****     if( params->enable_hopping )
 340:Middlewares/Third_Party/SubGHz_Phy/radio_driver/lr_fhss_mac.c ****     {
 341:Middlewares/Third_Party/SubGHz_Phy/radio_driver/lr_fhss_mac.c ****         digest->nb_hops = digest->nb_hops;
 342:Middlewares/Third_Party/SubGHz_Phy/radio_driver/lr_fhss_mac.c ****     }
 343:Middlewares/Third_Party/SubGHz_Phy/radio_driver/lr_fhss_mac.c ****     else
 344:Middlewares/Third_Party/SubGHz_Phy/radio_driver/lr_fhss_mac.c ****     {
 345:Middlewares/Third_Party/SubGHz_Phy/radio_driver/lr_fhss_mac.c ****         digest->nb_hops = 1;
 346:Middlewares/Third_Party/SubGHz_Phy/radio_driver/lr_fhss_mac.c ****     }
 347:Middlewares/Third_Party/SubGHz_Phy/radio_driver/lr_fhss_mac.c **** }
 348:Middlewares/Third_Party/SubGHz_Phy/radio_driver/lr_fhss_mac.c **** 
 349:Middlewares/Third_Party/SubGHz_Phy/radio_driver/lr_fhss_mac.c **** radio_status_t lr_fhss_get_hop_params( const lr_fhss_v1_params_t *params, lr_fhss_hop_params_t *hop
 350:Middlewares/Third_Party/SubGHz_Phy/radio_driver/lr_fhss_mac.c ****                                        uint16_t *initial_state, uint16_t hop_sequence_id )
 351:Middlewares/Third_Party/SubGHz_Phy/radio_driver/lr_fhss_mac.c **** {
 352:Middlewares/Third_Party/SubGHz_Phy/radio_driver/lr_fhss_mac.c ****     uint32_t channel_count = lr_fhss_channel_count[params->bw];
 353:Middlewares/Third_Party/SubGHz_Phy/radio_driver/lr_fhss_mac.c **** 
 354:Middlewares/Third_Party/SubGHz_Phy/radio_driver/lr_fhss_mac.c ****     if( params->grid == LR_FHSS_V1_GRID_3906_HZ )
 355:Middlewares/Third_Party/SubGHz_Phy/radio_driver/lr_fhss_mac.c ****     {
 356:Middlewares/Third_Party/SubGHz_Phy/radio_driver/lr_fhss_mac.c ****         hop_params->n_grid = channel_count / 8;
 357:Middlewares/Third_Party/SubGHz_Phy/radio_driver/lr_fhss_mac.c ****     }
 358:Middlewares/Third_Party/SubGHz_Phy/radio_driver/lr_fhss_mac.c ****     else
 359:Middlewares/Third_Party/SubGHz_Phy/radio_driver/lr_fhss_mac.c ****     {
 360:Middlewares/Third_Party/SubGHz_Phy/radio_driver/lr_fhss_mac.c ****         hop_params->n_grid = channel_count / 52;
 361:Middlewares/Third_Party/SubGHz_Phy/radio_driver/lr_fhss_mac.c ****     }
 362:Middlewares/Third_Party/SubGHz_Phy/radio_driver/lr_fhss_mac.c **** 
 363:Middlewares/Third_Party/SubGHz_Phy/radio_driver/lr_fhss_mac.c ****     switch( hop_params->n_grid )
 364:Middlewares/Third_Party/SubGHz_Phy/radio_driver/lr_fhss_mac.c ****     {
 365:Middlewares/Third_Party/SubGHz_Phy/radio_driver/lr_fhss_mac.c ****     case 10:
 366:Middlewares/Third_Party/SubGHz_Phy/radio_driver/lr_fhss_mac.c ****     case 22:
 367:Middlewares/Third_Party/SubGHz_Phy/radio_driver/lr_fhss_mac.c ****     case 28:
 368:Middlewares/Third_Party/SubGHz_Phy/radio_driver/lr_fhss_mac.c ****     case 30:
 369:Middlewares/Third_Party/SubGHz_Phy/radio_driver/lr_fhss_mac.c ****     case 35:
 370:Middlewares/Third_Party/SubGHz_Phy/radio_driver/lr_fhss_mac.c ****     case 47:
 371:Middlewares/Third_Party/SubGHz_Phy/radio_driver/lr_fhss_mac.c ****     {
 372:Middlewares/Third_Party/SubGHz_Phy/radio_driver/lr_fhss_mac.c ****         *initial_state          = 6;
 373:Middlewares/Third_Party/SubGHz_Phy/radio_driver/lr_fhss_mac.c ****         hop_params->polynomial  = lr_fhss_lfsr_poly1[hop_sequence_id >> 6];
 374:Middlewares/Third_Party/SubGHz_Phy/radio_driver/lr_fhss_mac.c ****         hop_params->xoring_seed = hop_sequence_id & 0x3F;
ARM GAS  /tmp/ccvq1YAY.s 			page 8


 375:Middlewares/Third_Party/SubGHz_Phy/radio_driver/lr_fhss_mac.c ****         if( hop_sequence_id >= 384 )
 376:Middlewares/Third_Party/SubGHz_Phy/radio_driver/lr_fhss_mac.c ****         {
 377:Middlewares/Third_Party/SubGHz_Phy/radio_driver/lr_fhss_mac.c ****             return RADIO_STATUS_ERROR;
 378:Middlewares/Third_Party/SubGHz_Phy/radio_driver/lr_fhss_mac.c ****         }
 379:Middlewares/Third_Party/SubGHz_Phy/radio_driver/lr_fhss_mac.c ****         break;
 380:Middlewares/Third_Party/SubGHz_Phy/radio_driver/lr_fhss_mac.c ****     }
 381:Middlewares/Third_Party/SubGHz_Phy/radio_driver/lr_fhss_mac.c ****     case 60:
 382:Middlewares/Third_Party/SubGHz_Phy/radio_driver/lr_fhss_mac.c ****     case 62:
 383:Middlewares/Third_Party/SubGHz_Phy/radio_driver/lr_fhss_mac.c ****     {
 384:Middlewares/Third_Party/SubGHz_Phy/radio_driver/lr_fhss_mac.c ****         *initial_state          = 56;
 385:Middlewares/Third_Party/SubGHz_Phy/radio_driver/lr_fhss_mac.c ****         hop_params->polynomial  = lr_fhss_lfsr_poly1[hop_sequence_id >> 6];
 386:Middlewares/Third_Party/SubGHz_Phy/radio_driver/lr_fhss_mac.c ****         hop_params->xoring_seed = hop_sequence_id & 0x3F;
 387:Middlewares/Third_Party/SubGHz_Phy/radio_driver/lr_fhss_mac.c ****         if( hop_sequence_id >= 384 )
 388:Middlewares/Third_Party/SubGHz_Phy/radio_driver/lr_fhss_mac.c ****         {
 389:Middlewares/Third_Party/SubGHz_Phy/radio_driver/lr_fhss_mac.c ****             return RADIO_STATUS_ERROR;
 390:Middlewares/Third_Party/SubGHz_Phy/radio_driver/lr_fhss_mac.c ****         }
 391:Middlewares/Third_Party/SubGHz_Phy/radio_driver/lr_fhss_mac.c ****         break;
 392:Middlewares/Third_Party/SubGHz_Phy/radio_driver/lr_fhss_mac.c ****     }
 393:Middlewares/Third_Party/SubGHz_Phy/radio_driver/lr_fhss_mac.c ****     case 86:
 394:Middlewares/Third_Party/SubGHz_Phy/radio_driver/lr_fhss_mac.c ****     case 99:
 395:Middlewares/Third_Party/SubGHz_Phy/radio_driver/lr_fhss_mac.c ****     {
 396:Middlewares/Third_Party/SubGHz_Phy/radio_driver/lr_fhss_mac.c ****         *initial_state          = 6;
 397:Middlewares/Third_Party/SubGHz_Phy/radio_driver/lr_fhss_mac.c ****         hop_params->polynomial  = lr_fhss_lfsr_poly2[hop_sequence_id >> 7];
 398:Middlewares/Third_Party/SubGHz_Phy/radio_driver/lr_fhss_mac.c ****         hop_params->xoring_seed = hop_sequence_id & 0x7F;
 399:Middlewares/Third_Party/SubGHz_Phy/radio_driver/lr_fhss_mac.c ****         break;
 400:Middlewares/Third_Party/SubGHz_Phy/radio_driver/lr_fhss_mac.c ****     }
 401:Middlewares/Third_Party/SubGHz_Phy/radio_driver/lr_fhss_mac.c ****     case 185:
 402:Middlewares/Third_Party/SubGHz_Phy/radio_driver/lr_fhss_mac.c ****     case 198:
 403:Middlewares/Third_Party/SubGHz_Phy/radio_driver/lr_fhss_mac.c ****     {
 404:Middlewares/Third_Party/SubGHz_Phy/radio_driver/lr_fhss_mac.c ****         *initial_state          = 6;
 405:Middlewares/Third_Party/SubGHz_Phy/radio_driver/lr_fhss_mac.c ****         hop_params->polynomial  = lr_fhss_lfsr_poly3[hop_sequence_id >> 8];
 406:Middlewares/Third_Party/SubGHz_Phy/radio_driver/lr_fhss_mac.c ****         hop_params->xoring_seed = hop_sequence_id & 0xFF;
 407:Middlewares/Third_Party/SubGHz_Phy/radio_driver/lr_fhss_mac.c ****         break;
 408:Middlewares/Third_Party/SubGHz_Phy/radio_driver/lr_fhss_mac.c ****     }
 409:Middlewares/Third_Party/SubGHz_Phy/radio_driver/lr_fhss_mac.c ****     case 390:
 410:Middlewares/Third_Party/SubGHz_Phy/radio_driver/lr_fhss_mac.c ****     case 403:
 411:Middlewares/Third_Party/SubGHz_Phy/radio_driver/lr_fhss_mac.c ****     {
 412:Middlewares/Third_Party/SubGHz_Phy/radio_driver/lr_fhss_mac.c ****         *initial_state          = 6;
 413:Middlewares/Third_Party/SubGHz_Phy/radio_driver/lr_fhss_mac.c ****         hop_params->polynomial  = 264;
 414:Middlewares/Third_Party/SubGHz_Phy/radio_driver/lr_fhss_mac.c ****         hop_params->xoring_seed = hop_sequence_id;
 415:Middlewares/Third_Party/SubGHz_Phy/radio_driver/lr_fhss_mac.c ****         break;
 416:Middlewares/Third_Party/SubGHz_Phy/radio_driver/lr_fhss_mac.c ****     }
 417:Middlewares/Third_Party/SubGHz_Phy/radio_driver/lr_fhss_mac.c ****     default:
 418:Middlewares/Third_Party/SubGHz_Phy/radio_driver/lr_fhss_mac.c ****         return RADIO_STATUS_ERROR;
 419:Middlewares/Third_Party/SubGHz_Phy/radio_driver/lr_fhss_mac.c ****     }
 420:Middlewares/Third_Party/SubGHz_Phy/radio_driver/lr_fhss_mac.c **** 
 421:Middlewares/Third_Party/SubGHz_Phy/radio_driver/lr_fhss_mac.c ****     hop_params->hop_sequence_id = hop_sequence_id;
 422:Middlewares/Third_Party/SubGHz_Phy/radio_driver/lr_fhss_mac.c **** 
 423:Middlewares/Third_Party/SubGHz_Phy/radio_driver/lr_fhss_mac.c ****     return RADIO_STATUS_OK;
 424:Middlewares/Third_Party/SubGHz_Phy/radio_driver/lr_fhss_mac.c **** }
 425:Middlewares/Third_Party/SubGHz_Phy/radio_driver/lr_fhss_mac.c **** 
 426:Middlewares/Third_Party/SubGHz_Phy/radio_driver/lr_fhss_mac.c **** uint16_t lr_fhss_get_next_state( uint16_t *lfsr_state, const lr_fhss_hop_params_t *hop_params )
 427:Middlewares/Third_Party/SubGHz_Phy/radio_driver/lr_fhss_mac.c **** {
 428:Middlewares/Third_Party/SubGHz_Phy/radio_driver/lr_fhss_mac.c ****     uint16_t hop;
 429:Middlewares/Third_Party/SubGHz_Phy/radio_driver/lr_fhss_mac.c **** 
 430:Middlewares/Third_Party/SubGHz_Phy/radio_driver/lr_fhss_mac.c ****     do
 431:Middlewares/Third_Party/SubGHz_Phy/radio_driver/lr_fhss_mac.c ****     {
ARM GAS  /tmp/ccvq1YAY.s 			page 9


 432:Middlewares/Third_Party/SubGHz_Phy/radio_driver/lr_fhss_mac.c ****         uint16_t lsb = *lfsr_state & 1;
 433:Middlewares/Third_Party/SubGHz_Phy/radio_driver/lr_fhss_mac.c ****         *lfsr_state >>= 1;
 434:Middlewares/Third_Party/SubGHz_Phy/radio_driver/lr_fhss_mac.c ****         if( lsb )
 435:Middlewares/Third_Party/SubGHz_Phy/radio_driver/lr_fhss_mac.c ****         {
 436:Middlewares/Third_Party/SubGHz_Phy/radio_driver/lr_fhss_mac.c ****             *lfsr_state ^= hop_params->polynomial;
 437:Middlewares/Third_Party/SubGHz_Phy/radio_driver/lr_fhss_mac.c ****         }
 438:Middlewares/Third_Party/SubGHz_Phy/radio_driver/lr_fhss_mac.c ****         hop = hop_params->xoring_seed;
 439:Middlewares/Third_Party/SubGHz_Phy/radio_driver/lr_fhss_mac.c ****         if( hop != *lfsr_state )
 440:Middlewares/Third_Party/SubGHz_Phy/radio_driver/lr_fhss_mac.c ****         {
 441:Middlewares/Third_Party/SubGHz_Phy/radio_driver/lr_fhss_mac.c ****             hop ^= *lfsr_state;
 442:Middlewares/Third_Party/SubGHz_Phy/radio_driver/lr_fhss_mac.c ****         }
 443:Middlewares/Third_Party/SubGHz_Phy/radio_driver/lr_fhss_mac.c ****     } while( hop > hop_params->n_grid );
 444:Middlewares/Third_Party/SubGHz_Phy/radio_driver/lr_fhss_mac.c **** 
 445:Middlewares/Third_Party/SubGHz_Phy/radio_driver/lr_fhss_mac.c ****     return hop - 1;
 446:Middlewares/Third_Party/SubGHz_Phy/radio_driver/lr_fhss_mac.c **** }
 447:Middlewares/Third_Party/SubGHz_Phy/radio_driver/lr_fhss_mac.c **** 
 448:Middlewares/Third_Party/SubGHz_Phy/radio_driver/lr_fhss_mac.c **** int16_t lr_fhss_get_next_freq_in_grid( uint16_t *lfsr_state, const lr_fhss_hop_params_t *hop_params
 449:Middlewares/Third_Party/SubGHz_Phy/radio_driver/lr_fhss_mac.c ****                                        const lr_fhss_v1_params_t *params )
 450:Middlewares/Third_Party/SubGHz_Phy/radio_driver/lr_fhss_mac.c **** {
 451:Middlewares/Third_Party/SubGHz_Phy/radio_driver/lr_fhss_mac.c ****     uint16_t n_i;
 452:Middlewares/Third_Party/SubGHz_Phy/radio_driver/lr_fhss_mac.c **** 
 453:Middlewares/Third_Party/SubGHz_Phy/radio_driver/lr_fhss_mac.c ****     if( params->enable_hopping )
 454:Middlewares/Third_Party/SubGHz_Phy/radio_driver/lr_fhss_mac.c ****     {
 455:Middlewares/Third_Party/SubGHz_Phy/radio_driver/lr_fhss_mac.c ****         n_i = lr_fhss_get_next_state( lfsr_state, hop_params );
 456:Middlewares/Third_Party/SubGHz_Phy/radio_driver/lr_fhss_mac.c ****     }
 457:Middlewares/Third_Party/SubGHz_Phy/radio_driver/lr_fhss_mac.c ****     else
 458:Middlewares/Third_Party/SubGHz_Phy/radio_driver/lr_fhss_mac.c ****     {
 459:Middlewares/Third_Party/SubGHz_Phy/radio_driver/lr_fhss_mac.c ****         n_i = hop_params->hop_sequence_id % hop_params->n_grid;
 460:Middlewares/Third_Party/SubGHz_Phy/radio_driver/lr_fhss_mac.c ****     }
 461:Middlewares/Third_Party/SubGHz_Phy/radio_driver/lr_fhss_mac.c **** 
 462:Middlewares/Third_Party/SubGHz_Phy/radio_driver/lr_fhss_mac.c ****     if( n_i < ( hop_params->n_grid >> 1 ) )
 463:Middlewares/Third_Party/SubGHz_Phy/radio_driver/lr_fhss_mac.c ****     {
 464:Middlewares/Third_Party/SubGHz_Phy/radio_driver/lr_fhss_mac.c ****         return n_i;
 465:Middlewares/Third_Party/SubGHz_Phy/radio_driver/lr_fhss_mac.c ****     }
 466:Middlewares/Third_Party/SubGHz_Phy/radio_driver/lr_fhss_mac.c ****     else
 467:Middlewares/Third_Party/SubGHz_Phy/radio_driver/lr_fhss_mac.c ****     {
 468:Middlewares/Third_Party/SubGHz_Phy/radio_driver/lr_fhss_mac.c ****         return n_i - hop_params->n_grid;
 469:Middlewares/Third_Party/SubGHz_Phy/radio_driver/lr_fhss_mac.c ****     }
 470:Middlewares/Third_Party/SubGHz_Phy/radio_driver/lr_fhss_mac.c **** }
 471:Middlewares/Third_Party/SubGHz_Phy/radio_driver/lr_fhss_mac.c **** 
 472:Middlewares/Third_Party/SubGHz_Phy/radio_driver/lr_fhss_mac.c **** /**************************** Build LR-FHSS Frame *************************************************
 473:Middlewares/Third_Party/SubGHz_Phy/radio_driver/lr_fhss_mac.c ****   *    Core of the LR-FHSS frame generator                                                         
 474:Middlewares/Third_Party/SubGHz_Phy/radio_driver/lr_fhss_mac.c ****   *                                                                                                
 475:Middlewares/Third_Party/SubGHz_Phy/radio_driver/lr_fhss_mac.c ****   * In |---------|  |-----|  |-----------------|  |-------|  |------------|  |---------------------
 476:Middlewares/Third_Party/SubGHz_Phy/radio_driver/lr_fhss_mac.c ****   **---|Whitening|--|CRC16|--|Outer Code + CRC8|--|Viterbi|--|Interleaving|--|Sync+header+crc Heade
 477:Middlewares/Third_Party/SubGHz_Phy/radio_driver/lr_fhss_mac.c ****   *    |---------|  |-----|  |-----------------|--|-------|  |------------|  |---------------------
 478:Middlewares/Third_Party/SubGHz_Phy/radio_driver/lr_fhss_mac.c ****   *                                                                                                
 479:Middlewares/Third_Party/SubGHz_Phy/radio_driver/lr_fhss_mac.c ****   *************************************************************************************************
 480:Middlewares/Third_Party/SubGHz_Phy/radio_driver/lr_fhss_mac.c **** uint16_t lr_fhss_build_frame( const lr_fhss_v1_params_t *params, uint16_t hop_sequence_id, const ui
 481:Middlewares/Third_Party/SubGHz_Phy/radio_driver/lr_fhss_mac.c ****                               uint16_t data_in_bytecount, uint8_t *data_out )
 482:Middlewares/Third_Party/SubGHz_Phy/radio_driver/lr_fhss_mac.c **** {
 483:Middlewares/Third_Party/SubGHz_Phy/radio_driver/lr_fhss_mac.c ****     uint8_t data_out_tmp[LR_FHSS_MAX_TMP_BUF_BYTES] = { 0 };
 484:Middlewares/Third_Party/SubGHz_Phy/radio_driver/lr_fhss_mac.c **** 
 485:Middlewares/Third_Party/SubGHz_Phy/radio_driver/lr_fhss_mac.c ****     lr_fhss_payload_whitening( data_in, data_in_bytecount, data_out );
 486:Middlewares/Third_Party/SubGHz_Phy/radio_driver/lr_fhss_mac.c ****     uint16_t payload_crc = lr_fhss_payload_crc16( data_out, data_in_bytecount );
 487:Middlewares/Third_Party/SubGHz_Phy/radio_driver/lr_fhss_mac.c **** 
 488:Middlewares/Third_Party/SubGHz_Phy/radio_driver/lr_fhss_mac.c ****     data_out[data_in_bytecount]     = ( payload_crc >> 8 ) & 0xFF;
ARM GAS  /tmp/ccvq1YAY.s 			page 10


 489:Middlewares/Third_Party/SubGHz_Phy/radio_driver/lr_fhss_mac.c ****     data_out[data_in_bytecount + 1] = payload_crc & 0xFF;
 490:Middlewares/Third_Party/SubGHz_Phy/radio_driver/lr_fhss_mac.c ****     data_out[data_in_bytecount + 2] = 0;
 491:Middlewares/Third_Party/SubGHz_Phy/radio_driver/lr_fhss_mac.c **** 
 492:Middlewares/Third_Party/SubGHz_Phy/radio_driver/lr_fhss_mac.c ****     // the 1/3 encoded bytes can go up to LR_FHSS_MAX_TMP_BUF_BYTES temporarily, before puncturing 
 493:Middlewares/Third_Party/SubGHz_Phy/radio_driver/lr_fhss_mac.c ****     uint16_t nb_bits =
 494:Middlewares/Third_Party/SubGHz_Phy/radio_driver/lr_fhss_mac.c ****         lr_fhss_convolution_encode_viterbi_1_3( data_out, 8 * ( data_in_bytecount + 2 ) + 6, data_o
 495:Middlewares/Third_Party/SubGHz_Phy/radio_driver/lr_fhss_mac.c **** 
 496:Middlewares/Third_Party/SubGHz_Phy/radio_driver/lr_fhss_mac.c ****     // Avoid putting random stack data into payload
 497:Middlewares/Third_Party/SubGHz_Phy/radio_driver/lr_fhss_mac.c ****     memset( data_out, 0, LR_FHSS_MAX_PHY_PAYLOAD_BYTES );
 498:Middlewares/Third_Party/SubGHz_Phy/radio_driver/lr_fhss_mac.c **** 
 499:Middlewares/Third_Party/SubGHz_Phy/radio_driver/lr_fhss_mac.c ****     if( params->cr != LR_FHSS_V1_CR_1_3 )
 500:Middlewares/Third_Party/SubGHz_Phy/radio_driver/lr_fhss_mac.c ****     {
 501:Middlewares/Third_Party/SubGHz_Phy/radio_driver/lr_fhss_mac.c ****         // this assumes first matrix values are always the same, which is the case
 502:Middlewares/Third_Party/SubGHz_Phy/radio_driver/lr_fhss_mac.c ****         uint32_t matrix_index = 0;
 503:Middlewares/Third_Party/SubGHz_Phy/radio_driver/lr_fhss_mac.c ****         uint8_t  matrix[15]   = { 1, 1, 0, 0, 1, 0, 1, 0, 0, 0, 1, 0, 1, 0, 0 };
 504:Middlewares/Third_Party/SubGHz_Phy/radio_driver/lr_fhss_mac.c ****         uint8_t  matrix_len   = 0;
 505:Middlewares/Third_Party/SubGHz_Phy/radio_driver/lr_fhss_mac.c ****         switch( params->cr )
 506:Middlewares/Third_Party/SubGHz_Phy/radio_driver/lr_fhss_mac.c ****         {
 507:Middlewares/Third_Party/SubGHz_Phy/radio_driver/lr_fhss_mac.c ****         case LR_FHSS_V1_CR_5_6:
 508:Middlewares/Third_Party/SubGHz_Phy/radio_driver/lr_fhss_mac.c ****             matrix_len = 15;
 509:Middlewares/Third_Party/SubGHz_Phy/radio_driver/lr_fhss_mac.c ****             break;
 510:Middlewares/Third_Party/SubGHz_Phy/radio_driver/lr_fhss_mac.c ****         case LR_FHSS_V1_CR_2_3:
 511:Middlewares/Third_Party/SubGHz_Phy/radio_driver/lr_fhss_mac.c ****             matrix_len = 6;
 512:Middlewares/Third_Party/SubGHz_Phy/radio_driver/lr_fhss_mac.c ****             break;
 513:Middlewares/Third_Party/SubGHz_Phy/radio_driver/lr_fhss_mac.c ****         case LR_FHSS_V1_CR_1_2:
 514:Middlewares/Third_Party/SubGHz_Phy/radio_driver/lr_fhss_mac.c ****             matrix_len = 3;
 515:Middlewares/Third_Party/SubGHz_Phy/radio_driver/lr_fhss_mac.c ****             break;
 516:Middlewares/Third_Party/SubGHz_Phy/radio_driver/lr_fhss_mac.c ****         default:
 517:Middlewares/Third_Party/SubGHz_Phy/radio_driver/lr_fhss_mac.c ****             // LR_FHSS_V1_CR_1_3 is excluded from this code block
 518:Middlewares/Third_Party/SubGHz_Phy/radio_driver/lr_fhss_mac.c ****             break;
 519:Middlewares/Third_Party/SubGHz_Phy/radio_driver/lr_fhss_mac.c ****         }
 520:Middlewares/Third_Party/SubGHz_Phy/radio_driver/lr_fhss_mac.c **** 
 521:Middlewares/Third_Party/SubGHz_Phy/radio_driver/lr_fhss_mac.c ****         uint32_t j = 0;
 522:Middlewares/Third_Party/SubGHz_Phy/radio_driver/lr_fhss_mac.c ****         for( uint32_t i = 0; i < nb_bits; i++ )
 523:Middlewares/Third_Party/SubGHz_Phy/radio_driver/lr_fhss_mac.c ****         {
 524:Middlewares/Third_Party/SubGHz_Phy/radio_driver/lr_fhss_mac.c ****             if( matrix[matrix_index] )
 525:Middlewares/Third_Party/SubGHz_Phy/radio_driver/lr_fhss_mac.c ****             {
 526:Middlewares/Third_Party/SubGHz_Phy/radio_driver/lr_fhss_mac.c ****                 lr_fhss_set_bit_in_byte_vector( data_out, j++, lr_fhss_extract_bit_in_byte_vector( 
 527:Middlewares/Third_Party/SubGHz_Phy/radio_driver/lr_fhss_mac.c ****             }
 528:Middlewares/Third_Party/SubGHz_Phy/radio_driver/lr_fhss_mac.c ****             if( ++matrix_index == matrix_len )
 529:Middlewares/Third_Party/SubGHz_Phy/radio_driver/lr_fhss_mac.c ****             {
 530:Middlewares/Third_Party/SubGHz_Phy/radio_driver/lr_fhss_mac.c ****                 matrix_index = 0;
 531:Middlewares/Third_Party/SubGHz_Phy/radio_driver/lr_fhss_mac.c ****             }
 532:Middlewares/Third_Party/SubGHz_Phy/radio_driver/lr_fhss_mac.c ****         }
 533:Middlewares/Third_Party/SubGHz_Phy/radio_driver/lr_fhss_mac.c ****         nb_bits = j;
 534:Middlewares/Third_Party/SubGHz_Phy/radio_driver/lr_fhss_mac.c **** 
 535:Middlewares/Third_Party/SubGHz_Phy/radio_driver/lr_fhss_mac.c ****         memcpy( data_out_tmp, data_out, ( nb_bits + 7 ) / 8 );
 536:Middlewares/Third_Party/SubGHz_Phy/radio_driver/lr_fhss_mac.c ****     }
 537:Middlewares/Third_Party/SubGHz_Phy/radio_driver/lr_fhss_mac.c **** 
 538:Middlewares/Third_Party/SubGHz_Phy/radio_driver/lr_fhss_mac.c ****     // Interleave directly to data_out
 539:Middlewares/Third_Party/SubGHz_Phy/radio_driver/lr_fhss_mac.c ****     nb_bits =
 540:Middlewares/Third_Party/SubGHz_Phy/radio_driver/lr_fhss_mac.c ****         lr_fhss_payload_interleaving( data_out_tmp, nb_bits, data_out, LR_FHSS_HEADER_BITS * params
 541:Middlewares/Third_Party/SubGHz_Phy/radio_driver/lr_fhss_mac.c **** 
 542:Middlewares/Third_Party/SubGHz_Phy/radio_driver/lr_fhss_mac.c ****     // Build the header
 543:Middlewares/Third_Party/SubGHz_Phy/radio_driver/lr_fhss_mac.c ****     uint8_t raw_header[LR_FHSS_HALF_HDR_BYTES];
 544:Middlewares/Third_Party/SubGHz_Phy/radio_driver/lr_fhss_mac.c ****     lr_fhss_raw_header( params, hop_sequence_id, data_in_bytecount, raw_header );
 545:Middlewares/Third_Party/SubGHz_Phy/radio_driver/lr_fhss_mac.c **** 
ARM GAS  /tmp/ccvq1YAY.s 			page 11


 546:Middlewares/Third_Party/SubGHz_Phy/radio_driver/lr_fhss_mac.c ****     uint16_t header_offset = 0;
 547:Middlewares/Third_Party/SubGHz_Phy/radio_driver/lr_fhss_mac.c ****     for( uint32_t i = 0; i < params->header_count; i++ )
 548:Middlewares/Third_Party/SubGHz_Phy/radio_driver/lr_fhss_mac.c ****     {
 549:Middlewares/Third_Party/SubGHz_Phy/radio_driver/lr_fhss_mac.c ****         // Insert appropriate index into header
 550:Middlewares/Third_Party/SubGHz_Phy/radio_driver/lr_fhss_mac.c ****         lr_fhss_store_header_sync_word_index( params->header_count - i - 1, raw_header );
 551:Middlewares/Third_Party/SubGHz_Phy/radio_driver/lr_fhss_mac.c ****         raw_header[4] = lr_fhss_header_crc8( raw_header, 4 );
 552:Middlewares/Third_Party/SubGHz_Phy/radio_driver/lr_fhss_mac.c **** 
 553:Middlewares/Third_Party/SubGHz_Phy/radio_driver/lr_fhss_mac.c ****         // Convolutional encode
 554:Middlewares/Third_Party/SubGHz_Phy/radio_driver/lr_fhss_mac.c ****         uint8_t coded_header[LR_FHSS_HDR_BYTES] = { 0 };
 555:Middlewares/Third_Party/SubGHz_Phy/radio_driver/lr_fhss_mac.c ****         lr_fhss_convolution_encode_viterbi_1_2( raw_header, LR_FHSS_HALF_HDR_BITS, 1, coded_header 
 556:Middlewares/Third_Party/SubGHz_Phy/radio_driver/lr_fhss_mac.c **** 
 557:Middlewares/Third_Party/SubGHz_Phy/radio_driver/lr_fhss_mac.c ****         // Header guard bits
 558:Middlewares/Third_Party/SubGHz_Phy/radio_driver/lr_fhss_mac.c ****         lr_fhss_set_bit_in_byte_vector( data_out, header_offset + 0, 0 );
 559:Middlewares/Third_Party/SubGHz_Phy/radio_driver/lr_fhss_mac.c ****         lr_fhss_set_bit_in_byte_vector( data_out, header_offset + 1, 0 );
 560:Middlewares/Third_Party/SubGHz_Phy/radio_driver/lr_fhss_mac.c **** 
 561:Middlewares/Third_Party/SubGHz_Phy/radio_driver/lr_fhss_mac.c ****         // Interleave the header directly to the physical payload buffer
 562:Middlewares/Third_Party/SubGHz_Phy/radio_driver/lr_fhss_mac.c ****         for( uint32_t j = 0; j < LR_FHSS_HALF_HDR_BITS; j++ )
 563:Middlewares/Third_Party/SubGHz_Phy/radio_driver/lr_fhss_mac.c ****         {
 564:Middlewares/Third_Party/SubGHz_Phy/radio_driver/lr_fhss_mac.c ****             lr_fhss_set_bit_in_byte_vector(
 565:Middlewares/Third_Party/SubGHz_Phy/radio_driver/lr_fhss_mac.c ****                 data_out, header_offset + 2 + j,
 566:Middlewares/Third_Party/SubGHz_Phy/radio_driver/lr_fhss_mac.c ****                 lr_fhss_extract_bit_in_byte_vector( coded_header, lr_fhss_header_interleaver_minus_
 567:Middlewares/Third_Party/SubGHz_Phy/radio_driver/lr_fhss_mac.c ****         }
 568:Middlewares/Third_Party/SubGHz_Phy/radio_driver/lr_fhss_mac.c ****         for( uint32_t j = 0; j < LR_FHSS_HALF_HDR_BITS; j++ )
 569:Middlewares/Third_Party/SubGHz_Phy/radio_driver/lr_fhss_mac.c ****         {
 570:Middlewares/Third_Party/SubGHz_Phy/radio_driver/lr_fhss_mac.c ****             lr_fhss_set_bit_in_byte_vector(
 571:Middlewares/Third_Party/SubGHz_Phy/radio_driver/lr_fhss_mac.c ****                 data_out, header_offset + 2 + LR_FHSS_HALF_HDR_BITS + LR_FHSS_SYNC_WORD_BITS + j,
 572:Middlewares/Third_Party/SubGHz_Phy/radio_driver/lr_fhss_mac.c ****                 lr_fhss_extract_bit_in_byte_vector( coded_header,
 573:Middlewares/Third_Party/SubGHz_Phy/radio_driver/lr_fhss_mac.c ****                                                     lr_fhss_header_interleaver_minus_one[LR_FHSS_HA
 574:Middlewares/Third_Party/SubGHz_Phy/radio_driver/lr_fhss_mac.c ****         }
 575:Middlewares/Third_Party/SubGHz_Phy/radio_driver/lr_fhss_mac.c **** 
 576:Middlewares/Third_Party/SubGHz_Phy/radio_driver/lr_fhss_mac.c ****         // Copy the sync word to the physical payload buffer
 577:Middlewares/Third_Party/SubGHz_Phy/radio_driver/lr_fhss_mac.c ****         for( uint32_t j = 0; j < LR_FHSS_SYNC_WORD_BITS; j++ )
 578:Middlewares/Third_Party/SubGHz_Phy/radio_driver/lr_fhss_mac.c ****         {
 579:Middlewares/Third_Party/SubGHz_Phy/radio_driver/lr_fhss_mac.c ****             lr_fhss_set_bit_in_byte_vector( data_out, header_offset + 2 + LR_FHSS_HALF_HDR_BITS + j
 580:Middlewares/Third_Party/SubGHz_Phy/radio_driver/lr_fhss_mac.c ****                                             lr_fhss_extract_bit_in_byte_vector( params->sync_word, 
 581:Middlewares/Third_Party/SubGHz_Phy/radio_driver/lr_fhss_mac.c ****         }
 582:Middlewares/Third_Party/SubGHz_Phy/radio_driver/lr_fhss_mac.c **** 
 583:Middlewares/Third_Party/SubGHz_Phy/radio_driver/lr_fhss_mac.c ****         header_offset += LR_FHSS_HEADER_BITS;
 584:Middlewares/Third_Party/SubGHz_Phy/radio_driver/lr_fhss_mac.c ****     }
 585:Middlewares/Third_Party/SubGHz_Phy/radio_driver/lr_fhss_mac.c **** 
 586:Middlewares/Third_Party/SubGHz_Phy/radio_driver/lr_fhss_mac.c ****     return ( header_offset + nb_bits + 7 ) / 8;
 587:Middlewares/Third_Party/SubGHz_Phy/radio_driver/lr_fhss_mac.c **** }
 588:Middlewares/Third_Party/SubGHz_Phy/radio_driver/lr_fhss_mac.c **** 
 589:Middlewares/Third_Party/SubGHz_Phy/radio_driver/lr_fhss_mac.c **** uint32_t lr_fhss_get_time_on_air_in_ms( const lr_fhss_v1_params_t *params, uint16_t payload_length 
 590:Middlewares/Third_Party/SubGHz_Phy/radio_driver/lr_fhss_mac.c **** {
 591:Middlewares/Third_Party/SubGHz_Phy/radio_driver/lr_fhss_mac.c ****     // Multiply by 1000 / 488.28125, or equivalently 256/125, rounding up
 592:Middlewares/Third_Party/SubGHz_Phy/radio_driver/lr_fhss_mac.c ****     return ( ( lr_fhss_get_time_on_air_numerator( params, payload_length ) << 8 ) + 124 ) / 125;
 593:Middlewares/Third_Party/SubGHz_Phy/radio_driver/lr_fhss_mac.c **** }
 594:Middlewares/Third_Party/SubGHz_Phy/radio_driver/lr_fhss_mac.c **** 
 595:Middlewares/Third_Party/SubGHz_Phy/radio_driver/lr_fhss_mac.c **** /*
 596:Middlewares/Third_Party/SubGHz_Phy/radio_driver/lr_fhss_mac.c ****   * -----------------------------------------------------------------------------
 597:Middlewares/Third_Party/SubGHz_Phy/radio_driver/lr_fhss_mac.c ****   * --- PRIVATE FUNCTION DEFINITIONS --------------------------------------------
 598:Middlewares/Third_Party/SubGHz_Phy/radio_driver/lr_fhss_mac.c ****   */
 599:Middlewares/Third_Party/SubGHz_Phy/radio_driver/lr_fhss_mac.c **** 
 600:Middlewares/Third_Party/SubGHz_Phy/radio_driver/lr_fhss_mac.c **** STATIC uint16_t lr_fhss_payload_crc16( const uint8_t *data_in, uint16_t data_in_bytecount )
 601:Middlewares/Third_Party/SubGHz_Phy/radio_driver/lr_fhss_mac.c **** {
  27              		.loc 1 601 1 view -0
ARM GAS  /tmp/ccvq1YAY.s 			page 12


  28              		.cfi_startproc
  29              		@ args = 0, pretend = 0, frame = 0
  30              		@ frame_needed = 0, uses_anonymous_args = 0
  31              		@ link register save eliminated.
  32              		.loc 1 601 1 is_stmt 0 view .LVU1
  33 0000 8446     		mov	ip, r0
 602:Middlewares/Third_Party/SubGHz_Phy/radio_driver/lr_fhss_mac.c ****     uint16_t crc16 = 65535;
  34              		.loc 1 602 5 is_stmt 1 view .LVU2
  35              	.LVL1:
 603:Middlewares/Third_Party/SubGHz_Phy/radio_driver/lr_fhss_mac.c ****     uint8_t  pos   = 0;
  36              		.loc 1 603 5 view .LVU3
 604:Middlewares/Third_Party/SubGHz_Phy/radio_driver/lr_fhss_mac.c ****     for( uint16_t k = 0; k < data_in_bytecount; k++ )
  37              		.loc 1 604 5 view .LVU4
  38              	.LBB4:
  39              		.loc 1 604 10 view .LVU5
  40              		.loc 1 604 19 is_stmt 0 view .LVU6
  41 0002 0023     		movs	r3, #0
  42              	.LBE4:
 602:Middlewares/Third_Party/SubGHz_Phy/radio_driver/lr_fhss_mac.c ****     uint16_t crc16 = 65535;
  43              		.loc 1 602 14 view .LVU7
  44 0004 4FF6FF70 		movw	r0, #65535
  45              	.LVL2:
  46              	.LBB5:
  47              		.loc 1 604 28 is_stmt 1 discriminator 1 view .LVU8
  48 0008 8B42     		cmp	r3, r1
  49 000a 10D2     		bcs	.L8
  50              	.LBE5:
 601:Middlewares/Third_Party/SubGHz_Phy/radio_driver/lr_fhss_mac.c ****     uint16_t crc16 = 65535;
  51              		.loc 1 601 1 is_stmt 0 view .LVU9
  52 000c 10B4     		push	{r4}
  53              		.cfi_def_cfa_offset 4
  54              		.cfi_offset 4, -4
  55              	.LVL3:
  56              	.L3:
  57              	.LBB6:
 605:Middlewares/Third_Party/SubGHz_Phy/radio_driver/lr_fhss_mac.c ****     {
 606:Middlewares/Third_Party/SubGHz_Phy/radio_driver/lr_fhss_mac.c ****         pos   = ( ( crc16 >> 8 ) ^ data_in[k] );
  58              		.loc 1 606 9 is_stmt 1 view .LVU10
  59              		.loc 1 606 43 is_stmt 0 view .LVU11
  60 000e 1CF80320 		ldrb	r2, [ip, r3]	@ zero_extendqisi2
  61              		.loc 1 606 15 view .LVU12
  62 0012 82EA1022 		eor	r2, r2, r0, lsr #8
  63              	.LVL4:
 607:Middlewares/Third_Party/SubGHz_Phy/radio_driver/lr_fhss_mac.c ****         crc16 = ( crc16 << 8 ) ^ lr_fhss_payload_crc16_lut[pos];
  64              		.loc 1 607 9 is_stmt 1 view .LVU13
  65              		.loc 1 607 59 is_stmt 0 view .LVU14
  66 0016 064C     		ldr	r4, .L9
  67 0018 34F81220 		ldrh	r2, [r4, r2, lsl #1]
  68              	.LVL5:
  69              		.loc 1 607 59 view .LVU15
  70 001c 0002     		lsls	r0, r0, #8
  71              	.LVL6:
  72              		.loc 1 607 59 view .LVU16
  73 001e 80B2     		uxth	r0, r0
  74              		.loc 1 607 15 view .LVU17
  75 0020 5040     		eors	r0, r0, r2
  76              	.LVL7:
ARM GAS  /tmp/ccvq1YAY.s 			page 13


 604:Middlewares/Third_Party/SubGHz_Phy/radio_driver/lr_fhss_mac.c ****     {
  77              		.loc 1 604 50 is_stmt 1 discriminator 3 view .LVU18
  78 0022 0133     		adds	r3, r3, #1
  79              	.LVL8:
 604:Middlewares/Third_Party/SubGHz_Phy/radio_driver/lr_fhss_mac.c ****     {
  80              		.loc 1 604 50 is_stmt 0 discriminator 3 view .LVU19
  81 0024 9BB2     		uxth	r3, r3
  82              	.LVL9:
 604:Middlewares/Third_Party/SubGHz_Phy/radio_driver/lr_fhss_mac.c ****     {
  83              		.loc 1 604 28 is_stmt 1 discriminator 1 view .LVU20
  84 0026 8B42     		cmp	r3, r1
  85 0028 F1D3     		bcc	.L3
  86              	.LBE6:
 608:Middlewares/Third_Party/SubGHz_Phy/radio_driver/lr_fhss_mac.c ****     }
 609:Middlewares/Third_Party/SubGHz_Phy/radio_driver/lr_fhss_mac.c ****     return crc16;
  87              		.loc 1 609 5 view .LVU21
 610:Middlewares/Third_Party/SubGHz_Phy/radio_driver/lr_fhss_mac.c **** }
  88              		.loc 1 610 1 is_stmt 0 view .LVU22
  89 002a 10BC     		pop	{r4}
  90              		.cfi_restore 4
  91              		.cfi_def_cfa_offset 0
  92 002c 7047     		bx	lr
  93              	.LVL10:
  94              	.L8:
  95              		.loc 1 610 1 view .LVU23
  96 002e 7047     		bx	lr
  97              	.L10:
  98              		.align	2
  99              	.L9:
 100 0030 00000000 		.word	lr_fhss_payload_crc16_lut
 101              		.cfi_endproc
 102              	.LFE8:
 104              		.section	.text.lr_fhss_header_crc8,"ax",%progbits
 105              		.align	1
 106              		.syntax unified
 107              		.thumb
 108              		.thumb_func
 110              	lr_fhss_header_crc8:
 111              	.LVL11:
 112              	.LFB9:
 611:Middlewares/Third_Party/SubGHz_Phy/radio_driver/lr_fhss_mac.c **** 
 612:Middlewares/Third_Party/SubGHz_Phy/radio_driver/lr_fhss_mac.c **** STATIC uint8_t lr_fhss_header_crc8( const uint8_t *data_in, uint16_t data_in_bytecount )
 613:Middlewares/Third_Party/SubGHz_Phy/radio_driver/lr_fhss_mac.c **** {
 113              		.loc 1 613 1 is_stmt 1 view -0
 114              		.cfi_startproc
 115              		@ args = 0, pretend = 0, frame = 0
 116              		@ frame_needed = 0, uses_anonymous_args = 0
 117              		@ link register save eliminated.
 118              		.loc 1 613 1 is_stmt 0 view .LVU25
 119 0000 8446     		mov	ip, r0
 614:Middlewares/Third_Party/SubGHz_Phy/radio_driver/lr_fhss_mac.c ****     uint8_t crc8 = 255;
 120              		.loc 1 614 5 is_stmt 1 view .LVU26
 121              	.LVL12:
 615:Middlewares/Third_Party/SubGHz_Phy/radio_driver/lr_fhss_mac.c ****     for( uint16_t k = 0; k < data_in_bytecount; k++ )
 122              		.loc 1 615 5 view .LVU27
 123              	.LBB7:
 124              		.loc 1 615 10 view .LVU28
ARM GAS  /tmp/ccvq1YAY.s 			page 14


 125              		.loc 1 615 19 is_stmt 0 view .LVU29
 126 0002 0023     		movs	r3, #0
 127              	.LBE7:
 614:Middlewares/Third_Party/SubGHz_Phy/radio_driver/lr_fhss_mac.c ****     uint8_t crc8 = 255;
 128              		.loc 1 614 13 view .LVU30
 129 0004 FF20     		movs	r0, #255
 130              	.LVL13:
 131              	.LBB9:
 132              		.loc 1 615 28 is_stmt 1 discriminator 1 view .LVU31
 133 0006 8B42     		cmp	r3, r1
 134 0008 0BD2     		bcs	.L18
 135              	.LBE9:
 613:Middlewares/Third_Party/SubGHz_Phy/radio_driver/lr_fhss_mac.c ****     uint8_t crc8 = 255;
 136              		.loc 1 613 1 is_stmt 0 view .LVU32
 137 000a 10B4     		push	{r4}
 138              		.cfi_def_cfa_offset 4
 139              		.cfi_offset 4, -4
 140              	.L13:
 141              	.LBB10:
 142              	.LBB8:
 616:Middlewares/Third_Party/SubGHz_Phy/radio_driver/lr_fhss_mac.c ****     {
 617:Middlewares/Third_Party/SubGHz_Phy/radio_driver/lr_fhss_mac.c ****         uint8_t pos = ( crc8 ^ data_in[k] );
 143              		.loc 1 617 9 is_stmt 1 view .LVU33
 144              		.loc 1 617 39 is_stmt 0 view .LVU34
 145 000c 1CF80320 		ldrb	r2, [ip, r3]	@ zero_extendqisi2
 146              		.loc 1 617 17 view .LVU35
 147 0010 4240     		eors	r2, r2, r0
 148              	.LVL14:
 618:Middlewares/Third_Party/SubGHz_Phy/radio_driver/lr_fhss_mac.c ****         crc8        = lr_fhss_header_crc8_lut[pos];
 149              		.loc 1 618 9 is_stmt 1 view .LVU36
 150              		.loc 1 618 21 is_stmt 0 view .LVU37
 151 0012 044C     		ldr	r4, .L19
 152 0014 A05C     		ldrb	r0, [r4, r2]	@ zero_extendqisi2
 153              	.LVL15:
 154              		.loc 1 618 21 view .LVU38
 155              	.LBE8:
 615:Middlewares/Third_Party/SubGHz_Phy/radio_driver/lr_fhss_mac.c ****     {
 156              		.loc 1 615 50 is_stmt 1 discriminator 3 view .LVU39
 157 0016 0133     		adds	r3, r3, #1
 158              	.LVL16:
 615:Middlewares/Third_Party/SubGHz_Phy/radio_driver/lr_fhss_mac.c ****     {
 159              		.loc 1 615 50 is_stmt 0 discriminator 3 view .LVU40
 160 0018 9BB2     		uxth	r3, r3
 161              	.LVL17:
 615:Middlewares/Third_Party/SubGHz_Phy/radio_driver/lr_fhss_mac.c ****     {
 162              		.loc 1 615 28 is_stmt 1 discriminator 1 view .LVU41
 163 001a 8B42     		cmp	r3, r1
 164 001c F6D3     		bcc	.L13
 165              	.LBE10:
 619:Middlewares/Third_Party/SubGHz_Phy/radio_driver/lr_fhss_mac.c ****     }
 620:Middlewares/Third_Party/SubGHz_Phy/radio_driver/lr_fhss_mac.c **** 
 621:Middlewares/Third_Party/SubGHz_Phy/radio_driver/lr_fhss_mac.c ****     return crc8;
 166              		.loc 1 621 5 view .LVU42
 622:Middlewares/Third_Party/SubGHz_Phy/radio_driver/lr_fhss_mac.c **** }
 167              		.loc 1 622 1 is_stmt 0 view .LVU43
 168 001e 10BC     		pop	{r4}
 169              		.cfi_restore 4
ARM GAS  /tmp/ccvq1YAY.s 			page 15


 170              		.cfi_def_cfa_offset 0
 171 0020 7047     		bx	lr
 172              	.LVL18:
 173              	.L18:
 174              		.loc 1 622 1 view .LVU44
 175 0022 7047     		bx	lr
 176              	.L20:
 177              		.align	2
 178              	.L19:
 179 0024 00000000 		.word	lr_fhss_header_crc8_lut
 180              		.cfi_endproc
 181              	.LFE9:
 183              		.section	.text.lr_fhss_payload_whitening,"ax",%progbits
 184              		.align	1
 185              		.syntax unified
 186              		.thumb
 187              		.thumb_func
 189              	lr_fhss_payload_whitening:
 190              	.LVL19:
 191              	.LFB10:
 623:Middlewares/Third_Party/SubGHz_Phy/radio_driver/lr_fhss_mac.c **** 
 624:Middlewares/Third_Party/SubGHz_Phy/radio_driver/lr_fhss_mac.c **** STATIC void lr_fhss_payload_whitening( const uint8_t *data_in, uint16_t data_in_bytecount, uint8_t 
 625:Middlewares/Third_Party/SubGHz_Phy/radio_driver/lr_fhss_mac.c **** {
 192              		.loc 1 625 1 is_stmt 1 view -0
 193              		.cfi_startproc
 194              		@ args = 0, pretend = 0, frame = 0
 195              		@ frame_needed = 0, uses_anonymous_args = 0
 196              		.loc 1 625 1 is_stmt 0 view .LVU46
 197 0000 10B5     		push	{r4, lr}
 198              		.cfi_def_cfa_offset 8
 199              		.cfi_offset 4, -8
 200              		.cfi_offset 14, -4
 626:Middlewares/Third_Party/SubGHz_Phy/radio_driver/lr_fhss_mac.c ****     uint8_t lfsr = 0xFF;
 201              		.loc 1 626 5 is_stmt 1 view .LVU47
 202              	.LVL20:
 627:Middlewares/Third_Party/SubGHz_Phy/radio_driver/lr_fhss_mac.c **** 
 628:Middlewares/Third_Party/SubGHz_Phy/radio_driver/lr_fhss_mac.c ****     for( uint8_t index = 0; index < data_in_bytecount; index++ )
 203              		.loc 1 628 5 view .LVU48
 204              	.LBB11:
 205              		.loc 1 628 10 view .LVU49
 206              		.loc 1 628 18 is_stmt 0 view .LVU50
 207 0002 4FF0000C 		mov	ip, #0
 208              	.LBE11:
 626:Middlewares/Third_Party/SubGHz_Phy/radio_driver/lr_fhss_mac.c ****     uint8_t lfsr = 0xFF;
 209              		.loc 1 626 13 view .LVU51
 210 0006 4FF0FF0E 		mov	lr, #255
 211              	.LBB13:
 212              		.loc 1 628 5 view .LVU52
 213 000a 1AE0     		b	.L22
 214              	.LVL21:
 215              	.L23:
 216              	.LBB12:
 629:Middlewares/Third_Party/SubGHz_Phy/radio_driver/lr_fhss_mac.c ****     {
 630:Middlewares/Third_Party/SubGHz_Phy/radio_driver/lr_fhss_mac.c ****         uint8_t u       = data_in[index] ^ lfsr;
 217              		.loc 1 630 9 is_stmt 1 view .LVU53
 218              		.loc 1 630 34 is_stmt 0 view .LVU54
 219 000c 10F80C30 		ldrb	r3, [r0, ip]	@ zero_extendqisi2
ARM GAS  /tmp/ccvq1YAY.s 			page 16


 220              		.loc 1 630 17 view .LVU55
 221 0010 83EA0E03 		eor	r3, r3, lr
 222              	.LVL22:
 631:Middlewares/Third_Party/SubGHz_Phy/radio_driver/lr_fhss_mac.c ****         data_out[index] = ( ( u & 0x0F ) << 4 ) | ( ( u & 0xF0 ) >> 4 );
 223              		.loc 1 631 9 is_stmt 1 view .LVU56
 224              		.loc 1 631 49 is_stmt 0 view .LVU57
 225 0014 1C01     		lsls	r4, r3, #4
 226 0016 44EA1313 		orr	r3, r4, r3, lsr #4
 227              	.LVL23:
 228              		.loc 1 631 25 view .LVU58
 229 001a 02F80C30 		strb	r3, [r2, ip]
 230              	.LVL24:
 632:Middlewares/Third_Party/SubGHz_Phy/radio_driver/lr_fhss_mac.c ****         lfsr =
 231              		.loc 1 632 9 is_stmt 1 view .LVU59
 633:Middlewares/Third_Party/SubGHz_Phy/radio_driver/lr_fhss_mac.c ****             ( lfsr << 1 ) | ( ( ( lfsr & 0x80 ) >> 7 ) ^
 634:Middlewares/Third_Party/SubGHz_Phy/radio_driver/lr_fhss_mac.c ****                               ( ( ( lfsr & 0x20 ) >> 5 ) ^ ( ( ( lfsr & 0x10 ) >> 4 ) ^ ( ( lfsr & 
 232              		.loc 1 634 106 is_stmt 0 view .LVU60
 233 001e 4FEAEE03 		asr	r3, lr, #3
 234              		.loc 1 634 87 view .LVU61
 235 0022 83EA2E13 		eor	r3, r3, lr, asr #4
 236              		.loc 1 634 58 view .LVU62
 237 0026 83EA6E13 		eor	r3, r3, lr, asr #5
 238 002a 03F00103 		and	r3, r3, #1
 633:Middlewares/Third_Party/SubGHz_Phy/radio_driver/lr_fhss_mac.c ****             ( lfsr << 1 ) | ( ( ( lfsr & 0x80 ) >> 7 ) ^
 239              		.loc 1 633 56 view .LVU63
 240 002e 83EADE13 		eor	r3, r3, lr, lsr #7
 633:Middlewares/Third_Party/SubGHz_Phy/radio_driver/lr_fhss_mac.c ****             ( lfsr << 1 ) | ( ( ( lfsr & 0x80 ) >> 7 ) ^
 241              		.loc 1 633 27 view .LVU64
 242 0032 43EA4E03 		orr	r3, r3, lr, lsl #1
 632:Middlewares/Third_Party/SubGHz_Phy/radio_driver/lr_fhss_mac.c ****         lfsr =
 243              		.loc 1 632 14 view .LVU65
 244 0036 5FFA83FE 		uxtb	lr, r3
 245              	.LVL25:
 632:Middlewares/Third_Party/SubGHz_Phy/radio_driver/lr_fhss_mac.c ****         lfsr =
 246              		.loc 1 632 14 view .LVU66
 247              	.LBE12:
 628:Middlewares/Third_Party/SubGHz_Phy/radio_driver/lr_fhss_mac.c ****     {
 248              		.loc 1 628 61 is_stmt 1 discriminator 3 view .LVU67
 249 003a 0CF1010C 		add	ip, ip, #1
 250              	.LVL26:
 628:Middlewares/Third_Party/SubGHz_Phy/radio_driver/lr_fhss_mac.c ****     {
 251              		.loc 1 628 61 is_stmt 0 discriminator 3 view .LVU68
 252 003e 5FFA8CFC 		uxtb	ip, ip
 253              	.LVL27:
 254              	.L22:
 628:Middlewares/Third_Party/SubGHz_Phy/radio_driver/lr_fhss_mac.c ****     {
 255              		.loc 1 628 35 is_stmt 1 discriminator 1 view .LVU69
 256 0042 8C45     		cmp	ip, r1
 257 0044 E2D3     		bcc	.L23
 258              	.LBE13:
 635:Middlewares/Third_Party/SubGHz_Phy/radio_driver/lr_fhss_mac.c ****     }
 636:Middlewares/Third_Party/SubGHz_Phy/radio_driver/lr_fhss_mac.c **** }
 259              		.loc 1 636 1 is_stmt 0 view .LVU70
 260 0046 10BD     		pop	{r4, pc}
 261              		.cfi_endproc
 262              	.LFE10:
 264              		.section	.text.lr_fhss_extract_bit_in_byte_vector,"ax",%progbits
ARM GAS  /tmp/ccvq1YAY.s 			page 17


 265              		.align	1
 266              		.syntax unified
 267              		.thumb
 268              		.thumb_func
 270              	lr_fhss_extract_bit_in_byte_vector:
 271              	.LVL28:
 272              	.LFB11:
 637:Middlewares/Third_Party/SubGHz_Phy/radio_driver/lr_fhss_mac.c **** 
 638:Middlewares/Third_Party/SubGHz_Phy/radio_driver/lr_fhss_mac.c **** STATIC uint8_t lr_fhss_extract_bit_in_byte_vector( const uint8_t *data_in, uint32_t bit_number )
 639:Middlewares/Third_Party/SubGHz_Phy/radio_driver/lr_fhss_mac.c **** {
 273              		.loc 1 639 1 is_stmt 1 view -0
 274              		.cfi_startproc
 275              		@ args = 0, pretend = 0, frame = 0
 276              		@ frame_needed = 0, uses_anonymous_args = 0
 277              		@ link register save eliminated.
 640:Middlewares/Third_Party/SubGHz_Phy/radio_driver/lr_fhss_mac.c ****     uint32_t index   = bit_number >> 3;
 278              		.loc 1 640 5 view .LVU72
 279              		.loc 1 640 14 is_stmt 0 view .LVU73
 280 0000 CB08     		lsrs	r3, r1, #3
 281              	.LVL29:
 641:Middlewares/Third_Party/SubGHz_Phy/radio_driver/lr_fhss_mac.c ****     uint8_t  bit_pos = 7 - ( bit_number % 8 );
 282              		.loc 1 641 5 is_stmt 1 view .LVU74
 283              		.loc 1 641 26 is_stmt 0 view .LVU75
 284 0002 C943     		mvns	r1, r1
 285              	.LVL30:
 286              		.loc 1 641 14 view .LVU76
 287 0004 01F00701 		and	r1, r1, #7
 288              	.LVL31:
 642:Middlewares/Third_Party/SubGHz_Phy/radio_driver/lr_fhss_mac.c **** 
 643:Middlewares/Third_Party/SubGHz_Phy/radio_driver/lr_fhss_mac.c ****     if( data_in[index] & ( 1 << bit_pos ) )
 289              		.loc 1 643 5 is_stmt 1 view .LVU77
 290              		.loc 1 643 16 is_stmt 0 view .LVU78
 291 0008 C35C     		ldrb	r3, [r0, r3]	@ zero_extendqisi2
 292              	.LVL32:
 293              		.loc 1 643 9 view .LVU79
 294 000a 0B41     		asrs	r3, r3, r1
 295              		.loc 1 643 7 view .LVU80
 296 000c 13F0010F 		tst	r3, #1
 297 0010 01D1     		bne	.L27
 644:Middlewares/Third_Party/SubGHz_Phy/radio_driver/lr_fhss_mac.c ****     {
 645:Middlewares/Third_Party/SubGHz_Phy/radio_driver/lr_fhss_mac.c ****         return 1;
 646:Middlewares/Third_Party/SubGHz_Phy/radio_driver/lr_fhss_mac.c ****     }
 647:Middlewares/Third_Party/SubGHz_Phy/radio_driver/lr_fhss_mac.c ****     return 0;
 298              		.loc 1 647 12 view .LVU81
 299 0012 0020     		movs	r0, #0
 300              	.LVL33:
 301              		.loc 1 647 12 view .LVU82
 302 0014 7047     		bx	lr
 303              	.LVL34:
 304              	.L27:
 645:Middlewares/Third_Party/SubGHz_Phy/radio_driver/lr_fhss_mac.c ****     }
 305              		.loc 1 645 16 view .LVU83
 306 0016 0120     		movs	r0, #1
 307              	.LVL35:
 648:Middlewares/Third_Party/SubGHz_Phy/radio_driver/lr_fhss_mac.c **** }
 308              		.loc 1 648 1 view .LVU84
 309 0018 7047     		bx	lr
ARM GAS  /tmp/ccvq1YAY.s 			page 18


 310              		.cfi_endproc
 311              	.LFE11:
 313              		.section	.text.lr_fhss_set_bit_in_byte_vector,"ax",%progbits
 314              		.align	1
 315              		.syntax unified
 316              		.thumb
 317              		.thumb_func
 319              	lr_fhss_set_bit_in_byte_vector:
 320              	.LVL36:
 321              	.LFB12:
 649:Middlewares/Third_Party/SubGHz_Phy/radio_driver/lr_fhss_mac.c **** 
 650:Middlewares/Third_Party/SubGHz_Phy/radio_driver/lr_fhss_mac.c **** STATIC void lr_fhss_set_bit_in_byte_vector( uint8_t *vector, uint32_t bit_number, uint8_t bit_value
 651:Middlewares/Third_Party/SubGHz_Phy/radio_driver/lr_fhss_mac.c **** {
 322              		.loc 1 651 1 is_stmt 1 view -0
 323              		.cfi_startproc
 324              		@ args = 0, pretend = 0, frame = 0
 325              		@ frame_needed = 0, uses_anonymous_args = 0
 326              		.loc 1 651 1 is_stmt 0 view .LVU86
 327 0000 00B5     		push	{lr}
 328              		.cfi_def_cfa_offset 4
 329              		.cfi_offset 14, -4
 652:Middlewares/Third_Party/SubGHz_Phy/radio_driver/lr_fhss_mac.c ****     uint32_t index   = bit_number >> 3;
 330              		.loc 1 652 5 is_stmt 1 view .LVU87
 331              		.loc 1 652 14 is_stmt 0 view .LVU88
 332 0002 4FEAD10E 		lsr	lr, r1, #3
 333              	.LVL37:
 653:Middlewares/Third_Party/SubGHz_Phy/radio_driver/lr_fhss_mac.c ****     uint8_t  bit_pos = 7 - ( bit_number % 8 );
 334              		.loc 1 653 5 is_stmt 1 view .LVU89
 335              		.loc 1 653 26 is_stmt 0 view .LVU90
 336 0006 C943     		mvns	r1, r1
 337              	.LVL38:
 338              		.loc 1 653 14 view .LVU91
 339 0008 01F00701 		and	r1, r1, #7
 340              	.LVL39:
 654:Middlewares/Third_Party/SubGHz_Phy/radio_driver/lr_fhss_mac.c **** 
 655:Middlewares/Third_Party/SubGHz_Phy/radio_driver/lr_fhss_mac.c ****     vector[index] = ( vector[index] & ( 0xff - ( 1 << bit_pos ) ) ) | ( bit_value << bit_pos );
 341              		.loc 1 655 5 is_stmt 1 view .LVU92
 342              		.loc 1 655 29 is_stmt 0 view .LVU93
 343 000c 10F90EC0 		ldrsb	ip, [r0, lr]
 344              		.loc 1 655 52 view .LVU94
 345 0010 0123     		movs	r3, #1
 346 0012 8B40     		lsls	r3, r3, r1
 347              		.loc 1 655 46 view .LVU95
 348 0014 DB43     		mvns	r3, r3
 349 0016 5BB2     		sxtb	r3, r3
 350              		.loc 1 655 37 view .LVU96
 351 0018 0CEA0303 		and	r3, ip, r3
 352              		.loc 1 655 83 view .LVU97
 353 001c 8A40     		lsls	r2, r2, r1
 354              	.LVL40:
 355              		.loc 1 655 69 view .LVU98
 356 001e 1343     		orrs	r3, r3, r2
 357              		.loc 1 655 19 view .LVU99
 358 0020 00F80E30 		strb	r3, [r0, lr]
 656:Middlewares/Third_Party/SubGHz_Phy/radio_driver/lr_fhss_mac.c **** }
 359              		.loc 1 656 1 view .LVU100
 360 0024 5DF804FB 		ldr	pc, [sp], #4
ARM GAS  /tmp/ccvq1YAY.s 			page 19


 361              		.cfi_endproc
 362              	.LFE12:
 364              		.section	.text.lr_fhss_convolution_encode_viterbi_1_2_base,"ax",%progbits
 365              		.align	1
 366              		.syntax unified
 367              		.thumb
 368              		.thumb_func
 370              	lr_fhss_convolution_encode_viterbi_1_2_base:
 371              	.LVL41:
 372              	.LFB13:
 657:Middlewares/Third_Party/SubGHz_Phy/radio_driver/lr_fhss_mac.c **** 
 658:Middlewares/Third_Party/SubGHz_Phy/radio_driver/lr_fhss_mac.c **** STATIC uint16_t lr_fhss_convolution_encode_viterbi_1_2_base( uint8_t *encod_state, const uint8_t *d
 659:Middlewares/Third_Party/SubGHz_Phy/radio_driver/lr_fhss_mac.c ****                                                              uint16_t data_in_bitcount, uint8_t *da
 660:Middlewares/Third_Party/SubGHz_Phy/radio_driver/lr_fhss_mac.c **** {
 373              		.loc 1 660 1 is_stmt 1 view -0
 374              		.cfi_startproc
 375              		@ args = 0, pretend = 0, frame = 0
 376              		@ frame_needed = 0, uses_anonymous_args = 0
 377              		.loc 1 660 1 is_stmt 0 view .LVU102
 378 0000 2DE9F047 		push	{r4, r5, r6, r7, r8, r9, r10, lr}
 379              		.cfi_def_cfa_offset 32
 380              		.cfi_offset 4, -32
 381              		.cfi_offset 5, -28
 382              		.cfi_offset 6, -24
 383              		.cfi_offset 7, -20
 384              		.cfi_offset 8, -16
 385              		.cfi_offset 9, -12
 386              		.cfi_offset 10, -8
 387              		.cfi_offset 14, -4
 388 0004 0746     		mov	r7, r0
 389 0006 8A46     		mov	r10, r1
 390 0008 9146     		mov	r9, r2
 391 000a 9846     		mov	r8, r3
 661:Middlewares/Third_Party/SubGHz_Phy/radio_driver/lr_fhss_mac.c ****     uint8_t  g1g0;
 392              		.loc 1 661 5 is_stmt 1 view .LVU103
 662:Middlewares/Third_Party/SubGHz_Phy/radio_driver/lr_fhss_mac.c ****     uint8_t  cur_bit;
 393              		.loc 1 662 5 view .LVU104
 663:Middlewares/Third_Party/SubGHz_Phy/radio_driver/lr_fhss_mac.c ****     uint16_t ind_bit;
 394              		.loc 1 663 5 view .LVU105
 664:Middlewares/Third_Party/SubGHz_Phy/radio_driver/lr_fhss_mac.c ****     uint16_t data_out_bitcount = 0;
 395              		.loc 1 664 5 view .LVU106
 396              	.LVL42:
 665:Middlewares/Third_Party/SubGHz_Phy/radio_driver/lr_fhss_mac.c ****     uint16_t bin_out_16        = 0;
 397              		.loc 1 665 5 view .LVU107
 666:Middlewares/Third_Party/SubGHz_Phy/radio_driver/lr_fhss_mac.c **** 
 667:Middlewares/Third_Party/SubGHz_Phy/radio_driver/lr_fhss_mac.c ****     for( ind_bit = 0; ind_bit < data_in_bitcount; ind_bit++ )
 398              		.loc 1 667 5 view .LVU108
 665:Middlewares/Third_Party/SubGHz_Phy/radio_driver/lr_fhss_mac.c ****     uint16_t bin_out_16        = 0;
 399              		.loc 1 665 14 is_stmt 0 view .LVU109
 400 000c 0026     		movs	r6, #0
 664:Middlewares/Third_Party/SubGHz_Phy/radio_driver/lr_fhss_mac.c ****     uint16_t bin_out_16        = 0;
 401              		.loc 1 664 14 view .LVU110
 402 000e 3546     		mov	r5, r6
 403              		.loc 1 667 18 view .LVU111
 404 0010 3446     		mov	r4, r6
 405              		.loc 1 667 5 view .LVU112
 406 0012 03E0     		b	.L31
ARM GAS  /tmp/ccvq1YAY.s 			page 20


 407              	.LVL43:
 408              	.L32:
 668:Middlewares/Third_Party/SubGHz_Phy/radio_driver/lr_fhss_mac.c ****     {
 669:Middlewares/Third_Party/SubGHz_Phy/radio_driver/lr_fhss_mac.c ****         cur_bit      = lr_fhss_extract_bit_in_byte_vector( data_in, ind_bit );
 670:Middlewares/Third_Party/SubGHz_Phy/radio_driver/lr_fhss_mac.c ****         g1g0         = lr_fhss_viterbi_1_2_table[*encod_state][cur_bit];
 671:Middlewares/Third_Party/SubGHz_Phy/radio_driver/lr_fhss_mac.c ****         *encod_state = ( *encod_state * 2 + cur_bit ) % 16;
 672:Middlewares/Third_Party/SubGHz_Phy/radio_driver/lr_fhss_mac.c ****         bin_out_16 |= ( g1g0 << ( ( 7 - ( ind_bit % 8 ) ) << 1 ) );
 673:Middlewares/Third_Party/SubGHz_Phy/radio_driver/lr_fhss_mac.c ****         if( ind_bit % 8 == 7 )
 674:Middlewares/Third_Party/SubGHz_Phy/radio_driver/lr_fhss_mac.c ****         {
 675:Middlewares/Third_Party/SubGHz_Phy/radio_driver/lr_fhss_mac.c ****             *data_out++ = ( uint8_t )( bin_out_16 >> 8 );
 676:Middlewares/Third_Party/SubGHz_Phy/radio_driver/lr_fhss_mac.c ****             *data_out++ = ( uint8_t ) bin_out_16;
 677:Middlewares/Third_Party/SubGHz_Phy/radio_driver/lr_fhss_mac.c ****             bin_out_16  = 0;
 678:Middlewares/Third_Party/SubGHz_Phy/radio_driver/lr_fhss_mac.c ****         }
 679:Middlewares/Third_Party/SubGHz_Phy/radio_driver/lr_fhss_mac.c ****         data_out_bitcount += 2;
 409              		.loc 1 679 9 is_stmt 1 view .LVU113
 410              		.loc 1 679 27 is_stmt 0 view .LVU114
 411 0014 0235     		adds	r5, r5, #2
 412              	.LVL44:
 413              		.loc 1 679 27 view .LVU115
 414 0016 ADB2     		uxth	r5, r5
 415              	.LVL45:
 667:Middlewares/Third_Party/SubGHz_Phy/radio_driver/lr_fhss_mac.c ****     {
 416              		.loc 1 667 58 is_stmt 1 discriminator 2 view .LVU116
 417 0018 0134     		adds	r4, r4, #1
 418              	.LVL46:
 667:Middlewares/Third_Party/SubGHz_Phy/radio_driver/lr_fhss_mac.c ****     {
 419              		.loc 1 667 58 is_stmt 0 discriminator 2 view .LVU117
 420 001a A4B2     		uxth	r4, r4
 421              	.LVL47:
 422              	.L31:
 667:Middlewares/Third_Party/SubGHz_Phy/radio_driver/lr_fhss_mac.c ****     {
 423              		.loc 1 667 31 is_stmt 1 discriminator 1 view .LVU118
 424 001c 4C45     		cmp	r4, r9
 425 001e 29D2     		bcs	.L36
 669:Middlewares/Third_Party/SubGHz_Phy/radio_driver/lr_fhss_mac.c ****         g1g0         = lr_fhss_viterbi_1_2_table[*encod_state][cur_bit];
 426              		.loc 1 669 9 view .LVU119
 669:Middlewares/Third_Party/SubGHz_Phy/radio_driver/lr_fhss_mac.c ****         g1g0         = lr_fhss_viterbi_1_2_table[*encod_state][cur_bit];
 427              		.loc 1 669 24 is_stmt 0 view .LVU120
 428 0020 2146     		mov	r1, r4
 429 0022 5046     		mov	r0, r10
 430 0024 FFF7FEFF 		bl	lr_fhss_extract_bit_in_byte_vector
 431              	.LVL48:
 670:Middlewares/Third_Party/SubGHz_Phy/radio_driver/lr_fhss_mac.c ****         *encod_state = ( *encod_state * 2 + cur_bit ) % 16;
 432              		.loc 1 670 9 is_stmt 1 view .LVU121
 670:Middlewares/Third_Party/SubGHz_Phy/radio_driver/lr_fhss_mac.c ****         *encod_state = ( *encod_state * 2 + cur_bit ) % 16;
 433              		.loc 1 670 50 is_stmt 0 view .LVU122
 434 0028 3A78     		ldrb	r2, [r7]	@ zero_extendqisi2
 670:Middlewares/Third_Party/SubGHz_Phy/radio_driver/lr_fhss_mac.c ****         *encod_state = ( *encod_state * 2 + cur_bit ) % 16;
 435              		.loc 1 670 22 view .LVU123
 436 002a 184B     		ldr	r3, .L37
 437 002c 03EB4203 		add	r3, r3, r2, lsl #1
 438 0030 1B5C     		ldrb	r3, [r3, r0]	@ zero_extendqisi2
 439              	.LVL49:
 671:Middlewares/Third_Party/SubGHz_Phy/radio_driver/lr_fhss_mac.c ****         bin_out_16 |= ( g1g0 << ( ( 7 - ( ind_bit % 8 ) ) << 1 ) );
 440              		.loc 1 671 9 is_stmt 1 view .LVU124
 671:Middlewares/Third_Party/SubGHz_Phy/radio_driver/lr_fhss_mac.c ****         bin_out_16 |= ( g1g0 << ( ( 7 - ( ind_bit % 8 ) ) << 1 ) );
 441              		.loc 1 671 43 is_stmt 0 view .LVU125
ARM GAS  /tmp/ccvq1YAY.s 			page 21


 442 0032 00EB420C 		add	ip, r0, r2, lsl #1
 671:Middlewares/Third_Party/SubGHz_Phy/radio_driver/lr_fhss_mac.c ****         bin_out_16 |= ( g1g0 << ( ( 7 - ( ind_bit % 8 ) ) << 1 ) );
 443              		.loc 1 671 55 view .LVU126
 444 0036 DCF10002 		rsbs	r2, ip, #0
 445              	.LVL50:
 671:Middlewares/Third_Party/SubGHz_Phy/radio_driver/lr_fhss_mac.c ****         bin_out_16 |= ( g1g0 << ( ( 7 - ( ind_bit % 8 ) ) << 1 ) );
 446              		.loc 1 671 55 view .LVU127
 447 003a 0CF00F0C 		and	ip, ip, #15
 448 003e 02F00F02 		and	r2, r2, #15
 449 0042 58BF     		it	pl
 450 0044 C2F1000C 		rsbpl	ip, r2, #0
 671:Middlewares/Third_Party/SubGHz_Phy/radio_driver/lr_fhss_mac.c ****         bin_out_16 |= ( g1g0 << ( ( 7 - ( ind_bit % 8 ) ) << 1 ) );
 451              		.loc 1 671 22 view .LVU128
 452 0048 87F800C0 		strb	ip, [r7]
 453              	.LVL51:
 672:Middlewares/Third_Party/SubGHz_Phy/radio_driver/lr_fhss_mac.c ****         if( ind_bit % 8 == 7 )
 454              		.loc 1 672 9 is_stmt 1 view .LVU129
 672:Middlewares/Third_Party/SubGHz_Phy/radio_driver/lr_fhss_mac.c ****         if( ind_bit % 8 == 7 )
 455              		.loc 1 672 39 is_stmt 0 view .LVU130
 456 004c E243     		mvns	r2, r4
 672:Middlewares/Third_Party/SubGHz_Phy/radio_driver/lr_fhss_mac.c ****         if( ind_bit % 8 == 7 )
 457              		.loc 1 672 59 view .LVU131
 458 004e 5200     		lsls	r2, r2, #1
 459 0050 02F00E02 		and	r2, r2, #14
 672:Middlewares/Third_Party/SubGHz_Phy/radio_driver/lr_fhss_mac.c ****         if( ind_bit % 8 == 7 )
 460              		.loc 1 672 30 view .LVU132
 461 0054 9340     		lsls	r3, r3, r2
 672:Middlewares/Third_Party/SubGHz_Phy/radio_driver/lr_fhss_mac.c ****         if( ind_bit % 8 == 7 )
 462              		.loc 1 672 20 view .LVU133
 463 0056 3343     		orrs	r3, r3, r6
 464 0058 9EB2     		uxth	r6, r3
 465              	.LVL52:
 673:Middlewares/Third_Party/SubGHz_Phy/radio_driver/lr_fhss_mac.c ****         {
 466              		.loc 1 673 9 is_stmt 1 view .LVU134
 673:Middlewares/Third_Party/SubGHz_Phy/radio_driver/lr_fhss_mac.c ****         {
 467              		.loc 1 673 25 is_stmt 0 view .LVU135
 468 005a 04F00703 		and	r3, r4, #7
 673:Middlewares/Third_Party/SubGHz_Phy/radio_driver/lr_fhss_mac.c ****         {
 469              		.loc 1 673 11 view .LVU136
 470 005e 072B     		cmp	r3, #7
 471 0060 D8D1     		bne	.L32
 675:Middlewares/Third_Party/SubGHz_Phy/radio_driver/lr_fhss_mac.c ****             *data_out++ = ( uint8_t ) bin_out_16;
 472              		.loc 1 675 13 is_stmt 1 view .LVU137
 473              	.LVL53:
 675:Middlewares/Third_Party/SubGHz_Phy/radio_driver/lr_fhss_mac.c ****             *data_out++ = ( uint8_t ) bin_out_16;
 474              		.loc 1 675 27 is_stmt 0 view .LVU138
 475 0062 320A     		lsrs	r2, r6, #8
 675:Middlewares/Third_Party/SubGHz_Phy/radio_driver/lr_fhss_mac.c ****             *data_out++ = ( uint8_t ) bin_out_16;
 476              		.loc 1 675 25 view .LVU139
 477 0064 4346     		mov	r3, r8
 478 0066 03F8022B 		strb	r2, [r3], #2
 676:Middlewares/Third_Party/SubGHz_Phy/radio_driver/lr_fhss_mac.c ****             bin_out_16  = 0;
 479              		.loc 1 676 13 is_stmt 1 view .LVU140
 480              	.LVL54:
 676:Middlewares/Third_Party/SubGHz_Phy/radio_driver/lr_fhss_mac.c ****             bin_out_16  = 0;
 481              		.loc 1 676 25 is_stmt 0 view .LVU141
 482 006a 88F80160 		strb	r6, [r8, #1]
ARM GAS  /tmp/ccvq1YAY.s 			page 22


 677:Middlewares/Third_Party/SubGHz_Phy/radio_driver/lr_fhss_mac.c ****         }
 483              		.loc 1 677 13 is_stmt 1 view .LVU142
 484              	.LVL55:
 676:Middlewares/Third_Party/SubGHz_Phy/radio_driver/lr_fhss_mac.c ****             bin_out_16  = 0;
 485              		.loc 1 676 22 is_stmt 0 view .LVU143
 486 006e 9846     		mov	r8, r3
 677:Middlewares/Third_Party/SubGHz_Phy/radio_driver/lr_fhss_mac.c ****         }
 487              		.loc 1 677 25 view .LVU144
 488 0070 0026     		movs	r6, #0
 489 0072 CFE7     		b	.L32
 490              	.LVL56:
 491              	.L36:
 680:Middlewares/Third_Party/SubGHz_Phy/radio_driver/lr_fhss_mac.c ****     }
 681:Middlewares/Third_Party/SubGHz_Phy/radio_driver/lr_fhss_mac.c ****     if( ind_bit % 8 )
 492              		.loc 1 681 5 is_stmt 1 view .LVU145
 493              		.loc 1 681 7 is_stmt 0 view .LVU146
 494 0074 14F0070F 		tst	r4, #7
 495 0078 04D0     		beq	.L34
 682:Middlewares/Third_Party/SubGHz_Phy/radio_driver/lr_fhss_mac.c ****     {
 683:Middlewares/Third_Party/SubGHz_Phy/radio_driver/lr_fhss_mac.c ****         *data_out++ = ( uint8_t )( bin_out_16 >> 8 );
 496              		.loc 1 683 9 is_stmt 1 view .LVU147
 497              	.LVL57:
 498              		.loc 1 683 23 is_stmt 0 view .LVU148
 499 007a 330A     		lsrs	r3, r6, #8
 500              		.loc 1 683 21 view .LVU149
 501 007c 88F80030 		strb	r3, [r8]
 684:Middlewares/Third_Party/SubGHz_Phy/radio_driver/lr_fhss_mac.c ****         *data_out++ = ( uint8_t ) bin_out_16;
 502              		.loc 1 684 9 is_stmt 1 view .LVU150
 503              	.LVL58:
 504              		.loc 1 684 21 is_stmt 0 view .LVU151
 505 0080 88F80160 		strb	r6, [r8, #1]
 685:Middlewares/Third_Party/SubGHz_Phy/radio_driver/lr_fhss_mac.c ****         bin_out_16  = 0;
 506              		.loc 1 685 9 is_stmt 1 view .LVU152
 507              	.LVL59:
 508              	.L34:
 686:Middlewares/Third_Party/SubGHz_Phy/radio_driver/lr_fhss_mac.c ****     }
 687:Middlewares/Third_Party/SubGHz_Phy/radio_driver/lr_fhss_mac.c **** 
 688:Middlewares/Third_Party/SubGHz_Phy/radio_driver/lr_fhss_mac.c ****     return data_out_bitcount;
 509              		.loc 1 688 5 view .LVU153
 689:Middlewares/Third_Party/SubGHz_Phy/radio_driver/lr_fhss_mac.c **** }
 510              		.loc 1 689 1 is_stmt 0 view .LVU154
 511 0084 2846     		mov	r0, r5
 512 0086 BDE8F087 		pop	{r4, r5, r6, r7, r8, r9, r10, pc}
 513              	.LVL60:
 514              	.L38:
 515              		.loc 1 689 1 view .LVU155
 516 008a 00BF     		.align	2
 517              	.L37:
 518 008c 00000000 		.word	lr_fhss_viterbi_1_2_table
 519              		.cfi_endproc
 520              	.LFE13:
 522              		.section	.text.lr_fhss_convolution_encode_viterbi_1_3_base,"ax",%progbits
 523              		.align	1
 524              		.syntax unified
 525              		.thumb
 526              		.thumb_func
 528              	lr_fhss_convolution_encode_viterbi_1_3_base:
ARM GAS  /tmp/ccvq1YAY.s 			page 23


 529              	.LVL61:
 530              	.LFB14:
 690:Middlewares/Third_Party/SubGHz_Phy/radio_driver/lr_fhss_mac.c **** 
 691:Middlewares/Third_Party/SubGHz_Phy/radio_driver/lr_fhss_mac.c **** STATIC uint16_t lr_fhss_convolution_encode_viterbi_1_3_base( uint8_t *encod_state, const uint8_t *d
 692:Middlewares/Third_Party/SubGHz_Phy/radio_driver/lr_fhss_mac.c ****                                                              uint16_t data_in_bitcount, uint8_t *da
 693:Middlewares/Third_Party/SubGHz_Phy/radio_driver/lr_fhss_mac.c **** {
 531              		.loc 1 693 1 is_stmt 1 view -0
 532              		.cfi_startproc
 533              		@ args = 0, pretend = 0, frame = 0
 534              		@ frame_needed = 0, uses_anonymous_args = 0
 535              		.loc 1 693 1 is_stmt 0 view .LVU157
 536 0000 2DE9F047 		push	{r4, r5, r6, r7, r8, r9, r10, lr}
 537              		.cfi_def_cfa_offset 32
 538              		.cfi_offset 4, -32
 539              		.cfi_offset 5, -28
 540              		.cfi_offset 6, -24
 541              		.cfi_offset 7, -20
 542              		.cfi_offset 8, -16
 543              		.cfi_offset 9, -12
 544              		.cfi_offset 10, -8
 545              		.cfi_offset 14, -4
 546 0004 0746     		mov	r7, r0
 547 0006 8A46     		mov	r10, r1
 548 0008 9146     		mov	r9, r2
 549 000a 9846     		mov	r8, r3
 694:Middlewares/Third_Party/SubGHz_Phy/radio_driver/lr_fhss_mac.c ****     uint8_t  g1g0;
 550              		.loc 1 694 5 is_stmt 1 view .LVU158
 695:Middlewares/Third_Party/SubGHz_Phy/radio_driver/lr_fhss_mac.c ****     uint8_t  cur_bit;
 551              		.loc 1 695 5 view .LVU159
 696:Middlewares/Third_Party/SubGHz_Phy/radio_driver/lr_fhss_mac.c ****     uint16_t ind_bit;
 552              		.loc 1 696 5 view .LVU160
 697:Middlewares/Third_Party/SubGHz_Phy/radio_driver/lr_fhss_mac.c ****     uint16_t data_out_bitcount = 0;
 553              		.loc 1 697 5 view .LVU161
 554              	.LVL62:
 698:Middlewares/Third_Party/SubGHz_Phy/radio_driver/lr_fhss_mac.c ****     uint32_t bin_out_32        = 0;
 555              		.loc 1 698 5 view .LVU162
 699:Middlewares/Third_Party/SubGHz_Phy/radio_driver/lr_fhss_mac.c **** 
 700:Middlewares/Third_Party/SubGHz_Phy/radio_driver/lr_fhss_mac.c ****     for( ind_bit = 0; ind_bit < data_in_bitcount; ind_bit++ )
 556              		.loc 1 700 5 view .LVU163
 698:Middlewares/Third_Party/SubGHz_Phy/radio_driver/lr_fhss_mac.c ****     uint32_t bin_out_32        = 0;
 557              		.loc 1 698 14 is_stmt 0 view .LVU164
 558 000c 0026     		movs	r6, #0
 697:Middlewares/Third_Party/SubGHz_Phy/radio_driver/lr_fhss_mac.c ****     uint32_t bin_out_32        = 0;
 559              		.loc 1 697 14 view .LVU165
 560 000e 3546     		mov	r5, r6
 561              		.loc 1 700 18 view .LVU166
 562 0010 3446     		mov	r4, r6
 563              		.loc 1 700 5 view .LVU167
 564 0012 03E0     		b	.L40
 565              	.LVL63:
 566              	.L41:
 701:Middlewares/Third_Party/SubGHz_Phy/radio_driver/lr_fhss_mac.c ****     {
 702:Middlewares/Third_Party/SubGHz_Phy/radio_driver/lr_fhss_mac.c ****         cur_bit      = lr_fhss_extract_bit_in_byte_vector( data_in, ind_bit );
 703:Middlewares/Third_Party/SubGHz_Phy/radio_driver/lr_fhss_mac.c ****         g1g0         = lr_fhss_viterbi_1_3_table[*encod_state][cur_bit];
 704:Middlewares/Third_Party/SubGHz_Phy/radio_driver/lr_fhss_mac.c ****         *encod_state = ( *encod_state * 2 + cur_bit ) % 64;
 705:Middlewares/Third_Party/SubGHz_Phy/radio_driver/lr_fhss_mac.c ****         bin_out_32 |= ( g1g0 << ( ( 7 - ( ind_bit % 8 ) ) * 3 ) );
 706:Middlewares/Third_Party/SubGHz_Phy/radio_driver/lr_fhss_mac.c ****         if( ind_bit % 8 == 7 )
ARM GAS  /tmp/ccvq1YAY.s 			page 24


 707:Middlewares/Third_Party/SubGHz_Phy/radio_driver/lr_fhss_mac.c ****         {
 708:Middlewares/Third_Party/SubGHz_Phy/radio_driver/lr_fhss_mac.c ****             *data_out++ = ( uint8_t )( bin_out_32 >> 16 );
 709:Middlewares/Third_Party/SubGHz_Phy/radio_driver/lr_fhss_mac.c ****             *data_out++ = ( uint8_t )( bin_out_32 >> 8 );
 710:Middlewares/Third_Party/SubGHz_Phy/radio_driver/lr_fhss_mac.c ****             *data_out++ = ( uint8_t ) bin_out_32;
 711:Middlewares/Third_Party/SubGHz_Phy/radio_driver/lr_fhss_mac.c ****             bin_out_32  = 0;
 712:Middlewares/Third_Party/SubGHz_Phy/radio_driver/lr_fhss_mac.c ****         }
 713:Middlewares/Third_Party/SubGHz_Phy/radio_driver/lr_fhss_mac.c ****         data_out_bitcount += 3;
 567              		.loc 1 713 9 is_stmt 1 view .LVU168
 568              		.loc 1 713 27 is_stmt 0 view .LVU169
 569 0014 0335     		adds	r5, r5, #3
 570              	.LVL64:
 571              		.loc 1 713 27 view .LVU170
 572 0016 ADB2     		uxth	r5, r5
 573              	.LVL65:
 700:Middlewares/Third_Party/SubGHz_Phy/radio_driver/lr_fhss_mac.c ****     {
 574              		.loc 1 700 58 is_stmt 1 discriminator 2 view .LVU171
 575 0018 0134     		adds	r4, r4, #1
 576              	.LVL66:
 700:Middlewares/Third_Party/SubGHz_Phy/radio_driver/lr_fhss_mac.c ****     {
 577              		.loc 1 700 58 is_stmt 0 discriminator 2 view .LVU172
 578 001a A4B2     		uxth	r4, r4
 579              	.LVL67:
 580              	.L40:
 700:Middlewares/Third_Party/SubGHz_Phy/radio_driver/lr_fhss_mac.c ****     {
 581              		.loc 1 700 31 is_stmt 1 discriminator 1 view .LVU173
 582 001c 4C45     		cmp	r4, r9
 583 001e 2FD2     		bcs	.L45
 702:Middlewares/Third_Party/SubGHz_Phy/radio_driver/lr_fhss_mac.c ****         g1g0         = lr_fhss_viterbi_1_3_table[*encod_state][cur_bit];
 584              		.loc 1 702 9 view .LVU174
 702:Middlewares/Third_Party/SubGHz_Phy/radio_driver/lr_fhss_mac.c ****         g1g0         = lr_fhss_viterbi_1_3_table[*encod_state][cur_bit];
 585              		.loc 1 702 24 is_stmt 0 view .LVU175
 586 0020 2146     		mov	r1, r4
 587 0022 5046     		mov	r0, r10
 588 0024 FFF7FEFF 		bl	lr_fhss_extract_bit_in_byte_vector
 589              	.LVL68:
 703:Middlewares/Third_Party/SubGHz_Phy/radio_driver/lr_fhss_mac.c ****         *encod_state = ( *encod_state * 2 + cur_bit ) % 64;
 590              		.loc 1 703 9 is_stmt 1 view .LVU176
 703:Middlewares/Third_Party/SubGHz_Phy/radio_driver/lr_fhss_mac.c ****         *encod_state = ( *encod_state * 2 + cur_bit ) % 64;
 591              		.loc 1 703 50 is_stmt 0 view .LVU177
 592 0028 3978     		ldrb	r1, [r7]	@ zero_extendqisi2
 703:Middlewares/Third_Party/SubGHz_Phy/radio_driver/lr_fhss_mac.c ****         *encod_state = ( *encod_state * 2 + cur_bit ) % 64;
 593              		.loc 1 703 22 view .LVU178
 594 002a 1D4B     		ldr	r3, .L46
 595 002c 03EB4103 		add	r3, r3, r1, lsl #1
 596 0030 1A5C     		ldrb	r2, [r3, r0]	@ zero_extendqisi2
 597              	.LVL69:
 704:Middlewares/Third_Party/SubGHz_Phy/radio_driver/lr_fhss_mac.c ****         bin_out_32 |= ( g1g0 << ( ( 7 - ( ind_bit % 8 ) ) * 3 ) );
 598              		.loc 1 704 9 is_stmt 1 view .LVU179
 704:Middlewares/Third_Party/SubGHz_Phy/radio_driver/lr_fhss_mac.c ****         bin_out_32 |= ( g1g0 << ( ( 7 - ( ind_bit % 8 ) ) * 3 ) );
 599              		.loc 1 704 43 is_stmt 0 view .LVU180
 600 0032 00EB410C 		add	ip, r0, r1, lsl #1
 704:Middlewares/Third_Party/SubGHz_Phy/radio_driver/lr_fhss_mac.c ****         bin_out_32 |= ( g1g0 << ( ( 7 - ( ind_bit % 8 ) ) * 3 ) );
 601              		.loc 1 704 55 view .LVU181
 602 0036 DCF10003 		rsbs	r3, ip, #0
 603              	.LVL70:
 704:Middlewares/Third_Party/SubGHz_Phy/radio_driver/lr_fhss_mac.c ****         bin_out_32 |= ( g1g0 << ( ( 7 - ( ind_bit % 8 ) ) * 3 ) );
 604              		.loc 1 704 55 view .LVU182
ARM GAS  /tmp/ccvq1YAY.s 			page 25


 605 003a 0CF03F0C 		and	ip, ip, #63
 606 003e 03F03F03 		and	r3, r3, #63
 607 0042 58BF     		it	pl
 608 0044 C3F1000C 		rsbpl	ip, r3, #0
 704:Middlewares/Third_Party/SubGHz_Phy/radio_driver/lr_fhss_mac.c ****         bin_out_32 |= ( g1g0 << ( ( 7 - ( ind_bit % 8 ) ) * 3 ) );
 609              		.loc 1 704 22 view .LVU183
 610 0048 87F800C0 		strb	ip, [r7]
 705:Middlewares/Third_Party/SubGHz_Phy/radio_driver/lr_fhss_mac.c ****         if( ind_bit % 8 == 7 )
 611              		.loc 1 705 9 is_stmt 1 view .LVU184
 705:Middlewares/Third_Party/SubGHz_Phy/radio_driver/lr_fhss_mac.c ****         if( ind_bit % 8 == 7 )
 612              		.loc 1 705 39 is_stmt 0 view .LVU185
 613 004c E343     		mvns	r3, r4
 614 004e 03F00703 		and	r3, r3, #7
 705:Middlewares/Third_Party/SubGHz_Phy/radio_driver/lr_fhss_mac.c ****         if( ind_bit % 8 == 7 )
 615              		.loc 1 705 59 view .LVU186
 616 0052 03EB4303 		add	r3, r3, r3, lsl #1
 705:Middlewares/Third_Party/SubGHz_Phy/radio_driver/lr_fhss_mac.c ****         if( ind_bit % 8 == 7 )
 617              		.loc 1 705 30 view .LVU187
 618 0056 02FA03F3 		lsl	r3, r2, r3
 705:Middlewares/Third_Party/SubGHz_Phy/radio_driver/lr_fhss_mac.c ****         if( ind_bit % 8 == 7 )
 619              		.loc 1 705 20 view .LVU188
 620 005a 1E43     		orrs	r6, r6, r3
 621              	.LVL71:
 706:Middlewares/Third_Party/SubGHz_Phy/radio_driver/lr_fhss_mac.c ****         {
 622              		.loc 1 706 9 is_stmt 1 view .LVU189
 706:Middlewares/Third_Party/SubGHz_Phy/radio_driver/lr_fhss_mac.c ****         {
 623              		.loc 1 706 25 is_stmt 0 view .LVU190
 624 005c 04F00703 		and	r3, r4, #7
 706:Middlewares/Third_Party/SubGHz_Phy/radio_driver/lr_fhss_mac.c ****         {
 625              		.loc 1 706 11 view .LVU191
 626 0060 072B     		cmp	r3, #7
 627 0062 D7D1     		bne	.L41
 708:Middlewares/Third_Party/SubGHz_Phy/radio_driver/lr_fhss_mac.c ****             *data_out++ = ( uint8_t )( bin_out_32 >> 8 );
 628              		.loc 1 708 13 is_stmt 1 view .LVU192
 629              	.LVL72:
 708:Middlewares/Third_Party/SubGHz_Phy/radio_driver/lr_fhss_mac.c ****             *data_out++ = ( uint8_t )( bin_out_32 >> 8 );
 630              		.loc 1 708 27 is_stmt 0 view .LVU193
 631 0064 C6F30743 		ubfx	r3, r6, #16, #8
 708:Middlewares/Third_Party/SubGHz_Phy/radio_driver/lr_fhss_mac.c ****             *data_out++ = ( uint8_t )( bin_out_32 >> 8 );
 632              		.loc 1 708 25 view .LVU194
 633 0068 88F80030 		strb	r3, [r8]
 709:Middlewares/Third_Party/SubGHz_Phy/radio_driver/lr_fhss_mac.c ****             *data_out++ = ( uint8_t ) bin_out_32;
 634              		.loc 1 709 13 is_stmt 1 view .LVU195
 635              	.LVL73:
 709:Middlewares/Third_Party/SubGHz_Phy/radio_driver/lr_fhss_mac.c ****             *data_out++ = ( uint8_t ) bin_out_32;
 636              		.loc 1 709 27 is_stmt 0 view .LVU196
 637 006c C6F30723 		ubfx	r3, r6, #8, #8
 709:Middlewares/Third_Party/SubGHz_Phy/radio_driver/lr_fhss_mac.c ****             *data_out++ = ( uint8_t ) bin_out_32;
 638              		.loc 1 709 25 view .LVU197
 639 0070 88F80130 		strb	r3, [r8, #1]
 710:Middlewares/Third_Party/SubGHz_Phy/radio_driver/lr_fhss_mac.c ****             bin_out_32  = 0;
 640              		.loc 1 710 13 is_stmt 1 view .LVU198
 641              	.LVL74:
 710:Middlewares/Third_Party/SubGHz_Phy/radio_driver/lr_fhss_mac.c ****             bin_out_32  = 0;
 642              		.loc 1 710 25 is_stmt 0 view .LVU199
 643 0074 88F80260 		strb	r6, [r8, #2]
 711:Middlewares/Third_Party/SubGHz_Phy/radio_driver/lr_fhss_mac.c ****         }
ARM GAS  /tmp/ccvq1YAY.s 			page 26


 644              		.loc 1 711 13 is_stmt 1 view .LVU200
 645              	.LVL75:
 710:Middlewares/Third_Party/SubGHz_Phy/radio_driver/lr_fhss_mac.c ****             bin_out_32  = 0;
 646              		.loc 1 710 22 is_stmt 0 view .LVU201
 647 0078 08F10308 		add	r8, r8, #3
 648              	.LVL76:
 711:Middlewares/Third_Party/SubGHz_Phy/radio_driver/lr_fhss_mac.c ****         }
 649              		.loc 1 711 25 view .LVU202
 650 007c 0026     		movs	r6, #0
 651 007e C9E7     		b	.L41
 652              	.LVL77:
 653              	.L45:
 714:Middlewares/Third_Party/SubGHz_Phy/radio_driver/lr_fhss_mac.c ****     }
 715:Middlewares/Third_Party/SubGHz_Phy/radio_driver/lr_fhss_mac.c ****     if( ind_bit % 8 )
 654              		.loc 1 715 5 is_stmt 1 view .LVU203
 655              		.loc 1 715 7 is_stmt 0 view .LVU204
 656 0080 14F0070F 		tst	r4, #7
 657 0084 09D0     		beq	.L43
 716:Middlewares/Third_Party/SubGHz_Phy/radio_driver/lr_fhss_mac.c ****     {
 717:Middlewares/Third_Party/SubGHz_Phy/radio_driver/lr_fhss_mac.c ****         *data_out++ = ( uint8_t )( bin_out_32 >> 16 );
 658              		.loc 1 717 9 is_stmt 1 view .LVU205
 659              	.LVL78:
 660              		.loc 1 717 23 is_stmt 0 view .LVU206
 661 0086 C6F30743 		ubfx	r3, r6, #16, #8
 662              		.loc 1 717 21 view .LVU207
 663 008a 88F80030 		strb	r3, [r8]
 718:Middlewares/Third_Party/SubGHz_Phy/radio_driver/lr_fhss_mac.c ****         *data_out++ = ( uint8_t )( bin_out_32 >> 8 );
 664              		.loc 1 718 9 is_stmt 1 view .LVU208
 665              	.LVL79:
 666              		.loc 1 718 23 is_stmt 0 view .LVU209
 667 008e C6F30723 		ubfx	r3, r6, #8, #8
 668              		.loc 1 718 21 view .LVU210
 669 0092 88F80130 		strb	r3, [r8, #1]
 719:Middlewares/Third_Party/SubGHz_Phy/radio_driver/lr_fhss_mac.c ****         *data_out++ = ( uint8_t ) bin_out_32;
 670              		.loc 1 719 9 is_stmt 1 view .LVU211
 671              	.LVL80:
 672              		.loc 1 719 21 is_stmt 0 view .LVU212
 673 0096 88F80260 		strb	r6, [r8, #2]
 720:Middlewares/Third_Party/SubGHz_Phy/radio_driver/lr_fhss_mac.c ****         bin_out_32  = 0;
 674              		.loc 1 720 9 is_stmt 1 view .LVU213
 675              	.LVL81:
 676              	.L43:
 721:Middlewares/Third_Party/SubGHz_Phy/radio_driver/lr_fhss_mac.c ****     }
 722:Middlewares/Third_Party/SubGHz_Phy/radio_driver/lr_fhss_mac.c **** 
 723:Middlewares/Third_Party/SubGHz_Phy/radio_driver/lr_fhss_mac.c ****     return data_out_bitcount;
 677              		.loc 1 723 5 view .LVU214
 724:Middlewares/Third_Party/SubGHz_Phy/radio_driver/lr_fhss_mac.c **** }
 678              		.loc 1 724 1 is_stmt 0 view .LVU215
 679 009a 2846     		mov	r0, r5
 680 009c BDE8F087 		pop	{r4, r5, r6, r7, r8, r9, r10, pc}
 681              	.LVL82:
 682              	.L47:
 683              		.loc 1 724 1 view .LVU216
 684              		.align	2
 685              	.L46:
 686 00a0 00000000 		.word	lr_fhss_viterbi_1_3_table
 687              		.cfi_endproc
ARM GAS  /tmp/ccvq1YAY.s 			page 27


 688              	.LFE14:
 690              		.section	.text.lr_fhss_convolution_encode_viterbi_1_2,"ax",%progbits
 691              		.align	1
 692              		.syntax unified
 693              		.thumb
 694              		.thumb_func
 696              	lr_fhss_convolution_encode_viterbi_1_2:
 697              	.LVL83:
 698              	.LFB15:
 725:Middlewares/Third_Party/SubGHz_Phy/radio_driver/lr_fhss_mac.c **** 
 726:Middlewares/Third_Party/SubGHz_Phy/radio_driver/lr_fhss_mac.c **** STATIC uint16_t lr_fhss_convolution_encode_viterbi_1_2( const uint8_t *data_in, uint16_t data_in_bi
 727:Middlewares/Third_Party/SubGHz_Phy/radio_driver/lr_fhss_mac.c ****                                                         bool tail_biting, uint8_t *data_out )
 728:Middlewares/Third_Party/SubGHz_Phy/radio_driver/lr_fhss_mac.c **** {
 699              		.loc 1 728 1 is_stmt 1 view -0
 700              		.cfi_startproc
 701              		@ args = 0, pretend = 0, frame = 8
 702              		@ frame_needed = 0, uses_anonymous_args = 0
 703              		.loc 1 728 1 is_stmt 0 view .LVU218
 704 0000 F0B5     		push	{r4, r5, r6, r7, lr}
 705              		.cfi_def_cfa_offset 20
 706              		.cfi_offset 4, -20
 707              		.cfi_offset 5, -16
 708              		.cfi_offset 6, -12
 709              		.cfi_offset 7, -8
 710              		.cfi_offset 14, -4
 711 0002 83B0     		sub	sp, sp, #12
 712              		.cfi_def_cfa_offset 32
 713 0004 0446     		mov	r4, r0
 714 0006 0D46     		mov	r5, r1
 715 0008 1646     		mov	r6, r2
 716 000a 1F46     		mov	r7, r3
 729:Middlewares/Third_Party/SubGHz_Phy/radio_driver/lr_fhss_mac.c ****     uint8_t  encode_state = 0;
 717              		.loc 1 729 5 is_stmt 1 view .LVU219
 718              		.loc 1 729 14 is_stmt 0 view .LVU220
 719 000c 0022     		movs	r2, #0
 720              	.LVL84:
 721              		.loc 1 729 14 view .LVU221
 722 000e 8DF80720 		strb	r2, [sp, #7]
 730:Middlewares/Third_Party/SubGHz_Phy/radio_driver/lr_fhss_mac.c ****     uint16_t data_out_bitcount;
 723              		.loc 1 730 5 is_stmt 1 view .LVU222
 731:Middlewares/Third_Party/SubGHz_Phy/radio_driver/lr_fhss_mac.c **** 
 732:Middlewares/Third_Party/SubGHz_Phy/radio_driver/lr_fhss_mac.c ****     data_out_bitcount =
 724              		.loc 1 732 5 view .LVU223
 733:Middlewares/Third_Party/SubGHz_Phy/radio_driver/lr_fhss_mac.c ****         lr_fhss_convolution_encode_viterbi_1_2_base( &encode_state, data_in, data_in_bitcount, data
 725              		.loc 1 733 9 is_stmt 0 view .LVU224
 726 0012 0A46     		mov	r2, r1
 727 0014 0146     		mov	r1, r0
 728              	.LVL85:
 729              		.loc 1 733 9 view .LVU225
 730 0016 0DF10700 		add	r0, sp, #7
 731              	.LVL86:
 732              		.loc 1 733 9 view .LVU226
 733 001a FFF7FEFF 		bl	lr_fhss_convolution_encode_viterbi_1_2_base
 734              	.LVL87:
 734:Middlewares/Third_Party/SubGHz_Phy/radio_driver/lr_fhss_mac.c ****     if( tail_biting )
 735              		.loc 1 734 5 is_stmt 1 view .LVU227
 736              		.loc 1 734 7 is_stmt 0 view .LVU228
ARM GAS  /tmp/ccvq1YAY.s 			page 28


 737 001e 0EB9     		cbnz	r6, .L51
 738              	.LVL88:
 739              	.L49:
 735:Middlewares/Third_Party/SubGHz_Phy/radio_driver/lr_fhss_mac.c ****     {
 736:Middlewares/Third_Party/SubGHz_Phy/radio_driver/lr_fhss_mac.c ****         data_out_bitcount =
 737:Middlewares/Third_Party/SubGHz_Phy/radio_driver/lr_fhss_mac.c ****             lr_fhss_convolution_encode_viterbi_1_2_base( &encode_state, data_in, data_in_bitcount, 
 738:Middlewares/Third_Party/SubGHz_Phy/radio_driver/lr_fhss_mac.c ****     }
 739:Middlewares/Third_Party/SubGHz_Phy/radio_driver/lr_fhss_mac.c ****     return data_out_bitcount;
 740              		.loc 1 739 5 is_stmt 1 view .LVU229
 740:Middlewares/Third_Party/SubGHz_Phy/radio_driver/lr_fhss_mac.c **** }
 741              		.loc 1 740 1 is_stmt 0 view .LVU230
 742 0020 03B0     		add	sp, sp, #12
 743              		.cfi_remember_state
 744              		.cfi_def_cfa_offset 20
 745              		@ sp needed
 746 0022 F0BD     		pop	{r4, r5, r6, r7, pc}
 747              	.LVL89:
 748              	.L51:
 749              		.cfi_restore_state
 736:Middlewares/Third_Party/SubGHz_Phy/radio_driver/lr_fhss_mac.c ****             lr_fhss_convolution_encode_viterbi_1_2_base( &encode_state, data_in, data_in_bitcount, 
 750              		.loc 1 736 9 is_stmt 1 view .LVU231
 737:Middlewares/Third_Party/SubGHz_Phy/radio_driver/lr_fhss_mac.c ****     }
 751              		.loc 1 737 13 is_stmt 0 view .LVU232
 752 0024 3B46     		mov	r3, r7
 753 0026 2A46     		mov	r2, r5
 754 0028 2146     		mov	r1, r4
 755 002a 0DF10700 		add	r0, sp, #7
 756              	.LVL90:
 737:Middlewares/Third_Party/SubGHz_Phy/radio_driver/lr_fhss_mac.c ****     }
 757              		.loc 1 737 13 view .LVU233
 758 002e FFF7FEFF 		bl	lr_fhss_convolution_encode_viterbi_1_2_base
 759              	.LVL91:
 760 0032 F5E7     		b	.L49
 761              		.cfi_endproc
 762              	.LFE15:
 764              		.section	.text.lr_fhss_convolution_encode_viterbi_1_3,"ax",%progbits
 765              		.align	1
 766              		.syntax unified
 767              		.thumb
 768              		.thumb_func
 770              	lr_fhss_convolution_encode_viterbi_1_3:
 771              	.LVL92:
 772              	.LFB16:
 741:Middlewares/Third_Party/SubGHz_Phy/radio_driver/lr_fhss_mac.c **** 
 742:Middlewares/Third_Party/SubGHz_Phy/radio_driver/lr_fhss_mac.c **** STATIC uint16_t lr_fhss_convolution_encode_viterbi_1_3( const uint8_t *data_in, uint16_t data_in_bi
 743:Middlewares/Third_Party/SubGHz_Phy/radio_driver/lr_fhss_mac.c ****                                                         uint8_t *data_out )
 744:Middlewares/Third_Party/SubGHz_Phy/radio_driver/lr_fhss_mac.c **** {
 773              		.loc 1 744 1 is_stmt 1 view -0
 774              		.cfi_startproc
 775              		@ args = 0, pretend = 0, frame = 8
 776              		@ frame_needed = 0, uses_anonymous_args = 0
 777              		.loc 1 744 1 is_stmt 0 view .LVU235
 778 0000 00B5     		push	{lr}
 779              		.cfi_def_cfa_offset 4
 780              		.cfi_offset 14, -4
 781 0002 83B0     		sub	sp, sp, #12
 782              		.cfi_def_cfa_offset 16
ARM GAS  /tmp/ccvq1YAY.s 			page 29


 783 0004 1346     		mov	r3, r2
 745:Middlewares/Third_Party/SubGHz_Phy/radio_driver/lr_fhss_mac.c ****     uint8_t encode_state = 0;
 784              		.loc 1 745 5 is_stmt 1 view .LVU236
 785              		.loc 1 745 13 is_stmt 0 view .LVU237
 786 0006 0022     		movs	r2, #0
 787              	.LVL93:
 788              		.loc 1 745 13 view .LVU238
 789 0008 8DF80720 		strb	r2, [sp, #7]
 746:Middlewares/Third_Party/SubGHz_Phy/radio_driver/lr_fhss_mac.c ****     return lr_fhss_convolution_encode_viterbi_1_3_base( &encode_state, data_in, data_in_bitcount, d
 790              		.loc 1 746 5 is_stmt 1 view .LVU239
 791              		.loc 1 746 12 is_stmt 0 view .LVU240
 792 000c 0A46     		mov	r2, r1
 793 000e 0146     		mov	r1, r0
 794              	.LVL94:
 795              		.loc 1 746 12 view .LVU241
 796 0010 0DF10700 		add	r0, sp, #7
 797              	.LVL95:
 798              		.loc 1 746 12 view .LVU242
 799 0014 FFF7FEFF 		bl	lr_fhss_convolution_encode_viterbi_1_3_base
 800              	.LVL96:
 747:Middlewares/Third_Party/SubGHz_Phy/radio_driver/lr_fhss_mac.c **** }
 801              		.loc 1 747 1 view .LVU243
 802 0018 03B0     		add	sp, sp, #12
 803              		.cfi_def_cfa_offset 4
 804              		@ sp needed
 805 001a 5DF804FB 		ldr	pc, [sp], #4
 806              		.cfi_endproc
 807              	.LFE16:
 809              		.section	.text.sqrt_uint16,"ax",%progbits
 810              		.align	1
 811              		.syntax unified
 812              		.thumb
 813              		.thumb_func
 815              	sqrt_uint16:
 816              	.LVL97:
 817              	.LFB17:
 748:Middlewares/Third_Party/SubGHz_Phy/radio_driver/lr_fhss_mac.c **** 
 749:Middlewares/Third_Party/SubGHz_Phy/radio_driver/lr_fhss_mac.c **** STATIC uint16_t sqrt_uint16( uint16_t x )
 750:Middlewares/Third_Party/SubGHz_Phy/radio_driver/lr_fhss_mac.c **** {
 818              		.loc 1 750 1 is_stmt 1 view -0
 819              		.cfi_startproc
 820              		@ args = 0, pretend = 0, frame = 0
 821              		@ frame_needed = 0, uses_anonymous_args = 0
 822              		@ link register save eliminated.
 823              		.loc 1 750 1 is_stmt 0 view .LVU245
 824 0000 0246     		mov	r2, r0
 751:Middlewares/Third_Party/SubGHz_Phy/radio_driver/lr_fhss_mac.c ****     uint16_t y = 0;
 825              		.loc 1 751 5 is_stmt 1 view .LVU246
 826              	.LVL98:
 752:Middlewares/Third_Party/SubGHz_Phy/radio_driver/lr_fhss_mac.c **** 
 753:Middlewares/Third_Party/SubGHz_Phy/radio_driver/lr_fhss_mac.c ****     while( y * y < x )
 827              		.loc 1 753 5 view .LVU247
 751:Middlewares/Third_Party/SubGHz_Phy/radio_driver/lr_fhss_mac.c ****     uint16_t y = 0;
 828              		.loc 1 751 14 is_stmt 0 view .LVU248
 829 0002 0020     		movs	r0, #0
 830              	.LVL99:
 831              		.loc 1 753 10 view .LVU249
ARM GAS  /tmp/ccvq1YAY.s 			page 30


 832 0004 01E0     		b	.L55
 833              	.LVL100:
 834              	.L56:
 754:Middlewares/Third_Party/SubGHz_Phy/radio_driver/lr_fhss_mac.c ****     {
 755:Middlewares/Third_Party/SubGHz_Phy/radio_driver/lr_fhss_mac.c ****         y += 1;
 835              		.loc 1 755 9 is_stmt 1 view .LVU250
 836              		.loc 1 755 11 is_stmt 0 view .LVU251
 837 0006 0130     		adds	r0, r0, #1
 838              	.LVL101:
 839              		.loc 1 755 11 view .LVU252
 840 0008 80B2     		uxth	r0, r0
 841              	.LVL102:
 842              	.L55:
 753:Middlewares/Third_Party/SubGHz_Phy/radio_driver/lr_fhss_mac.c ****     {
 843              		.loc 1 753 18 is_stmt 1 view .LVU253
 753:Middlewares/Third_Party/SubGHz_Phy/radio_driver/lr_fhss_mac.c ****     {
 844              		.loc 1 753 14 is_stmt 0 view .LVU254
 845 000a 00FB00F3 		mul	r3, r0, r0
 753:Middlewares/Third_Party/SubGHz_Phy/radio_driver/lr_fhss_mac.c ****     {
 846              		.loc 1 753 18 view .LVU255
 847 000e 9342     		cmp	r3, r2
 848 0010 F9DB     		blt	.L56
 756:Middlewares/Third_Party/SubGHz_Phy/radio_driver/lr_fhss_mac.c ****     }
 757:Middlewares/Third_Party/SubGHz_Phy/radio_driver/lr_fhss_mac.c **** 
 758:Middlewares/Third_Party/SubGHz_Phy/radio_driver/lr_fhss_mac.c ****     return y;
 849              		.loc 1 758 5 is_stmt 1 view .LVU256
 759:Middlewares/Third_Party/SubGHz_Phy/radio_driver/lr_fhss_mac.c **** }
 850              		.loc 1 759 1 is_stmt 0 view .LVU257
 851 0012 7047     		bx	lr
 852              		.cfi_endproc
 853              	.LFE17:
 855              		.section	.text.lr_fhss_payload_interleaving,"ax",%progbits
 856              		.align	1
 857              		.syntax unified
 858              		.thumb
 859              		.thumb_func
 861              	lr_fhss_payload_interleaving:
 862              	.LVL103:
 863              	.LFB18:
 760:Middlewares/Third_Party/SubGHz_Phy/radio_driver/lr_fhss_mac.c **** 
 761:Middlewares/Third_Party/SubGHz_Phy/radio_driver/lr_fhss_mac.c **** STATIC uint16_t lr_fhss_payload_interleaving( const uint8_t *data_in, uint16_t data_in_bitcount, ui
 762:Middlewares/Third_Party/SubGHz_Phy/radio_driver/lr_fhss_mac.c ****                                               uint32_t output_offset )
 763:Middlewares/Third_Party/SubGHz_Phy/radio_driver/lr_fhss_mac.c **** {
 864              		.loc 1 763 1 is_stmt 1 view -0
 865              		.cfi_startproc
 866              		@ args = 0, pretend = 0, frame = 32
 867              		@ frame_needed = 0, uses_anonymous_args = 0
 868              		.loc 1 763 1 is_stmt 0 view .LVU259
 869 0000 2DE9F04F 		push	{r4, r5, r6, r7, r8, r9, r10, fp, lr}
 870              		.cfi_def_cfa_offset 36
 871              		.cfi_offset 4, -36
 872              		.cfi_offset 5, -32
 873              		.cfi_offset 6, -28
 874              		.cfi_offset 7, -24
 875              		.cfi_offset 8, -20
 876              		.cfi_offset 9, -16
 877              		.cfi_offset 10, -12
ARM GAS  /tmp/ccvq1YAY.s 			page 31


 878              		.cfi_offset 11, -8
 879              		.cfi_offset 14, -4
 880 0004 89B0     		sub	sp, sp, #36
 881              		.cfi_def_cfa_offset 72
 882 0006 0190     		str	r0, [sp, #4]
 883 0008 8B46     		mov	fp, r1
 884 000a 9146     		mov	r9, r2
 885 000c 1D46     		mov	r5, r3
 764:Middlewares/Third_Party/SubGHz_Phy/radio_driver/lr_fhss_mac.c ****     uint16_t       step   = sqrt_uint16( data_in_bitcount );
 886              		.loc 1 764 5 is_stmt 1 view .LVU260
 887              		.loc 1 764 29 is_stmt 0 view .LVU261
 888 000e 0846     		mov	r0, r1
 889              	.LVL104:
 890              		.loc 1 764 29 view .LVU262
 891 0010 FFF7FEFF 		bl	sqrt_uint16
 892              	.LVL105:
 765:Middlewares/Third_Party/SubGHz_Phy/radio_driver/lr_fhss_mac.c ****     const uint16_t step_v = step >> 1;
 893              		.loc 1 765 5 is_stmt 1 view .LVU263
 894              		.loc 1 765 20 is_stmt 0 view .LVU264
 895 0014 C0F34F03 		ubfx	r3, r0, #1, #16
 896 0018 0393     		str	r3, [sp, #12]
 897              	.LVL106:
 766:Middlewares/Third_Party/SubGHz_Phy/radio_driver/lr_fhss_mac.c ****     step                  = step << 1;
 898              		.loc 1 766 5 is_stmt 1 view .LVU265
 899              		.loc 1 766 27 is_stmt 0 view .LVU266
 900 001a 4000     		lsls	r0, r0, #1
 901              	.LVL107:
 902              		.loc 1 766 27 view .LVU267
 903 001c 1FFA80F8 		uxth	r8, r0
 904              	.LVL108:
 767:Middlewares/Third_Party/SubGHz_Phy/radio_driver/lr_fhss_mac.c **** 
 768:Middlewares/Third_Party/SubGHz_Phy/radio_driver/lr_fhss_mac.c ****     uint16_t pos           = 0;
 905              		.loc 1 768 5 is_stmt 1 view .LVU268
 769:Middlewares/Third_Party/SubGHz_Phy/radio_driver/lr_fhss_mac.c ****     uint16_t st_idx        = 0;
 906              		.loc 1 769 5 view .LVU269
 770:Middlewares/Third_Party/SubGHz_Phy/radio_driver/lr_fhss_mac.c ****     uint16_t st_idx_init   = 0;
 907              		.loc 1 770 5 view .LVU270
 771:Middlewares/Third_Party/SubGHz_Phy/radio_driver/lr_fhss_mac.c ****     int16_t  bits_left     = data_in_bitcount;
 908              		.loc 1 771 5 view .LVU271
 909              		.loc 1 771 14 is_stmt 0 view .LVU272
 910 0020 0FFA8BF6 		sxth	r6, fp
 911              	.LVL109:
 772:Middlewares/Third_Party/SubGHz_Phy/radio_driver/lr_fhss_mac.c ****     uint16_t out_row_index = output_offset;
 912              		.loc 1 772 5 is_stmt 1 view .LVU273
 913              		.loc 1 772 14 is_stmt 0 view .LVU274
 914 0024 ADB2     		uxth	r5, r5
 915              	.LVL110:
 773:Middlewares/Third_Party/SubGHz_Phy/radio_driver/lr_fhss_mac.c **** 
 774:Middlewares/Third_Party/SubGHz_Phy/radio_driver/lr_fhss_mac.c ****     while( bits_left > 0 )
 916              		.loc 1 774 5 is_stmt 1 view .LVU275
 772:Middlewares/Third_Party/SubGHz_Phy/radio_driver/lr_fhss_mac.c ****     uint16_t out_row_index = output_offset;
 917              		.loc 1 772 14 is_stmt 0 view .LVU276
 918 0026 0595     		str	r5, [sp, #20]
 770:Middlewares/Third_Party/SubGHz_Phy/radio_driver/lr_fhss_mac.c ****     int16_t  bits_left     = data_in_bitcount;
 919              		.loc 1 770 14 view .LVU277
 920 0028 0024     		movs	r4, #0
 921 002a 0494     		str	r4, [sp, #16]
ARM GAS  /tmp/ccvq1YAY.s 			page 32


 769:Middlewares/Third_Party/SubGHz_Phy/radio_driver/lr_fhss_mac.c ****     uint16_t st_idx_init   = 0;
 922              		.loc 1 769 14 view .LVU278
 923 002c 0294     		str	r4, [sp, #8]
 924 002e 0795     		str	r5, [sp, #28]
 925              		.loc 1 774 10 view .LVU279
 926 0030 2BE0     		b	.L58
 927              	.LVL111:
 928              	.L69:
 929              	.LBB14:
 775:Middlewares/Third_Party/SubGHz_Phy/radio_driver/lr_fhss_mac.c ****     {
 776:Middlewares/Third_Party/SubGHz_Phy/radio_driver/lr_fhss_mac.c ****         int16_t in_row_width = bits_left;
 930              		.loc 1 776 17 view .LVU280
 931 0032 3746     		mov	r7, r6
 932 0034 2EE0     		b	.L59
 933              	.LVL112:
 934              	.L65:
 935              	.LBB15:
 777:Middlewares/Third_Party/SubGHz_Phy/radio_driver/lr_fhss_mac.c ****         if( in_row_width > LR_FHSS_FRAG_BITS )
 778:Middlewares/Third_Party/SubGHz_Phy/radio_driver/lr_fhss_mac.c ****         {
 779:Middlewares/Third_Party/SubGHz_Phy/radio_driver/lr_fhss_mac.c ****             in_row_width = LR_FHSS_FRAG_BITS;
 780:Middlewares/Third_Party/SubGHz_Phy/radio_driver/lr_fhss_mac.c ****         }
 781:Middlewares/Third_Party/SubGHz_Phy/radio_driver/lr_fhss_mac.c **** 
 782:Middlewares/Third_Party/SubGHz_Phy/radio_driver/lr_fhss_mac.c ****         lr_fhss_set_bit_in_byte_vector( data_out, 0 + out_row_index, 0 );  // guard bits
 783:Middlewares/Third_Party/SubGHz_Phy/radio_driver/lr_fhss_mac.c ****         lr_fhss_set_bit_in_byte_vector( data_out, 1 + out_row_index, 0 );  // guard bits
 784:Middlewares/Third_Party/SubGHz_Phy/radio_driver/lr_fhss_mac.c ****         for( uint32_t j = 0; j < in_row_width; j++ )
 785:Middlewares/Third_Party/SubGHz_Phy/radio_driver/lr_fhss_mac.c ****         {
 786:Middlewares/Third_Party/SubGHz_Phy/radio_driver/lr_fhss_mac.c ****             lr_fhss_set_bit_in_byte_vector( data_out, j + 2 + out_row_index,
 787:Middlewares/Third_Party/SubGHz_Phy/radio_driver/lr_fhss_mac.c ****                                             lr_fhss_extract_bit_in_byte_vector( data_in, pos ) );  
 788:Middlewares/Third_Party/SubGHz_Phy/radio_driver/lr_fhss_mac.c **** 
 789:Middlewares/Third_Party/SubGHz_Phy/radio_driver/lr_fhss_mac.c ****             pos += step;
 790:Middlewares/Third_Party/SubGHz_Phy/radio_driver/lr_fhss_mac.c ****             if( pos >= data_in_bitcount )
 791:Middlewares/Third_Party/SubGHz_Phy/radio_driver/lr_fhss_mac.c ****             {
 792:Middlewares/Third_Party/SubGHz_Phy/radio_driver/lr_fhss_mac.c ****                 st_idx += step_v;
 936              		.loc 1 792 24 view .LVU281
 937 0036 0294     		str	r4, [sp, #8]
 938              	.LVL113:
 939              	.L61:
 784:Middlewares/Third_Party/SubGHz_Phy/radio_driver/lr_fhss_mac.c ****         {
 940              		.loc 1 784 49 is_stmt 1 discriminator 2 view .LVU282
 941 0038 0135     		adds	r5, r5, #1
 942              	.LVL114:
 943              	.L60:
 784:Middlewares/Third_Party/SubGHz_Phy/radio_driver/lr_fhss_mac.c ****         {
 944              		.loc 1 784 32 discriminator 1 view .LVU283
 945 003a AF42     		cmp	r7, r5
 946 003c 1BD9     		bls	.L67
 786:Middlewares/Third_Party/SubGHz_Phy/radio_driver/lr_fhss_mac.c ****                                             lr_fhss_extract_bit_in_byte_vector( data_in, pos ) );  
 947              		.loc 1 786 13 view .LVU284
 786:Middlewares/Third_Party/SubGHz_Phy/radio_driver/lr_fhss_mac.c ****                                             lr_fhss_extract_bit_in_byte_vector( data_in, pos ) );  
 948              		.loc 1 786 61 is_stmt 0 view .LVU285
 949 003e 0AEB0506 		add	r6, r10, r5
 786:Middlewares/Third_Party/SubGHz_Phy/radio_driver/lr_fhss_mac.c ****                                             lr_fhss_extract_bit_in_byte_vector( data_in, pos ) );  
 950              		.loc 1 786 13 view .LVU286
 951 0042 2146     		mov	r1, r4
 952 0044 0198     		ldr	r0, [sp, #4]
 953 0046 FFF7FEFF 		bl	lr_fhss_extract_bit_in_byte_vector
 954              	.LVL115:
ARM GAS  /tmp/ccvq1YAY.s 			page 33


 955 004a 0246     		mov	r2, r0
 786:Middlewares/Third_Party/SubGHz_Phy/radio_driver/lr_fhss_mac.c ****                                             lr_fhss_extract_bit_in_byte_vector( data_in, pos ) );  
 956              		.loc 1 786 13 discriminator 1 view .LVU287
 957 004c B11C     		adds	r1, r6, #2
 958 004e 4846     		mov	r0, r9
 959 0050 FFF7FEFF 		bl	lr_fhss_set_bit_in_byte_vector
 960              	.LVL116:
 789:Middlewares/Third_Party/SubGHz_Phy/radio_driver/lr_fhss_mac.c ****             if( pos >= data_in_bitcount )
 961              		.loc 1 789 13 is_stmt 1 view .LVU288
 789:Middlewares/Third_Party/SubGHz_Phy/radio_driver/lr_fhss_mac.c ****             if( pos >= data_in_bitcount )
 962              		.loc 1 789 17 is_stmt 0 view .LVU289
 963 0054 4444     		add	r4, r4, r8
 964              	.LVL117:
 789:Middlewares/Third_Party/SubGHz_Phy/radio_driver/lr_fhss_mac.c ****             if( pos >= data_in_bitcount )
 965              		.loc 1 789 17 view .LVU290
 966 0056 A4B2     		uxth	r4, r4
 967              	.LVL118:
 790:Middlewares/Third_Party/SubGHz_Phy/radio_driver/lr_fhss_mac.c ****             {
 968              		.loc 1 790 13 is_stmt 1 view .LVU291
 790:Middlewares/Third_Party/SubGHz_Phy/radio_driver/lr_fhss_mac.c ****             {
 969              		.loc 1 790 15 is_stmt 0 view .LVU292
 970 0058 A345     		cmp	fp, r4
 971 005a EDD8     		bhi	.L61
 972              		.loc 1 792 17 is_stmt 1 view .LVU293
 973              		.loc 1 792 24 is_stmt 0 view .LVU294
 974 005c 029C     		ldr	r4, [sp, #8]
 975              	.LVL119:
 976              		.loc 1 792 24 view .LVU295
 977 005e 039B     		ldr	r3, [sp, #12]
 978 0060 1C44     		add	r4, r4, r3
 979 0062 A4B2     		uxth	r4, r4
 980              	.LVL120:
 793:Middlewares/Third_Party/SubGHz_Phy/radio_driver/lr_fhss_mac.c ****                 if( st_idx >= step )
 981              		.loc 1 793 17 is_stmt 1 view .LVU296
 982              		.loc 1 793 19 is_stmt 0 view .LVU297
 983 0064 A045     		cmp	r8, r4
 984 0066 E6D8     		bhi	.L65
 794:Middlewares/Third_Party/SubGHz_Phy/radio_driver/lr_fhss_mac.c ****                 {
 795:Middlewares/Third_Party/SubGHz_Phy/radio_driver/lr_fhss_mac.c ****                     st_idx_init++;
 985              		.loc 1 795 21 is_stmt 1 view .LVU298
 986              		.loc 1 795 32 is_stmt 0 view .LVU299
 987 0068 049B     		ldr	r3, [sp, #16]
 988 006a 0133     		adds	r3, r3, #1
 989 006c 9BB2     		uxth	r3, r3
 990 006e 0493     		str	r3, [sp, #16]
 991              	.LVL121:
 796:Middlewares/Third_Party/SubGHz_Phy/radio_driver/lr_fhss_mac.c ****                     st_idx = st_idx_init;
 992              		.loc 1 796 21 is_stmt 1 view .LVU300
 795:Middlewares/Third_Party/SubGHz_Phy/radio_driver/lr_fhss_mac.c ****                     st_idx = st_idx_init;
 993              		.loc 1 795 32 is_stmt 0 view .LVU301
 994 0070 1C46     		mov	r4, r3
 995              		.loc 1 796 28 view .LVU302
 996 0072 0293     		str	r3, [sp, #8]
 997 0074 E0E7     		b	.L61
 998              	.LVL122:
 999              	.L67:
 1000              		.loc 1 796 28 view .LVU303
ARM GAS  /tmp/ccvq1YAY.s 			page 34


 1001              	.LBE15:
 797:Middlewares/Third_Party/SubGHz_Phy/radio_driver/lr_fhss_mac.c ****                 }
 798:Middlewares/Third_Party/SubGHz_Phy/radio_driver/lr_fhss_mac.c ****                 pos = st_idx;
 799:Middlewares/Third_Party/SubGHz_Phy/radio_driver/lr_fhss_mac.c ****             }
 800:Middlewares/Third_Party/SubGHz_Phy/radio_driver/lr_fhss_mac.c ****         }
 801:Middlewares/Third_Party/SubGHz_Phy/radio_driver/lr_fhss_mac.c **** 
 802:Middlewares/Third_Party/SubGHz_Phy/radio_driver/lr_fhss_mac.c ****         bits_left -= LR_FHSS_FRAG_BITS;
 1002              		.loc 1 802 19 view .LVU304
 1003 0076 069E     		ldr	r6, [sp, #24]
 1004              		.loc 1 802 9 is_stmt 1 view .LVU305
 1005              		.loc 1 802 19 is_stmt 0 view .LVU306
 1006 0078 A6F13003 		sub	r3, r6, #48
 1007 007c 1EB2     		sxth	r6, r3
 1008              	.LVL123:
 803:Middlewares/Third_Party/SubGHz_Phy/radio_driver/lr_fhss_mac.c ****         out_row_index += 2 + in_row_width;
 1009              		.loc 1 803 9 is_stmt 1 view .LVU307
 1010              		.loc 1 803 23 is_stmt 0 view .LVU308
 1011 007e 059B     		ldr	r3, [sp, #20]
 1012 0080 3B44     		add	r3, r3, r7
 1013 0082 9FB2     		uxth	r7, r3
 1014              	.LVL124:
 1015              		.loc 1 803 23 view .LVU309
 1016 0084 0237     		adds	r7, r7, #2
 1017 0086 BBB2     		uxth	r3, r7
 1018 0088 0593     		str	r3, [sp, #20]
 1019              	.LVL125:
 1020              	.L58:
 1021              		.loc 1 803 23 view .LVU310
 1022              	.LBE14:
 774:Middlewares/Third_Party/SubGHz_Phy/radio_driver/lr_fhss_mac.c ****     {
 1023              		.loc 1 774 22 is_stmt 1 view .LVU311
 1024 008a 002E     		cmp	r6, #0
 1025 008c 11DD     		ble	.L68
 1026              	.LBB17:
 776:Middlewares/Third_Party/SubGHz_Phy/radio_driver/lr_fhss_mac.c ****         if( in_row_width > LR_FHSS_FRAG_BITS )
 1027              		.loc 1 776 9 view .LVU312
 1028              	.LVL126:
 777:Middlewares/Third_Party/SubGHz_Phy/radio_driver/lr_fhss_mac.c ****         {
 1029              		.loc 1 777 9 view .LVU313
 777:Middlewares/Third_Party/SubGHz_Phy/radio_driver/lr_fhss_mac.c ****         {
 1030              		.loc 1 777 11 is_stmt 0 view .LVU314
 1031 008e 302E     		cmp	r6, #48
 1032 0090 CFDD     		ble	.L69
 779:Middlewares/Third_Party/SubGHz_Phy/radio_driver/lr_fhss_mac.c ****         }
 1033              		.loc 1 779 26 view .LVU315
 1034 0092 3027     		movs	r7, #48
 1035              	.L59:
 1036              	.LVL127:
 782:Middlewares/Third_Party/SubGHz_Phy/radio_driver/lr_fhss_mac.c ****         lr_fhss_set_bit_in_byte_vector( data_out, 1 + out_row_index, 0 );  // guard bits
 1037              		.loc 1 782 9 is_stmt 1 view .LVU316
 1038 0094 059D     		ldr	r5, [sp, #20]
 1039 0096 AA46     		mov	r10, r5
 1040 0098 0022     		movs	r2, #0
 1041 009a 2946     		mov	r1, r5
 1042 009c 4846     		mov	r0, r9
 1043 009e FFF7FEFF 		bl	lr_fhss_set_bit_in_byte_vector
 1044              	.LVL128:
ARM GAS  /tmp/ccvq1YAY.s 			page 35


 783:Middlewares/Third_Party/SubGHz_Phy/radio_driver/lr_fhss_mac.c ****         for( uint32_t j = 0; j < in_row_width; j++ )
 1045              		.loc 1 783 9 view .LVU317
 1046 00a2 0022     		movs	r2, #0
 1047 00a4 691C     		adds	r1, r5, #1
 1048 00a6 4846     		mov	r0, r9
 1049 00a8 FFF7FEFF 		bl	lr_fhss_set_bit_in_byte_vector
 1050              	.LVL129:
 784:Middlewares/Third_Party/SubGHz_Phy/radio_driver/lr_fhss_mac.c ****         {
 1051              		.loc 1 784 9 view .LVU318
 1052              	.LBB16:
 784:Middlewares/Third_Party/SubGHz_Phy/radio_driver/lr_fhss_mac.c ****         {
 1053              		.loc 1 784 14 view .LVU319
 784:Middlewares/Third_Party/SubGHz_Phy/radio_driver/lr_fhss_mac.c ****         {
 1054              		.loc 1 784 23 is_stmt 0 view .LVU320
 1055 00ac 0025     		movs	r5, #0
 1056 00ae 0696     		str	r6, [sp, #24]
 784:Middlewares/Third_Party/SubGHz_Phy/radio_driver/lr_fhss_mac.c ****         {
 1057              		.loc 1 784 9 view .LVU321
 1058 00b0 C3E7     		b	.L60
 1059              	.LVL130:
 1060              	.L68:
 784:Middlewares/Third_Party/SubGHz_Phy/radio_driver/lr_fhss_mac.c ****         {
 1061              		.loc 1 784 9 view .LVU322
 1062              	.LBE16:
 1063              	.LBE17:
 804:Middlewares/Third_Party/SubGHz_Phy/radio_driver/lr_fhss_mac.c ****     }
 805:Middlewares/Third_Party/SubGHz_Phy/radio_driver/lr_fhss_mac.c **** 
 806:Middlewares/Third_Party/SubGHz_Phy/radio_driver/lr_fhss_mac.c ****     return out_row_index - output_offset;
 1064              		.loc 1 806 26 view .LVU323
 1065 00b2 079D     		ldr	r5, [sp, #28]
 1066              		.loc 1 806 5 is_stmt 1 view .LVU324
 1067              		.loc 1 806 26 is_stmt 0 view .LVU325
 1068 00b4 059B     		ldr	r3, [sp, #20]
 1069 00b6 581B     		subs	r0, r3, r5
 807:Middlewares/Third_Party/SubGHz_Phy/radio_driver/lr_fhss_mac.c **** }
 1070              		.loc 1 807 1 view .LVU326
 1071 00b8 80B2     		uxth	r0, r0
 1072 00ba 09B0     		add	sp, sp, #36
 1073              		.cfi_def_cfa_offset 36
 1074              		@ sp needed
 1075 00bc BDE8F08F 		pop	{r4, r5, r6, r7, r8, r9, r10, fp, pc}
 1076              		.loc 1 807 1 view .LVU327
 1077              		.cfi_endproc
 1078              	.LFE18:
 1080              		.section	.text.lr_fhss_raw_header,"ax",%progbits
 1081              		.align	1
 1082              		.syntax unified
 1083              		.thumb
 1084              		.thumb_func
 1086              	lr_fhss_raw_header:
 1087              	.LVL131:
 1088              	.LFB19:
 808:Middlewares/Third_Party/SubGHz_Phy/radio_driver/lr_fhss_mac.c **** 
 809:Middlewares/Third_Party/SubGHz_Phy/radio_driver/lr_fhss_mac.c **** STATIC void lr_fhss_raw_header( const lr_fhss_v1_params_t *params, uint16_t hop_sequence_id, uint16
 810:Middlewares/Third_Party/SubGHz_Phy/radio_driver/lr_fhss_mac.c ****                                 uint8_t *data_out )
 811:Middlewares/Third_Party/SubGHz_Phy/radio_driver/lr_fhss_mac.c **** {
 1089              		.loc 1 811 1 is_stmt 1 view -0
ARM GAS  /tmp/ccvq1YAY.s 			page 36


 1090              		.cfi_startproc
 1091              		@ args = 0, pretend = 0, frame = 0
 1092              		@ frame_needed = 0, uses_anonymous_args = 0
 1093              		@ link register save eliminated.
 1094              		.loc 1 811 1 is_stmt 0 view .LVU329
 1095 0000 10B4     		push	{r4}
 1096              		.cfi_def_cfa_offset 4
 1097              		.cfi_offset 4, -4
 812:Middlewares/Third_Party/SubGHz_Phy/radio_driver/lr_fhss_mac.c ****     data_out[0] = payload_length;
 1098              		.loc 1 812 5 is_stmt 1 view .LVU330
 1099              		.loc 1 812 17 is_stmt 0 view .LVU331
 1100 0002 1A70     		strb	r2, [r3]
 813:Middlewares/Third_Party/SubGHz_Phy/radio_driver/lr_fhss_mac.c ****     data_out[1] = ( params->modulation_type << 5 ) + ( params->cr << 3 ) + ( params->grid << 2 ) +
 1101              		.loc 1 813 5 is_stmt 1 view .LVU332
 1102              		.loc 1 813 27 is_stmt 0 view .LVU333
 1103 0004 0279     		ldrb	r2, [r0, #4]	@ zero_extendqisi2
 1104              	.LVL132:
 1105              		.loc 1 813 45 view .LVU334
 1106 0006 5201     		lsls	r2, r2, #5
 1107 0008 D2B2     		uxtb	r2, r2
 1108              		.loc 1 813 62 view .LVU335
 1109 000a 90F805C0 		ldrb	ip, [r0, #5]	@ zero_extendqisi2
 1110              		.loc 1 813 67 view .LVU336
 1111 000e 4FEACC0C 		lsl	ip, ip, #3
 1112 0012 5FFA8CFC 		uxtb	ip, ip
 1113              		.loc 1 813 52 view .LVU337
 1114 0016 6244     		add	r2, r2, ip
 1115 0018 D2B2     		uxtb	r2, r2
 1116              		.loc 1 813 84 view .LVU338
 1117 001a 90F806C0 		ldrb	ip, [r0, #6]	@ zero_extendqisi2
 1118              		.loc 1 813 91 view .LVU339
 1119 001e 4FEA8C0C 		lsl	ip, ip, #2
 1120 0022 5FFA8CFC 		uxtb	ip, ip
 1121              		.loc 1 813 74 view .LVU340
 1122 0026 6244     		add	r2, r2, ip
 1123 0028 D2B2     		uxtb	r2, r2
 814:Middlewares/Third_Party/SubGHz_Phy/radio_driver/lr_fhss_mac.c ****                   ( params->enable_hopping ? 2 : 0 ) + ( params->bw >> 3 );
 1124              		.loc 1 814 27 view .LVU341
 1125 002a 047A     		ldrb	r4, [r0, #8]	@ zero_extendqisi2
 813:Middlewares/Third_Party/SubGHz_Phy/radio_driver/lr_fhss_mac.c ****     data_out[1] = ( params->modulation_type << 5 ) + ( params->cr << 3 ) + ( params->grid << 2 ) +
 1126              		.loc 1 813 98 view .LVU342
 1127 002c 8CB1     		cbz	r4, .L72
 813:Middlewares/Third_Party/SubGHz_Phy/radio_driver/lr_fhss_mac.c ****     data_out[1] = ( params->modulation_type << 5 ) + ( params->cr << 3 ) + ( params->grid << 2 ) +
 1128              		.loc 1 813 98 discriminator 1 view .LVU343
 1129 002e 4FF0020C 		mov	ip, #2
 1130              	.L71:
 813:Middlewares/Third_Party/SubGHz_Phy/radio_driver/lr_fhss_mac.c ****     data_out[1] = ( params->modulation_type << 5 ) + ( params->cr << 3 ) + ( params->grid << 2 ) +
 1131              		.loc 1 813 98 discriminator 4 view .LVU344
 1132 0032 6244     		add	r2, r2, ip
 1133 0034 D2B2     		uxtb	r2, r2
 1134              		.loc 1 814 64 view .LVU345
 1135 0036 90F807C0 		ldrb	ip, [r0, #7]	@ zero_extendqisi2
 1136              		.loc 1 814 54 view .LVU346
 1137 003a 02EBDC02 		add	r2, r2, ip, lsr #3
 813:Middlewares/Third_Party/SubGHz_Phy/radio_driver/lr_fhss_mac.c ****     data_out[1] = ( params->modulation_type << 5 ) + ( params->cr << 3 ) + ( params->grid << 2 ) +
 1138              		.loc 1 813 17 discriminator 4 view .LVU347
 1139 003e 5A70     		strb	r2, [r3, #1]
ARM GAS  /tmp/ccvq1YAY.s 			page 37


 815:Middlewares/Third_Party/SubGHz_Phy/radio_driver/lr_fhss_mac.c ****     data_out[2] = ( ( params->bw & 0x07 ) << 5 ) + ( hop_sequence_id >> 4 );
 1140              		.loc 1 815 5 is_stmt 1 view .LVU348
 1141              		.loc 1 815 29 is_stmt 0 view .LVU349
 1142 0040 C079     		ldrb	r0, [r0, #7]	@ zero_extendqisi2
 1143              	.LVL133:
 1144              		.loc 1 815 50 view .LVU350
 1145 0042 0A09     		lsrs	r2, r1, #4
 1146 0044 02EB4012 		add	r2, r2, r0, lsl #5
 1147              		.loc 1 815 17 view .LVU351
 1148 0048 9A70     		strb	r2, [r3, #2]
 816:Middlewares/Third_Party/SubGHz_Phy/radio_driver/lr_fhss_mac.c ****     data_out[3] = ( ( hop_sequence_id & 0x000F ) << 4 );
 1149              		.loc 1 816 5 is_stmt 1 view .LVU352
 1150              		.loc 1 816 17 is_stmt 0 view .LVU353
 1151 004a 0901     		lsls	r1, r1, #4
 1152              	.LVL134:
 1153              		.loc 1 816 17 view .LVU354
 1154 004c D970     		strb	r1, [r3, #3]
 817:Middlewares/Third_Party/SubGHz_Phy/radio_driver/lr_fhss_mac.c **** }
 1155              		.loc 1 817 1 view .LVU355
 1156 004e 10BC     		pop	{r4}
 1157              		.cfi_remember_state
 1158              		.cfi_restore 4
 1159              		.cfi_def_cfa_offset 0
 1160 0050 7047     		bx	lr
 1161              	.LVL135:
 1162              	.L72:
 1163              		.cfi_restore_state
 813:Middlewares/Third_Party/SubGHz_Phy/radio_driver/lr_fhss_mac.c ****                   ( params->enable_hopping ? 2 : 0 ) + ( params->bw >> 3 );
 1164              		.loc 1 813 98 discriminator 2 view .LVU356
 1165 0052 4FF0000C 		mov	ip, #0
 1166 0056 ECE7     		b	.L71
 1167              		.cfi_endproc
 1168              	.LFE19:
 1170              		.section	.text.lr_fhss_store_header_sync_word_index,"ax",%progbits
 1171              		.align	1
 1172              		.syntax unified
 1173              		.thumb
 1174              		.thumb_func
 1176              	lr_fhss_store_header_sync_word_index:
 1177              	.LVL136:
 1178              	.LFB20:
 818:Middlewares/Third_Party/SubGHz_Phy/radio_driver/lr_fhss_mac.c **** 
 819:Middlewares/Third_Party/SubGHz_Phy/radio_driver/lr_fhss_mac.c **** STATIC void lr_fhss_store_header_sync_word_index( uint8_t sync_word_index, uint8_t *data_out )
 820:Middlewares/Third_Party/SubGHz_Phy/radio_driver/lr_fhss_mac.c **** {
 1179              		.loc 1 820 1 is_stmt 1 view -0
 1180              		.cfi_startproc
 1181              		@ args = 0, pretend = 0, frame = 0
 1182              		@ frame_needed = 0, uses_anonymous_args = 0
 1183              		@ link register save eliminated.
 821:Middlewares/Third_Party/SubGHz_Phy/radio_driver/lr_fhss_mac.c ****     data_out[3] = ( data_out[3] & ~0x0C ) | ( sync_word_index << 2 );
 1184              		.loc 1 821 5 view .LVU358
 1185              		.loc 1 821 29 is_stmt 0 view .LVU359
 1186 0000 CB78     		ldrb	r3, [r1, #3]	@ zero_extendqisi2
 1187              		.loc 1 821 43 view .LVU360
 1188 0002 23F00C03 		bic	r3, r3, #12
 1189 0006 43EA8003 		orr	r3, r3, r0, lsl #2
 1190              		.loc 1 821 17 view .LVU361
ARM GAS  /tmp/ccvq1YAY.s 			page 38


 1191 000a CB70     		strb	r3, [r1, #3]
 822:Middlewares/Third_Party/SubGHz_Phy/radio_driver/lr_fhss_mac.c **** }
 1192              		.loc 1 822 1 view .LVU362
 1193 000c 7047     		bx	lr
 1194              		.cfi_endproc
 1195              	.LFE20:
 1197              		.section	.text.lr_fhss_get_bit_and_hop_count,"ax",%progbits
 1198              		.align	1
 1199              		.syntax unified
 1200              		.thumb
 1201              		.thumb_func
 1203              	lr_fhss_get_bit_and_hop_count:
 1204              	.LVL137:
 1205              	.LFB21:
 823:Middlewares/Third_Party/SubGHz_Phy/radio_driver/lr_fhss_mac.c **** 
 824:Middlewares/Third_Party/SubGHz_Phy/radio_driver/lr_fhss_mac.c **** STATIC uint16_t lr_fhss_get_bit_and_hop_count( const lr_fhss_v1_params_t *params, uint16_t payload_
 825:Middlewares/Third_Party/SubGHz_Phy/radio_driver/lr_fhss_mac.c ****                                                uint8_t *nb_hops_out )
 826:Middlewares/Third_Party/SubGHz_Phy/radio_driver/lr_fhss_mac.c **** {
 1206              		.loc 1 826 1 is_stmt 1 view -0
 1207              		.cfi_startproc
 1208              		@ args = 0, pretend = 0, frame = 0
 1209              		@ frame_needed = 0, uses_anonymous_args = 0
 1210              		@ link register save eliminated.
 1211              		.loc 1 826 1 is_stmt 0 view .LVU364
 1212 0000 10B4     		push	{r4}
 1213              		.cfi_def_cfa_offset 4
 1214              		.cfi_offset 4, -4
 827:Middlewares/Third_Party/SubGHz_Phy/radio_driver/lr_fhss_mac.c ****     // check length : payload + 16bit crc, encoded, padded to 48bits, adding 2 guard bit / 48bits
 828:Middlewares/Third_Party/SubGHz_Phy/radio_driver/lr_fhss_mac.c ****     uint16_t length_bits = ( payload_length + 2 ) * 8 + 6;
 1215              		.loc 1 828 5 is_stmt 1 view .LVU365
 1216              		.loc 1 828 55 is_stmt 0 view .LVU366
 1217 0002 CB00     		lsls	r3, r1, #3
 1218 0004 9BB2     		uxth	r3, r3
 1219              		.loc 1 828 14 view .LVU367
 1220 0006 1633     		adds	r3, r3, #22
 1221 0008 9BB2     		uxth	r3, r3
 1222              	.LVL138:
 829:Middlewares/Third_Party/SubGHz_Phy/radio_driver/lr_fhss_mac.c ****     switch( params->cr )
 1223              		.loc 1 829 5 is_stmt 1 view .LVU368
 1224              		.loc 1 829 19 is_stmt 0 view .LVU369
 1225 000a 4179     		ldrb	r1, [r0, #5]	@ zero_extendqisi2
 1226              	.LVL139:
 1227              		.loc 1 829 5 view .LVU370
 1228 000c 0329     		cmp	r1, #3
 1229 000e 0CD8     		bhi	.L76
 1230 0010 DFE801F0 		tbb	[pc, r1]
 1231              	.L78:
 1232 0014 02       		.byte	(.L81-.L78)/2
 1233 0015 35       		.byte	(.L80-.L78)/2
 1234 0016 3A       		.byte	(.L79-.L78)/2
 1235 0017 3D       		.byte	(.L77-.L78)/2
 1236              		.p2align 1
 1237              	.L81:
 830:Middlewares/Third_Party/SubGHz_Phy/radio_driver/lr_fhss_mac.c ****     {
 831:Middlewares/Third_Party/SubGHz_Phy/radio_driver/lr_fhss_mac.c ****     case LR_FHSS_V1_CR_5_6:
 832:Middlewares/Third_Party/SubGHz_Phy/radio_driver/lr_fhss_mac.c ****         length_bits = ( ( length_bits * 6 ) + 4 ) / 5;
 1238              		.loc 1 832 9 is_stmt 1 view .LVU371
ARM GAS  /tmp/ccvq1YAY.s 			page 39


 1239              		.loc 1 832 39 is_stmt 0 view .LVU372
 1240 0018 03EB4303 		add	r3, r3, r3, lsl #1
 1241              	.LVL140:
 1242              		.loc 1 832 39 view .LVU373
 1243 001c 5B00     		lsls	r3, r3, #1
 1244              		.loc 1 832 45 view .LVU374
 1245 001e 0433     		adds	r3, r3, #4
 1246              		.loc 1 832 51 view .LVU375
 1247 0020 1D49     		ldr	r1, .L85
 1248 0022 81FB0313 		smull	r1, r3, r1, r3
 1249              		.loc 1 832 21 view .LVU376
 1250 0026 C3F34F03 		ubfx	r3, r3, #1, #16
 1251              	.LVL141:
 833:Middlewares/Third_Party/SubGHz_Phy/radio_driver/lr_fhss_mac.c ****         break;
 1252              		.loc 1 833 9 is_stmt 1 view .LVU377
 1253              	.L76:
 834:Middlewares/Third_Party/SubGHz_Phy/radio_driver/lr_fhss_mac.c **** 
 835:Middlewares/Third_Party/SubGHz_Phy/radio_driver/lr_fhss_mac.c ****     case LR_FHSS_V1_CR_2_3:
 836:Middlewares/Third_Party/SubGHz_Phy/radio_driver/lr_fhss_mac.c ****         length_bits = length_bits * 3 / 2;
 837:Middlewares/Third_Party/SubGHz_Phy/radio_driver/lr_fhss_mac.c ****         break;
 838:Middlewares/Third_Party/SubGHz_Phy/radio_driver/lr_fhss_mac.c **** 
 839:Middlewares/Third_Party/SubGHz_Phy/radio_driver/lr_fhss_mac.c ****     case LR_FHSS_V1_CR_1_2:
 840:Middlewares/Third_Party/SubGHz_Phy/radio_driver/lr_fhss_mac.c ****         length_bits = length_bits * 2;
 841:Middlewares/Third_Party/SubGHz_Phy/radio_driver/lr_fhss_mac.c ****         break;
 842:Middlewares/Third_Party/SubGHz_Phy/radio_driver/lr_fhss_mac.c **** 
 843:Middlewares/Third_Party/SubGHz_Phy/radio_driver/lr_fhss_mac.c ****     case LR_FHSS_V1_CR_1_3:
 844:Middlewares/Third_Party/SubGHz_Phy/radio_driver/lr_fhss_mac.c ****         length_bits = length_bits * 3;
 845:Middlewares/Third_Party/SubGHz_Phy/radio_driver/lr_fhss_mac.c ****         break;
 846:Middlewares/Third_Party/SubGHz_Phy/radio_driver/lr_fhss_mac.c ****     }
 847:Middlewares/Third_Party/SubGHz_Phy/radio_driver/lr_fhss_mac.c **** 
 848:Middlewares/Third_Party/SubGHz_Phy/radio_driver/lr_fhss_mac.c ****     *nb_hops_out = ( length_bits + 47 ) / 48 + params->header_count;
 1254              		.loc 1 848 5 view .LVU378
 1255              		.loc 1 848 34 is_stmt 0 view .LVU379
 1256 002a 03F12F01 		add	r1, r3, #47
 1257              		.loc 1 848 41 view .LVU380
 1258 002e 1B4C     		ldr	r4, .L85+4
 1259 0030 84FB014C 		smull	r4, ip, r4, r1
 1260 0034 C917     		asrs	r1, r1, #31
 1261 0036 C1EBEC01 		rsb	r1, r1, ip, asr #3
 1262              		.loc 1 848 54 view .LVU381
 1263 003a 90F809C0 		ldrb	ip, [r0, #9]	@ zero_extendqisi2
 1264              		.loc 1 848 46 view .LVU382
 1265 003e 6144     		add	r1, r1, ip
 1266              		.loc 1 848 18 view .LVU383
 1267 0040 1170     		strb	r1, [r2]
 849:Middlewares/Third_Party/SubGHz_Phy/radio_driver/lr_fhss_mac.c **** 
 850:Middlewares/Third_Party/SubGHz_Phy/radio_driver/lr_fhss_mac.c ****     // calculate total number of payload bits, after breaking into blocks
 851:Middlewares/Third_Party/SubGHz_Phy/radio_driver/lr_fhss_mac.c ****     uint16_t payload_bits    = length_bits / LR_FHSS_FRAG_BITS * LR_FHSS_BLOCK_BITS;
 1268              		.loc 1 851 5 is_stmt 1 view .LVU384
 1269              		.loc 1 851 14 is_stmt 0 view .LVU385
 1270 0042 1749     		ldr	r1, .L85+8
 1271 0044 A1FB0321 		umull	r2, r1, r1, r3
 1272              	.LVL142:
 1273              		.loc 1 851 14 view .LVU386
 1274 0048 4909     		lsrs	r1, r1, #5
 1275 004a 01EB8102 		add	r2, r1, r1, lsl #2
 1276 004e 02EB8202 		add	r2, r2, r2, lsl #2
ARM GAS  /tmp/ccvq1YAY.s 			page 40


 1277 0052 5200     		lsls	r2, r2, #1
 1278 0054 92B2     		uxth	r2, r2
 1279              	.LVL143:
 852:Middlewares/Third_Party/SubGHz_Phy/radio_driver/lr_fhss_mac.c ****     uint16_t last_block_bits = length_bits % LR_FHSS_FRAG_BITS;
 1280              		.loc 1 852 5 is_stmt 1 view .LVU387
 1281              		.loc 1 852 14 is_stmt 0 view .LVU388
 1282 0056 01EB4101 		add	r1, r1, r1, lsl #1
 1283 005a A3EB0113 		sub	r3, r3, r1, lsl #4
 1284              	.LVL144:
 1285              		.loc 1 852 14 view .LVU389
 1286 005e 9BB2     		uxth	r3, r3
 1287              	.LVL145:
 853:Middlewares/Third_Party/SubGHz_Phy/radio_driver/lr_fhss_mac.c ****     if( last_block_bits > 0 )
 1288              		.loc 1 853 5 is_stmt 1 view .LVU390
 1289              		.loc 1 853 7 is_stmt 0 view .LVU391
 1290 0060 1BB1     		cbz	r3, .L82
 854:Middlewares/Third_Party/SubGHz_Phy/radio_driver/lr_fhss_mac.c ****     {
 855:Middlewares/Third_Party/SubGHz_Phy/radio_driver/lr_fhss_mac.c ****         // add the 2 guard bits for the last block + the actual remaining payload bits
 856:Middlewares/Third_Party/SubGHz_Phy/radio_driver/lr_fhss_mac.c ****         payload_bits += last_block_bits + 2;
 1291              		.loc 1 856 9 is_stmt 1 view .LVU392
 1292              		.loc 1 856 22 is_stmt 0 view .LVU393
 1293 0062 1A44     		add	r2, r2, r3
 1294              	.LVL146:
 1295              		.loc 1 856 22 view .LVU394
 1296 0064 92B2     		uxth	r2, r2
 1297 0066 0232     		adds	r2, r2, #2
 1298 0068 92B2     		uxth	r2, r2
 1299              	.L82:
 1300              	.LVL147:
 857:Middlewares/Third_Party/SubGHz_Phy/radio_driver/lr_fhss_mac.c ****     }
 858:Middlewares/Third_Party/SubGHz_Phy/radio_driver/lr_fhss_mac.c **** 
 859:Middlewares/Third_Party/SubGHz_Phy/radio_driver/lr_fhss_mac.c ****     return ( LR_FHSS_HEADER_BITS * params->header_count ) + payload_bits;
 1301              		.loc 1 859 5 is_stmt 1 view .LVU395
 1302              		.loc 1 859 42 is_stmt 0 view .LVU396
 1303 006a 437A     		ldrb	r3, [r0, #9]	@ zero_extendqisi2
 1304              	.LVL148:
 1305              		.loc 1 859 59 view .LVU397
 1306 006c C3EBC301 		rsb	r1, r3, r3, lsl #3
 1307 0070 03EBC103 		add	r3, r3, r1, lsl #3
 1308 0074 02EB4300 		add	r0, r2, r3, lsl #1
 1309              	.LVL149:
 860:Middlewares/Third_Party/SubGHz_Phy/radio_driver/lr_fhss_mac.c **** }
 1310              		.loc 1 860 1 view .LVU398
 1311 0078 80B2     		uxth	r0, r0
 1312 007a 10BC     		pop	{r4}
 1313              		.cfi_remember_state
 1314              		.cfi_restore 4
 1315              		.cfi_def_cfa_offset 0
 1316 007c 7047     		bx	lr
 1317              	.LVL150:
 1318              	.L80:
 1319              		.cfi_restore_state
 836:Middlewares/Third_Party/SubGHz_Phy/radio_driver/lr_fhss_mac.c ****         break;
 1320              		.loc 1 836 9 is_stmt 1 view .LVU399
 836:Middlewares/Third_Party/SubGHz_Phy/radio_driver/lr_fhss_mac.c ****         break;
 1321              		.loc 1 836 39 is_stmt 0 view .LVU400
 1322 007e 03EB4303 		add	r3, r3, r3, lsl #1
ARM GAS  /tmp/ccvq1YAY.s 			page 41


 1323              	.LVL151:
 836:Middlewares/Third_Party/SubGHz_Phy/radio_driver/lr_fhss_mac.c ****         break;
 1324              		.loc 1 836 21 view .LVU401
 1325 0082 C3F34F03 		ubfx	r3, r3, #1, #16
 1326              	.LVL152:
 837:Middlewares/Third_Party/SubGHz_Phy/radio_driver/lr_fhss_mac.c **** 
 1327              		.loc 1 837 9 is_stmt 1 view .LVU402
 1328 0086 D0E7     		b	.L76
 1329              	.L79:
 840:Middlewares/Third_Party/SubGHz_Phy/radio_driver/lr_fhss_mac.c ****         break;
 1330              		.loc 1 840 9 view .LVU403
 840:Middlewares/Third_Party/SubGHz_Phy/radio_driver/lr_fhss_mac.c ****         break;
 1331              		.loc 1 840 21 is_stmt 0 view .LVU404
 1332 0088 5B00     		lsls	r3, r3, #1
 1333              	.LVL153:
 840:Middlewares/Third_Party/SubGHz_Phy/radio_driver/lr_fhss_mac.c ****         break;
 1334              		.loc 1 840 21 view .LVU405
 1335 008a 9BB2     		uxth	r3, r3
 1336              	.LVL154:
 841:Middlewares/Third_Party/SubGHz_Phy/radio_driver/lr_fhss_mac.c **** 
 1337              		.loc 1 841 9 is_stmt 1 view .LVU406
 1338 008c CDE7     		b	.L76
 1339              	.L77:
 844:Middlewares/Third_Party/SubGHz_Phy/radio_driver/lr_fhss_mac.c ****         break;
 1340              		.loc 1 844 9 view .LVU407
 844:Middlewares/Third_Party/SubGHz_Phy/radio_driver/lr_fhss_mac.c ****         break;
 1341              		.loc 1 844 21 is_stmt 0 view .LVU408
 1342 008e 03EB4303 		add	r3, r3, r3, lsl #1
 1343              	.LVL155:
 844:Middlewares/Third_Party/SubGHz_Phy/radio_driver/lr_fhss_mac.c ****         break;
 1344              		.loc 1 844 21 view .LVU409
 1345 0092 9BB2     		uxth	r3, r3
 1346              	.LVL156:
 845:Middlewares/Third_Party/SubGHz_Phy/radio_driver/lr_fhss_mac.c ****     }
 1347              		.loc 1 845 9 is_stmt 1 view .LVU410
 1348 0094 C9E7     		b	.L76
 1349              	.L86:
 1350 0096 00BF     		.align	2
 1351              	.L85:
 1352 0098 67666666 		.word	1717986919
 1353 009c ABAAAA2A 		.word	715827883
 1354 00a0 ABAAAAAA 		.word	-1431655765
 1355              		.cfi_endproc
 1356              	.LFE21:
 1358              		.section	.text.lr_fhss_get_hop_sequence_count,"ax",%progbits
 1359              		.align	1
 1360              		.global	lr_fhss_get_hop_sequence_count
 1361              		.syntax unified
 1362              		.thumb
 1363              		.thumb_func
 1365              	lr_fhss_get_hop_sequence_count:
 1366              	.LVL157:
 1367              	.LFB1:
 325:Middlewares/Third_Party/SubGHz_Phy/radio_driver/lr_fhss_mac.c ****     if( ( params->grid == LR_FHSS_V1_GRID_25391_HZ ) ||
 1368              		.loc 1 325 1 view -0
 1369              		.cfi_startproc
 1370              		@ args = 0, pretend = 0, frame = 0
ARM GAS  /tmp/ccvq1YAY.s 			page 42


 1371              		@ frame_needed = 0, uses_anonymous_args = 0
 1372              		@ link register save eliminated.
 326:Middlewares/Third_Party/SubGHz_Phy/radio_driver/lr_fhss_mac.c ****         ( ( params->grid == LR_FHSS_V1_GRID_3906_HZ ) && ( params->bw < LR_FHSS_V1_BW_335938_HZ ) )
 1373              		.loc 1 326 5 view .LVU412
 326:Middlewares/Third_Party/SubGHz_Phy/radio_driver/lr_fhss_mac.c ****         ( ( params->grid == LR_FHSS_V1_GRID_3906_HZ ) && ( params->bw < LR_FHSS_V1_BW_335938_HZ ) )
 1374              		.loc 1 326 17 is_stmt 0 view .LVU413
 1375 0000 8379     		ldrb	r3, [r0, #6]	@ zero_extendqisi2
 326:Middlewares/Third_Party/SubGHz_Phy/radio_driver/lr_fhss_mac.c ****         ( ( params->grid == LR_FHSS_V1_GRID_3906_HZ ) && ( params->bw < LR_FHSS_V1_BW_335938_HZ ) )
 1376              		.loc 1 326 7 view .LVU414
 1377 0002 53B1     		cbz	r3, .L89
 326:Middlewares/Third_Party/SubGHz_Phy/radio_driver/lr_fhss_mac.c ****         ( ( params->grid == LR_FHSS_V1_GRID_3906_HZ ) && ( params->bw < LR_FHSS_V1_BW_335938_HZ ) )
 1378              		.loc 1 326 54 discriminator 1 view .LVU415
 1379 0004 012B     		cmp	r3, #1
 1380 0006 02D0     		beq	.L92
 331:Middlewares/Third_Party/SubGHz_Phy/radio_driver/lr_fhss_mac.c **** }
 1381              		.loc 1 331 12 view .LVU416
 1382 0008 4FF40070 		mov	r0, #512
 1383              	.LVL158:
 331:Middlewares/Third_Party/SubGHz_Phy/radio_driver/lr_fhss_mac.c **** }
 1384              		.loc 1 331 12 view .LVU417
 1385 000c 7047     		bx	lr
 1386              	.LVL159:
 1387              	.L92:
 327:Middlewares/Third_Party/SubGHz_Phy/radio_driver/lr_fhss_mac.c ****     {
 1388              		.loc 1 327 66 view .LVU418
 1389 000e C379     		ldrb	r3, [r0, #7]	@ zero_extendqisi2
 327:Middlewares/Third_Party/SubGHz_Phy/radio_driver/lr_fhss_mac.c ****     {
 1390              		.loc 1 327 55 view .LVU419
 1391 0010 032B     		cmp	r3, #3
 1392 0012 05D9     		bls	.L91
 331:Middlewares/Third_Party/SubGHz_Phy/radio_driver/lr_fhss_mac.c **** }
 1393              		.loc 1 331 12 view .LVU420
 1394 0014 4FF40070 		mov	r0, #512
 1395              	.LVL160:
 331:Middlewares/Third_Party/SubGHz_Phy/radio_driver/lr_fhss_mac.c **** }
 1396              		.loc 1 331 12 view .LVU421
 1397 0018 7047     		bx	lr
 1398              	.LVL161:
 1399              	.L89:
 329:Middlewares/Third_Party/SubGHz_Phy/radio_driver/lr_fhss_mac.c ****     }
 1400              		.loc 1 329 16 view .LVU422
 1401 001a 4FF4C070 		mov	r0, #384
 1402              	.LVL162:
 329:Middlewares/Third_Party/SubGHz_Phy/radio_driver/lr_fhss_mac.c ****     }
 1403              		.loc 1 329 16 view .LVU423
 1404 001e 7047     		bx	lr
 1405              	.LVL163:
 1406              	.L91:
 329:Middlewares/Third_Party/SubGHz_Phy/radio_driver/lr_fhss_mac.c ****     }
 1407              		.loc 1 329 16 view .LVU424
 1408 0020 4FF4C070 		mov	r0, #384
 1409              	.LVL164:
 332:Middlewares/Third_Party/SubGHz_Phy/radio_driver/lr_fhss_mac.c **** 
 1410              		.loc 1 332 1 view .LVU425
 1411 0024 7047     		bx	lr
 1412              		.cfi_endproc
 1413              	.LFE1:
ARM GAS  /tmp/ccvq1YAY.s 			page 43


 1415              		.section	.text.lr_fhss_process_parameters,"ax",%progbits
 1416              		.align	1
 1417              		.global	lr_fhss_process_parameters
 1418              		.syntax unified
 1419              		.thumb
 1420              		.thumb_func
 1422              	lr_fhss_process_parameters:
 1423              	.LVL165:
 1424              	.LFB2:
 335:Middlewares/Third_Party/SubGHz_Phy/radio_driver/lr_fhss_mac.c ****     digest->nb_bits = lr_fhss_get_bit_and_hop_count( params, payload_length, &digest->nb_hops );
 1425              		.loc 1 335 1 is_stmt 1 view -0
 1426              		.cfi_startproc
 1427              		@ args = 0, pretend = 0, frame = 0
 1428              		@ frame_needed = 0, uses_anonymous_args = 0
 335:Middlewares/Third_Party/SubGHz_Phy/radio_driver/lr_fhss_mac.c ****     digest->nb_bits = lr_fhss_get_bit_and_hop_count( params, payload_length, &digest->nb_hops );
 1429              		.loc 1 335 1 is_stmt 0 view .LVU427
 1430 0000 38B5     		push	{r3, r4, r5, lr}
 1431              		.cfi_def_cfa_offset 16
 1432              		.cfi_offset 3, -16
 1433              		.cfi_offset 4, -12
 1434              		.cfi_offset 5, -8
 1435              		.cfi_offset 14, -4
 1436 0002 0546     		mov	r5, r0
 1437 0004 1446     		mov	r4, r2
 336:Middlewares/Third_Party/SubGHz_Phy/radio_driver/lr_fhss_mac.c **** 
 1438              		.loc 1 336 5 is_stmt 1 view .LVU428
 336:Middlewares/Third_Party/SubGHz_Phy/radio_driver/lr_fhss_mac.c **** 
 1439              		.loc 1 336 23 is_stmt 0 view .LVU429
 1440 0006 0432     		adds	r2, r2, #4
 1441              	.LVL166:
 336:Middlewares/Third_Party/SubGHz_Phy/radio_driver/lr_fhss_mac.c **** 
 1442              		.loc 1 336 23 view .LVU430
 1443 0008 FFF7FEFF 		bl	lr_fhss_get_bit_and_hop_count
 1444              	.LVL167:
 336:Middlewares/Third_Party/SubGHz_Phy/radio_driver/lr_fhss_mac.c **** 
 1445              		.loc 1 336 21 discriminator 1 view .LVU431
 1446 000c 6080     		strh	r0, [r4, #2]	@ movhi
 338:Middlewares/Third_Party/SubGHz_Phy/radio_driver/lr_fhss_mac.c ****     if( params->enable_hopping )
 1447              		.loc 1 338 5 is_stmt 1 view .LVU432
 338:Middlewares/Third_Party/SubGHz_Phy/radio_driver/lr_fhss_mac.c ****     if( params->enable_hopping )
 1448              		.loc 1 338 52 is_stmt 0 view .LVU433
 1449 000e C31D     		adds	r3, r0, #7
 1450 0010 DB10     		asrs	r3, r3, #3
 338:Middlewares/Third_Party/SubGHz_Phy/radio_driver/lr_fhss_mac.c ****     if( params->enable_hopping )
 1451              		.loc 1 338 22 view .LVU434
 1452 0012 2380     		strh	r3, [r4]	@ movhi
 339:Middlewares/Third_Party/SubGHz_Phy/radio_driver/lr_fhss_mac.c ****     {
 1453              		.loc 1 339 5 is_stmt 1 view .LVU435
 339:Middlewares/Third_Party/SubGHz_Phy/radio_driver/lr_fhss_mac.c ****     {
 1454              		.loc 1 339 15 is_stmt 0 view .LVU436
 1455 0014 2B7A     		ldrb	r3, [r5, #8]	@ zero_extendqisi2
 339:Middlewares/Third_Party/SubGHz_Phy/radio_driver/lr_fhss_mac.c ****     {
 1456              		.loc 1 339 7 view .LVU437
 1457 0016 0BB9     		cbnz	r3, .L93
 345:Middlewares/Third_Party/SubGHz_Phy/radio_driver/lr_fhss_mac.c ****     }
 1458              		.loc 1 345 9 is_stmt 1 view .LVU438
 345:Middlewares/Third_Party/SubGHz_Phy/radio_driver/lr_fhss_mac.c ****     }
ARM GAS  /tmp/ccvq1YAY.s 			page 44


 1459              		.loc 1 345 25 is_stmt 0 view .LVU439
 1460 0018 0123     		movs	r3, #1
 1461 001a 2371     		strb	r3, [r4, #4]
 1462              	.L93:
 347:Middlewares/Third_Party/SubGHz_Phy/radio_driver/lr_fhss_mac.c **** 
 1463              		.loc 1 347 1 view .LVU440
 1464 001c 38BD     		pop	{r3, r4, r5, pc}
 347:Middlewares/Third_Party/SubGHz_Phy/radio_driver/lr_fhss_mac.c **** 
 1465              		.loc 1 347 1 view .LVU441
 1466              		.cfi_endproc
 1467              	.LFE2:
 1469              		.section	.text.lr_fhss_get_hop_params,"ax",%progbits
 1470              		.align	1
 1471              		.global	lr_fhss_get_hop_params
 1472              		.syntax unified
 1473              		.thumb
 1474              		.thumb_func
 1476              	lr_fhss_get_hop_params:
 1477              	.LVL168:
 1478              	.LFB3:
 351:Middlewares/Third_Party/SubGHz_Phy/radio_driver/lr_fhss_mac.c ****     uint32_t channel_count = lr_fhss_channel_count[params->bw];
 1479              		.loc 1 351 1 is_stmt 1 view -0
 1480              		.cfi_startproc
 1481              		@ args = 0, pretend = 0, frame = 0
 1482              		@ frame_needed = 0, uses_anonymous_args = 0
 1483              		@ link register save eliminated.
 351:Middlewares/Third_Party/SubGHz_Phy/radio_driver/lr_fhss_mac.c ****     uint32_t channel_count = lr_fhss_channel_count[params->bw];
 1484              		.loc 1 351 1 is_stmt 0 view .LVU443
 1485 0000 10B4     		push	{r4}
 1486              		.cfi_def_cfa_offset 4
 1487              		.cfi_offset 4, -4
 352:Middlewares/Third_Party/SubGHz_Phy/radio_driver/lr_fhss_mac.c **** 
 1488              		.loc 1 352 5 is_stmt 1 view .LVU444
 352:Middlewares/Third_Party/SubGHz_Phy/radio_driver/lr_fhss_mac.c **** 
 1489              		.loc 1 352 58 is_stmt 0 view .LVU445
 1490 0002 90F807C0 		ldrb	ip, [r0, #7]	@ zero_extendqisi2
 352:Middlewares/Third_Party/SubGHz_Phy/radio_driver/lr_fhss_mac.c **** 
 1491              		.loc 1 352 51 view .LVU446
 1492 0006 464C     		ldr	r4, .L126
 1493 0008 34F81CC0 		ldrh	ip, [r4, ip, lsl #1]
 1494              	.LVL169:
 354:Middlewares/Third_Party/SubGHz_Phy/radio_driver/lr_fhss_mac.c ****     {
 1495              		.loc 1 354 5 is_stmt 1 view .LVU447
 354:Middlewares/Third_Party/SubGHz_Phy/radio_driver/lr_fhss_mac.c ****     {
 1496              		.loc 1 354 15 is_stmt 0 view .LVU448
 1497 000c 8079     		ldrb	r0, [r0, #6]	@ zero_extendqisi2
 1498              	.LVL170:
 354:Middlewares/Third_Party/SubGHz_Phy/radio_driver/lr_fhss_mac.c ****     {
 1499              		.loc 1 354 7 view .LVU449
 1500 000e 0128     		cmp	r0, #1
 1501 0010 21D0     		beq	.L119
 360:Middlewares/Third_Party/SubGHz_Phy/radio_driver/lr_fhss_mac.c ****     }
 1502              		.loc 1 360 9 is_stmt 1 view .LVU450
 360:Middlewares/Third_Party/SubGHz_Phy/radio_driver/lr_fhss_mac.c ****     }
 1503              		.loc 1 360 44 is_stmt 0 view .LVU451
 1504 0012 4448     		ldr	r0, .L126+4
 1505 0014 A0FB0C0C 		umull	r0, ip, r0, ip
ARM GAS  /tmp/ccvq1YAY.s 			page 45


 1506              	.LVL171:
 360:Middlewares/Third_Party/SubGHz_Phy/radio_driver/lr_fhss_mac.c ****     }
 1507              		.loc 1 360 44 view .LVU452
 1508 0018 4FEA1C1C 		lsr	ip, ip, #4
 360:Middlewares/Third_Party/SubGHz_Phy/radio_driver/lr_fhss_mac.c ****     }
 1509              		.loc 1 360 28 view .LVU453
 1510 001c A1F800C0 		strh	ip, [r1]	@ movhi
 1511              	.LVL172:
 1512              	.L99:
 363:Middlewares/Third_Party/SubGHz_Phy/radio_driver/lr_fhss_mac.c ****     {
 1513              		.loc 1 363 5 is_stmt 1 view .LVU454
 363:Middlewares/Third_Party/SubGHz_Phy/radio_driver/lr_fhss_mac.c ****     {
 1514              		.loc 1 363 23 is_stmt 0 view .LVU455
 1515 0020 0888     		ldrh	r0, [r1]
 363:Middlewares/Third_Party/SubGHz_Phy/radio_driver/lr_fhss_mac.c ****     {
 1516              		.loc 1 363 5 view .LVU456
 1517 0022 6328     		cmp	r0, #99
 1518 0024 3BD0     		beq	.L100
 1519 0026 46D8     		bhi	.L101
 1520 0028 3E28     		cmp	r0, #62
 1521 002a 36D8     		bhi	.L102
 1522 002c 2328     		cmp	r0, #35
 1523 002e 17D3     		bcc	.L120
 1524 0030 2338     		subs	r0, r0, #35
 1525 0032 1B28     		cmp	r0, #27
 1526 0034 72D8     		bhi	.L114
 1527 0036 DFE800F0 		tbb	[pc, r0]
 1528              	.L107:
 1529 003a 1D       		.byte	(.L108-.L107)/2
 1530 003b 71       		.byte	(.L114-.L107)/2
 1531 003c 71       		.byte	(.L114-.L107)/2
 1532 003d 71       		.byte	(.L114-.L107)/2
 1533 003e 71       		.byte	(.L114-.L107)/2
 1534 003f 71       		.byte	(.L114-.L107)/2
 1535 0040 71       		.byte	(.L114-.L107)/2
 1536 0041 71       		.byte	(.L114-.L107)/2
 1537 0042 71       		.byte	(.L114-.L107)/2
 1538 0043 71       		.byte	(.L114-.L107)/2
 1539 0044 71       		.byte	(.L114-.L107)/2
 1540 0045 71       		.byte	(.L114-.L107)/2
 1541 0046 1D       		.byte	(.L108-.L107)/2
 1542 0047 71       		.byte	(.L114-.L107)/2
 1543 0048 71       		.byte	(.L114-.L107)/2
 1544 0049 71       		.byte	(.L114-.L107)/2
 1545 004a 71       		.byte	(.L114-.L107)/2
 1546 004b 71       		.byte	(.L114-.L107)/2
 1547 004c 71       		.byte	(.L114-.L107)/2
 1548 004d 71       		.byte	(.L114-.L107)/2
 1549 004e 71       		.byte	(.L114-.L107)/2
 1550 004f 71       		.byte	(.L114-.L107)/2
 1551 0050 71       		.byte	(.L114-.L107)/2
 1552 0051 71       		.byte	(.L114-.L107)/2
 1553 0052 71       		.byte	(.L114-.L107)/2
 1554 0053 61       		.byte	(.L106-.L107)/2
 1555 0054 71       		.byte	(.L114-.L107)/2
 1556 0055 61       		.byte	(.L106-.L107)/2
 1557              	.LVL173:
ARM GAS  /tmp/ccvq1YAY.s 			page 46


 1558              		.p2align 1
 1559              	.L119:
 356:Middlewares/Third_Party/SubGHz_Phy/radio_driver/lr_fhss_mac.c ****     }
 1560              		.loc 1 356 9 is_stmt 1 view .LVU457
 356:Middlewares/Third_Party/SubGHz_Phy/radio_driver/lr_fhss_mac.c ****     }
 1561              		.loc 1 356 44 is_stmt 0 view .LVU458
 1562 0056 4FEADC0C 		lsr	ip, ip, #3
 1563              	.LVL174:
 356:Middlewares/Third_Party/SubGHz_Phy/radio_driver/lr_fhss_mac.c ****     }
 1564              		.loc 1 356 28 view .LVU459
 1565 005a A1F800C0 		strh	ip, [r1]	@ movhi
 1566              	.LVL175:
 356:Middlewares/Third_Party/SubGHz_Phy/radio_driver/lr_fhss_mac.c ****     }
 1567              		.loc 1 356 28 view .LVU460
 1568 005e DFE7     		b	.L99
 1569              	.L120:
 363:Middlewares/Third_Party/SubGHz_Phy/radio_driver/lr_fhss_mac.c ****     {
 1570              		.loc 1 363 5 view .LVU461
 1571 0060 1E28     		cmp	r0, #30
 1572 0062 59D8     		bhi	.L113
 1573 0064 0A28     		cmp	r0, #10
 1574 0066 14D3     		bcc	.L121
 1575 0068 2F4C     		ldr	r4, .L126+8
 1576 006a 24FA00F0 		lsr	r0, r4, r0
 1577 006e 10F0010F 		tst	r0, #1
 1578 0072 10D0     		beq	.L122
 1579              	.L108:
 372:Middlewares/Third_Party/SubGHz_Phy/radio_driver/lr_fhss_mac.c ****         hop_params->polynomial  = lr_fhss_lfsr_poly1[hop_sequence_id >> 6];
 1580              		.loc 1 372 9 is_stmt 1 view .LVU462
 372:Middlewares/Third_Party/SubGHz_Phy/radio_driver/lr_fhss_mac.c ****         hop_params->polynomial  = lr_fhss_lfsr_poly1[hop_sequence_id >> 6];
 1581              		.loc 1 372 33 is_stmt 0 view .LVU463
 1582 0074 0620     		movs	r0, #6
 1583 0076 1080     		strh	r0, [r2]	@ movhi
 373:Middlewares/Third_Party/SubGHz_Phy/radio_driver/lr_fhss_mac.c ****         hop_params->xoring_seed = hop_sequence_id & 0x3F;
 1584              		.loc 1 373 9 is_stmt 1 view .LVU464
 373:Middlewares/Third_Party/SubGHz_Phy/radio_driver/lr_fhss_mac.c ****         hop_params->xoring_seed = hop_sequence_id & 0x3F;
 1585              		.loc 1 373 70 is_stmt 0 view .LVU465
 1586 0078 23FA00F2 		lsr	r2, r3, r0
 1587              	.LVL176:
 373:Middlewares/Third_Party/SubGHz_Phy/radio_driver/lr_fhss_mac.c ****         hop_params->xoring_seed = hop_sequence_id & 0x3F;
 1588              		.loc 1 373 53 view .LVU466
 1589 007c 2B48     		ldr	r0, .L126+12
 1590 007e 825C     		ldrb	r2, [r0, r2]	@ zero_extendqisi2
 373:Middlewares/Third_Party/SubGHz_Phy/radio_driver/lr_fhss_mac.c ****         hop_params->xoring_seed = hop_sequence_id & 0x3F;
 1591              		.loc 1 373 33 view .LVU467
 1592 0080 4A80     		strh	r2, [r1, #2]	@ movhi
 374:Middlewares/Third_Party/SubGHz_Phy/radio_driver/lr_fhss_mac.c ****         if( hop_sequence_id >= 384 )
 1593              		.loc 1 374 9 is_stmt 1 view .LVU468
 374:Middlewares/Third_Party/SubGHz_Phy/radio_driver/lr_fhss_mac.c ****         if( hop_sequence_id >= 384 )
 1594              		.loc 1 374 51 is_stmt 0 view .LVU469
 1595 0082 03F03F02 		and	r2, r3, #63
 374:Middlewares/Third_Party/SubGHz_Phy/radio_driver/lr_fhss_mac.c ****         if( hop_sequence_id >= 384 )
 1596              		.loc 1 374 33 view .LVU470
 1597 0086 8A80     		strh	r2, [r1, #4]	@ movhi
 375:Middlewares/Third_Party/SubGHz_Phy/radio_driver/lr_fhss_mac.c ****         {
 1598              		.loc 1 375 9 is_stmt 1 view .LVU471
 375:Middlewares/Third_Party/SubGHz_Phy/radio_driver/lr_fhss_mac.c ****         {
ARM GAS  /tmp/ccvq1YAY.s 			page 47


 1599              		.loc 1 375 11 is_stmt 0 view .LVU472
 1600 0088 B3F5C07F 		cmp	r3, #384
 1601 008c 30D3     		bcc	.L112
 377:Middlewares/Third_Party/SubGHz_Phy/radio_driver/lr_fhss_mac.c ****         }
 1602              		.loc 1 377 20 view .LVU473
 1603 008e 0320     		movs	r0, #3
 1604 0090 30E0     		b	.L104
 1605              	.LVL177:
 1606              	.L121:
 363:Middlewares/Third_Party/SubGHz_Phy/radio_driver/lr_fhss_mac.c ****     {
 1607              		.loc 1 363 5 view .LVU474
 1608 0092 0320     		movs	r0, #3
 1609 0094 2EE0     		b	.L104
 1610              	.L122:
 1611 0096 0320     		movs	r0, #3
 1612 0098 2CE0     		b	.L104
 1613              	.L102:
 1614 009a 5628     		cmp	r0, #86
 1615 009c 09D1     		bne	.L123
 1616              	.L100:
 396:Middlewares/Third_Party/SubGHz_Phy/radio_driver/lr_fhss_mac.c ****         hop_params->polynomial  = lr_fhss_lfsr_poly2[hop_sequence_id >> 7];
 1617              		.loc 1 396 9 is_stmt 1 view .LVU475
 396:Middlewares/Third_Party/SubGHz_Phy/radio_driver/lr_fhss_mac.c ****         hop_params->polynomial  = lr_fhss_lfsr_poly2[hop_sequence_id >> 7];
 1618              		.loc 1 396 33 is_stmt 0 view .LVU476
 1619 009e 0620     		movs	r0, #6
 1620 00a0 1080     		strh	r0, [r2]	@ movhi
 397:Middlewares/Third_Party/SubGHz_Phy/radio_driver/lr_fhss_mac.c ****         hop_params->xoring_seed = hop_sequence_id & 0x7F;
 1621              		.loc 1 397 9 is_stmt 1 view .LVU477
 397:Middlewares/Third_Party/SubGHz_Phy/radio_driver/lr_fhss_mac.c ****         hop_params->xoring_seed = hop_sequence_id & 0x7F;
 1622              		.loc 1 397 70 is_stmt 0 view .LVU478
 1623 00a2 DA09     		lsrs	r2, r3, #7
 1624              	.LVL178:
 397:Middlewares/Third_Party/SubGHz_Phy/radio_driver/lr_fhss_mac.c ****         hop_params->xoring_seed = hop_sequence_id & 0x7F;
 1625              		.loc 1 397 53 view .LVU479
 1626 00a4 2248     		ldr	r0, .L126+16
 1627 00a6 825C     		ldrb	r2, [r0, r2]	@ zero_extendqisi2
 397:Middlewares/Third_Party/SubGHz_Phy/radio_driver/lr_fhss_mac.c ****         hop_params->xoring_seed = hop_sequence_id & 0x7F;
 1628              		.loc 1 397 33 view .LVU480
 1629 00a8 4A80     		strh	r2, [r1, #2]	@ movhi
 398:Middlewares/Third_Party/SubGHz_Phy/radio_driver/lr_fhss_mac.c ****         break;
 1630              		.loc 1 398 9 is_stmt 1 view .LVU481
 398:Middlewares/Third_Party/SubGHz_Phy/radio_driver/lr_fhss_mac.c ****         break;
 1631              		.loc 1 398 51 is_stmt 0 view .LVU482
 1632 00aa 03F07F02 		and	r2, r3, #127
 398:Middlewares/Third_Party/SubGHz_Phy/radio_driver/lr_fhss_mac.c ****         break;
 1633              		.loc 1 398 33 view .LVU483
 1634 00ae 8A80     		strh	r2, [r1, #4]	@ movhi
 399:Middlewares/Third_Party/SubGHz_Phy/radio_driver/lr_fhss_mac.c ****     }
 1635              		.loc 1 399 9 is_stmt 1 view .LVU484
 1636 00b0 1EE0     		b	.L112
 1637              	.LVL179:
 1638              	.L123:
 363:Middlewares/Third_Party/SubGHz_Phy/radio_driver/lr_fhss_mac.c ****     {
 1639              		.loc 1 363 5 is_stmt 0 view .LVU485
 1640 00b2 0320     		movs	r0, #3
 1641 00b4 1EE0     		b	.L104
 1642              	.L101:
ARM GAS  /tmp/ccvq1YAY.s 			page 48


 1643 00b6 B0F5C37F 		cmp	r0, #390
 1644 00ba 13D0     		beq	.L109
 1645 00bc 0ED8     		bhi	.L110
 1646 00be B928     		cmp	r0, #185
 1647 00c0 01D0     		beq	.L111
 1648 00c2 C628     		cmp	r0, #198
 1649 00c4 08D1     		bne	.L124
 1650              	.L111:
 404:Middlewares/Third_Party/SubGHz_Phy/radio_driver/lr_fhss_mac.c ****         hop_params->polynomial  = lr_fhss_lfsr_poly3[hop_sequence_id >> 8];
 1651              		.loc 1 404 9 is_stmt 1 view .LVU486
 404:Middlewares/Third_Party/SubGHz_Phy/radio_driver/lr_fhss_mac.c ****         hop_params->polynomial  = lr_fhss_lfsr_poly3[hop_sequence_id >> 8];
 1652              		.loc 1 404 33 is_stmt 0 view .LVU487
 1653 00c6 0620     		movs	r0, #6
 1654 00c8 1080     		strh	r0, [r2]	@ movhi
 405:Middlewares/Third_Party/SubGHz_Phy/radio_driver/lr_fhss_mac.c ****         hop_params->xoring_seed = hop_sequence_id & 0xFF;
 1655              		.loc 1 405 9 is_stmt 1 view .LVU488
 405:Middlewares/Third_Party/SubGHz_Phy/radio_driver/lr_fhss_mac.c ****         hop_params->xoring_seed = hop_sequence_id & 0xFF;
 1656              		.loc 1 405 70 is_stmt 0 view .LVU489
 1657 00ca 1A0A     		lsrs	r2, r3, #8
 1658              	.LVL180:
 405:Middlewares/Third_Party/SubGHz_Phy/radio_driver/lr_fhss_mac.c ****         hop_params->xoring_seed = hop_sequence_id & 0xFF;
 1659              		.loc 1 405 53 view .LVU490
 1660 00cc 1948     		ldr	r0, .L126+20
 1661 00ce 825C     		ldrb	r2, [r0, r2]	@ zero_extendqisi2
 405:Middlewares/Third_Party/SubGHz_Phy/radio_driver/lr_fhss_mac.c ****         hop_params->xoring_seed = hop_sequence_id & 0xFF;
 1662              		.loc 1 405 33 view .LVU491
 1663 00d0 4A80     		strh	r2, [r1, #2]	@ movhi
 406:Middlewares/Third_Party/SubGHz_Phy/radio_driver/lr_fhss_mac.c ****         break;
 1664              		.loc 1 406 9 is_stmt 1 view .LVU492
 406:Middlewares/Third_Party/SubGHz_Phy/radio_driver/lr_fhss_mac.c ****         break;
 1665              		.loc 1 406 51 is_stmt 0 view .LVU493
 1666 00d2 DAB2     		uxtb	r2, r3
 406:Middlewares/Third_Party/SubGHz_Phy/radio_driver/lr_fhss_mac.c ****         break;
 1667              		.loc 1 406 33 view .LVU494
 1668 00d4 8A80     		strh	r2, [r1, #4]	@ movhi
 407:Middlewares/Third_Party/SubGHz_Phy/radio_driver/lr_fhss_mac.c ****     }
 1669              		.loc 1 407 9 is_stmt 1 view .LVU495
 1670 00d6 0BE0     		b	.L112
 1671              	.LVL181:
 1672              	.L124:
 363:Middlewares/Third_Party/SubGHz_Phy/radio_driver/lr_fhss_mac.c ****     {
 1673              		.loc 1 363 5 is_stmt 0 view .LVU496
 1674 00d8 0320     		movs	r0, #3
 1675 00da 0BE0     		b	.L104
 1676              	.L110:
 1677 00dc 40F29314 		movw	r4, #403
 1678 00e0 A042     		cmp	r0, r4
 1679 00e2 09D1     		bne	.L125
 1680              	.L109:
 412:Middlewares/Third_Party/SubGHz_Phy/radio_driver/lr_fhss_mac.c ****         hop_params->polynomial  = 264;
 1681              		.loc 1 412 9 is_stmt 1 view .LVU497
 412:Middlewares/Third_Party/SubGHz_Phy/radio_driver/lr_fhss_mac.c ****         hop_params->polynomial  = 264;
 1682              		.loc 1 412 33 is_stmt 0 view .LVU498
 1683 00e4 0620     		movs	r0, #6
 1684 00e6 1080     		strh	r0, [r2]	@ movhi
 413:Middlewares/Third_Party/SubGHz_Phy/radio_driver/lr_fhss_mac.c ****         hop_params->xoring_seed = hop_sequence_id;
 1685              		.loc 1 413 9 is_stmt 1 view .LVU499
ARM GAS  /tmp/ccvq1YAY.s 			page 49


 413:Middlewares/Third_Party/SubGHz_Phy/radio_driver/lr_fhss_mac.c ****         hop_params->xoring_seed = hop_sequence_id;
 1686              		.loc 1 413 33 is_stmt 0 view .LVU500
 1687 00e8 4FF48472 		mov	r2, #264
 1688              	.LVL182:
 413:Middlewares/Third_Party/SubGHz_Phy/radio_driver/lr_fhss_mac.c ****         hop_params->xoring_seed = hop_sequence_id;
 1689              		.loc 1 413 33 view .LVU501
 1690 00ec 4A80     		strh	r2, [r1, #2]	@ movhi
 414:Middlewares/Third_Party/SubGHz_Phy/radio_driver/lr_fhss_mac.c ****         break;
 1691              		.loc 1 414 9 is_stmt 1 view .LVU502
 414:Middlewares/Third_Party/SubGHz_Phy/radio_driver/lr_fhss_mac.c ****         break;
 1692              		.loc 1 414 33 is_stmt 0 view .LVU503
 1693 00ee 8B80     		strh	r3, [r1, #4]	@ movhi
 415:Middlewares/Third_Party/SubGHz_Phy/radio_driver/lr_fhss_mac.c ****     }
 1694              		.loc 1 415 9 is_stmt 1 view .LVU504
 1695              	.L112:
 421:Middlewares/Third_Party/SubGHz_Phy/radio_driver/lr_fhss_mac.c **** 
 1696              		.loc 1 421 5 view .LVU505
 421:Middlewares/Third_Party/SubGHz_Phy/radio_driver/lr_fhss_mac.c **** 
 1697              		.loc 1 421 33 is_stmt 0 view .LVU506
 1698 00f0 CB80     		strh	r3, [r1, #6]	@ movhi
 423:Middlewares/Third_Party/SubGHz_Phy/radio_driver/lr_fhss_mac.c **** }
 1699              		.loc 1 423 5 is_stmt 1 view .LVU507
 423:Middlewares/Third_Party/SubGHz_Phy/radio_driver/lr_fhss_mac.c **** }
 1700              		.loc 1 423 12 is_stmt 0 view .LVU508
 1701 00f2 0020     		movs	r0, #0
 1702              	.L104:
 424:Middlewares/Third_Party/SubGHz_Phy/radio_driver/lr_fhss_mac.c **** 
 1703              		.loc 1 424 1 view .LVU509
 1704 00f4 10BC     		pop	{r4}
 1705              		.cfi_remember_state
 1706              		.cfi_restore 4
 1707              		.cfi_def_cfa_offset 0
 1708 00f6 7047     		bx	lr
 1709              	.LVL183:
 1710              	.L125:
 1711              		.cfi_restore_state
 363:Middlewares/Third_Party/SubGHz_Phy/radio_driver/lr_fhss_mac.c ****     {
 1712              		.loc 1 363 5 view .LVU510
 1713 00f8 0320     		movs	r0, #3
 1714 00fa FBE7     		b	.L104
 1715              	.L106:
 384:Middlewares/Third_Party/SubGHz_Phy/radio_driver/lr_fhss_mac.c ****         hop_params->polynomial  = lr_fhss_lfsr_poly1[hop_sequence_id >> 6];
 1716              		.loc 1 384 9 is_stmt 1 view .LVU511
 384:Middlewares/Third_Party/SubGHz_Phy/radio_driver/lr_fhss_mac.c ****         hop_params->polynomial  = lr_fhss_lfsr_poly1[hop_sequence_id >> 6];
 1717              		.loc 1 384 33 is_stmt 0 view .LVU512
 1718 00fc 3820     		movs	r0, #56
 1719 00fe 1080     		strh	r0, [r2]	@ movhi
 385:Middlewares/Third_Party/SubGHz_Phy/radio_driver/lr_fhss_mac.c ****         hop_params->xoring_seed = hop_sequence_id & 0x3F;
 1720              		.loc 1 385 9 is_stmt 1 view .LVU513
 385:Middlewares/Third_Party/SubGHz_Phy/radio_driver/lr_fhss_mac.c ****         hop_params->xoring_seed = hop_sequence_id & 0x3F;
 1721              		.loc 1 385 70 is_stmt 0 view .LVU514
 1722 0100 9A09     		lsrs	r2, r3, #6
 1723              	.LVL184:
 385:Middlewares/Third_Party/SubGHz_Phy/radio_driver/lr_fhss_mac.c ****         hop_params->xoring_seed = hop_sequence_id & 0x3F;
 1724              		.loc 1 385 53 view .LVU515
 1725 0102 0A48     		ldr	r0, .L126+12
 1726 0104 825C     		ldrb	r2, [r0, r2]	@ zero_extendqisi2
ARM GAS  /tmp/ccvq1YAY.s 			page 50


 385:Middlewares/Third_Party/SubGHz_Phy/radio_driver/lr_fhss_mac.c ****         hop_params->xoring_seed = hop_sequence_id & 0x3F;
 1727              		.loc 1 385 33 view .LVU516
 1728 0106 4A80     		strh	r2, [r1, #2]	@ movhi
 386:Middlewares/Third_Party/SubGHz_Phy/radio_driver/lr_fhss_mac.c ****         if( hop_sequence_id >= 384 )
 1729              		.loc 1 386 9 is_stmt 1 view .LVU517
 386:Middlewares/Third_Party/SubGHz_Phy/radio_driver/lr_fhss_mac.c ****         if( hop_sequence_id >= 384 )
 1730              		.loc 1 386 51 is_stmt 0 view .LVU518
 1731 0108 03F03F02 		and	r2, r3, #63
 386:Middlewares/Third_Party/SubGHz_Phy/radio_driver/lr_fhss_mac.c ****         if( hop_sequence_id >= 384 )
 1732              		.loc 1 386 33 view .LVU519
 1733 010c 8A80     		strh	r2, [r1, #4]	@ movhi
 387:Middlewares/Third_Party/SubGHz_Phy/radio_driver/lr_fhss_mac.c ****         {
 1734              		.loc 1 387 9 is_stmt 1 view .LVU520
 387:Middlewares/Third_Party/SubGHz_Phy/radio_driver/lr_fhss_mac.c ****         {
 1735              		.loc 1 387 11 is_stmt 0 view .LVU521
 1736 010e B3F5C07F 		cmp	r3, #384
 1737 0112 EDD3     		bcc	.L112
 389:Middlewares/Third_Party/SubGHz_Phy/radio_driver/lr_fhss_mac.c ****         }
 1738              		.loc 1 389 20 view .LVU522
 1739 0114 0320     		movs	r0, #3
 1740 0116 EDE7     		b	.L104
 1741              	.LVL185:
 1742              	.L113:
 363:Middlewares/Third_Party/SubGHz_Phy/radio_driver/lr_fhss_mac.c ****     {
 1743              		.loc 1 363 5 view .LVU523
 1744 0118 0320     		movs	r0, #3
 1745 011a EBE7     		b	.L104
 1746              	.L114:
 1747 011c 0320     		movs	r0, #3
 1748 011e E9E7     		b	.L104
 1749              	.L127:
 1750              		.align	2
 1751              	.L126:
 1752 0120 00000000 		.word	lr_fhss_channel_count
 1753 0124 4FECC44E 		.word	1321528399
 1754 0128 00044050 		.word	1346372608
 1755 012c 00000000 		.word	lr_fhss_lfsr_poly1
 1756 0130 00000000 		.word	lr_fhss_lfsr_poly2
 1757 0134 00000000 		.word	lr_fhss_lfsr_poly3
 1758              		.cfi_endproc
 1759              	.LFE3:
 1761              		.section	.text.lr_fhss_get_next_state,"ax",%progbits
 1762              		.align	1
 1763              		.global	lr_fhss_get_next_state
 1764              		.syntax unified
 1765              		.thumb
 1766              		.thumb_func
 1768              	lr_fhss_get_next_state:
 1769              	.LFB4:
 427:Middlewares/Third_Party/SubGHz_Phy/radio_driver/lr_fhss_mac.c ****     uint16_t hop;
 1770              		.loc 1 427 1 is_stmt 1 view -0
 1771              		.cfi_startproc
 1772              		@ args = 0, pretend = 0, frame = 0
 1773              		@ frame_needed = 0, uses_anonymous_args = 0
 1774              		@ link register save eliminated.
 1775              	.LVL186:
 427:Middlewares/Third_Party/SubGHz_Phy/radio_driver/lr_fhss_mac.c ****     uint16_t hop;
ARM GAS  /tmp/ccvq1YAY.s 			page 51


 1776              		.loc 1 427 1 is_stmt 0 view .LVU525
 1777 0000 07E0     		b	.L131
 1778              	.LVL187:
 1779              	.L129:
 1780              	.LBB18:
 438:Middlewares/Third_Party/SubGHz_Phy/radio_driver/lr_fhss_mac.c ****         if( hop != *lfsr_state )
 1781              		.loc 1 438 9 is_stmt 1 view .LVU526
 438:Middlewares/Third_Party/SubGHz_Phy/radio_driver/lr_fhss_mac.c ****         if( hop != *lfsr_state )
 1782              		.loc 1 438 13 is_stmt 0 view .LVU527
 1783 0002 8B88     		ldrh	r3, [r1, #4]
 1784              	.LVL188:
 439:Middlewares/Third_Party/SubGHz_Phy/radio_driver/lr_fhss_mac.c ****         {
 1785              		.loc 1 439 9 is_stmt 1 view .LVU528
 439:Middlewares/Third_Party/SubGHz_Phy/radio_driver/lr_fhss_mac.c ****         {
 1786              		.loc 1 439 20 is_stmt 0 view .LVU529
 1787 0004 0288     		ldrh	r2, [r0]
 439:Middlewares/Third_Party/SubGHz_Phy/radio_driver/lr_fhss_mac.c ****         {
 1788              		.loc 1 439 11 view .LVU530
 1789 0006 9A42     		cmp	r2, r3
 1790 0008 00D0     		beq	.L130
 441:Middlewares/Third_Party/SubGHz_Phy/radio_driver/lr_fhss_mac.c ****         }
 1791              		.loc 1 441 13 is_stmt 1 view .LVU531
 441:Middlewares/Third_Party/SubGHz_Phy/radio_driver/lr_fhss_mac.c ****         }
 1792              		.loc 1 441 17 is_stmt 0 view .LVU532
 1793 000a 5340     		eors	r3, r3, r2
 1794              	.LVL189:
 1795              	.L130:
 441:Middlewares/Third_Party/SubGHz_Phy/radio_driver/lr_fhss_mac.c ****         }
 1796              		.loc 1 441 17 view .LVU533
 1797              	.LBE18:
 443:Middlewares/Third_Party/SubGHz_Phy/radio_driver/lr_fhss_mac.c **** 
 1798              		.loc 1 443 18 is_stmt 1 view .LVU534
 443:Middlewares/Third_Party/SubGHz_Phy/radio_driver/lr_fhss_mac.c **** 
 1799              		.loc 1 443 30 is_stmt 0 view .LVU535
 1800 000c 0A88     		ldrh	r2, [r1]
 443:Middlewares/Third_Party/SubGHz_Phy/radio_driver/lr_fhss_mac.c **** 
 1801              		.loc 1 443 18 view .LVU536
 1802 000e 9A42     		cmp	r2, r3
 1803 0010 09D2     		bcs	.L132
 1804              	.LVL190:
 1805              	.L131:
 428:Middlewares/Third_Party/SubGHz_Phy/radio_driver/lr_fhss_mac.c **** 
 1806              		.loc 1 428 5 is_stmt 1 view .LVU537
 430:Middlewares/Third_Party/SubGHz_Phy/radio_driver/lr_fhss_mac.c ****     {
 1807              		.loc 1 430 5 view .LVU538
 1808              	.LBB19:
 432:Middlewares/Third_Party/SubGHz_Phy/radio_driver/lr_fhss_mac.c ****         *lfsr_state >>= 1;
 1809              		.loc 1 432 9 view .LVU539
 432:Middlewares/Third_Party/SubGHz_Phy/radio_driver/lr_fhss_mac.c ****         *lfsr_state >>= 1;
 1810              		.loc 1 432 24 is_stmt 0 view .LVU540
 1811 0012 0288     		ldrh	r2, [r0]
 1812              	.LVL191:
 433:Middlewares/Third_Party/SubGHz_Phy/radio_driver/lr_fhss_mac.c ****         if( lsb )
 1813              		.loc 1 433 9 is_stmt 1 view .LVU541
 433:Middlewares/Third_Party/SubGHz_Phy/radio_driver/lr_fhss_mac.c ****         if( lsb )
 1814              		.loc 1 433 21 is_stmt 0 view .LVU542
 1815 0014 5308     		lsrs	r3, r2, #1
ARM GAS  /tmp/ccvq1YAY.s 			page 52


 1816 0016 0380     		strh	r3, [r0]	@ movhi
 434:Middlewares/Third_Party/SubGHz_Phy/radio_driver/lr_fhss_mac.c ****         {
 1817              		.loc 1 434 9 is_stmt 1 view .LVU543
 434:Middlewares/Third_Party/SubGHz_Phy/radio_driver/lr_fhss_mac.c ****         {
 1818              		.loc 1 434 11 is_stmt 0 view .LVU544
 1819 0018 12F0010F 		tst	r2, #1
 1820 001c F1D0     		beq	.L129
 436:Middlewares/Third_Party/SubGHz_Phy/radio_driver/lr_fhss_mac.c ****         }
 1821              		.loc 1 436 13 is_stmt 1 view .LVU545
 436:Middlewares/Third_Party/SubGHz_Phy/radio_driver/lr_fhss_mac.c ****         }
 1822              		.loc 1 436 38 is_stmt 0 view .LVU546
 1823 001e 4A88     		ldrh	r2, [r1, #2]
 1824              	.LVL192:
 436:Middlewares/Third_Party/SubGHz_Phy/radio_driver/lr_fhss_mac.c ****         }
 1825              		.loc 1 436 25 view .LVU547
 1826 0020 5340     		eors	r3, r3, r2
 1827 0022 0380     		strh	r3, [r0]	@ movhi
 1828 0024 EDE7     		b	.L129
 1829              	.LVL193:
 1830              	.L132:
 436:Middlewares/Third_Party/SubGHz_Phy/radio_driver/lr_fhss_mac.c ****         }
 1831              		.loc 1 436 25 view .LVU548
 1832              	.LBE19:
 445:Middlewares/Third_Party/SubGHz_Phy/radio_driver/lr_fhss_mac.c **** }
 1833              		.loc 1 445 5 is_stmt 1 view .LVU549
 445:Middlewares/Third_Party/SubGHz_Phy/radio_driver/lr_fhss_mac.c **** }
 1834              		.loc 1 445 16 is_stmt 0 view .LVU550
 1835 0026 581E     		subs	r0, r3, #1
 1836              	.LVL194:
 446:Middlewares/Third_Party/SubGHz_Phy/radio_driver/lr_fhss_mac.c **** 
 1837              		.loc 1 446 1 view .LVU551
 1838 0028 80B2     		uxth	r0, r0
 1839 002a 7047     		bx	lr
 1840              		.cfi_endproc
 1841              	.LFE4:
 1843              		.section	.text.lr_fhss_get_next_freq_in_grid,"ax",%progbits
 1844              		.align	1
 1845              		.global	lr_fhss_get_next_freq_in_grid
 1846              		.syntax unified
 1847              		.thumb
 1848              		.thumb_func
 1850              	lr_fhss_get_next_freq_in_grid:
 1851              	.LVL195:
 1852              	.LFB5:
 450:Middlewares/Third_Party/SubGHz_Phy/radio_driver/lr_fhss_mac.c ****     uint16_t n_i;
 1853              		.loc 1 450 1 is_stmt 1 view -0
 1854              		.cfi_startproc
 1855              		@ args = 0, pretend = 0, frame = 0
 1856              		@ frame_needed = 0, uses_anonymous_args = 0
 450:Middlewares/Third_Party/SubGHz_Phy/radio_driver/lr_fhss_mac.c ****     uint16_t n_i;
 1857              		.loc 1 450 1 is_stmt 0 view .LVU553
 1858 0000 10B5     		push	{r4, lr}
 1859              		.cfi_def_cfa_offset 8
 1860              		.cfi_offset 4, -8
 1861              		.cfi_offset 14, -4
 1862 0002 0C46     		mov	r4, r1
 451:Middlewares/Third_Party/SubGHz_Phy/radio_driver/lr_fhss_mac.c **** 
ARM GAS  /tmp/ccvq1YAY.s 			page 53


 1863              		.loc 1 451 5 is_stmt 1 view .LVU554
 453:Middlewares/Third_Party/SubGHz_Phy/radio_driver/lr_fhss_mac.c ****     {
 1864              		.loc 1 453 5 view .LVU555
 453:Middlewares/Third_Party/SubGHz_Phy/radio_driver/lr_fhss_mac.c ****     {
 1865              		.loc 1 453 15 is_stmt 0 view .LVU556
 1866 0004 137A     		ldrb	r3, [r2, #8]	@ zero_extendqisi2
 453:Middlewares/Third_Party/SubGHz_Phy/radio_driver/lr_fhss_mac.c ****     {
 1867              		.loc 1 453 7 view .LVU557
 1868 0006 63B9     		cbnz	r3, .L139
 459:Middlewares/Third_Party/SubGHz_Phy/radio_driver/lr_fhss_mac.c ****     }
 1869              		.loc 1 459 9 is_stmt 1 view .LVU558
 459:Middlewares/Third_Party/SubGHz_Phy/radio_driver/lr_fhss_mac.c ****     }
 1870              		.loc 1 459 25 is_stmt 0 view .LVU559
 1871 0008 C888     		ldrh	r0, [r1, #6]
 1872              	.LVL196:
 459:Middlewares/Third_Party/SubGHz_Phy/radio_driver/lr_fhss_mac.c ****     }
 1873              		.loc 1 459 55 view .LVU560
 1874 000a 0B88     		ldrh	r3, [r1]
 459:Middlewares/Third_Party/SubGHz_Phy/radio_driver/lr_fhss_mac.c ****     }
 1875              		.loc 1 459 13 view .LVU561
 1876 000c B0FBF3F2 		udiv	r2, r0, r3
 1877              	.LVL197:
 459:Middlewares/Third_Party/SubGHz_Phy/radio_driver/lr_fhss_mac.c ****     }
 1878              		.loc 1 459 13 view .LVU562
 1879 0010 03FB1200 		mls	r0, r3, r2, r0
 1880 0014 80B2     		uxth	r0, r0
 1881              	.LVL198:
 1882              	.L135:
 462:Middlewares/Third_Party/SubGHz_Phy/radio_driver/lr_fhss_mac.c ****     {
 1883              		.loc 1 462 5 is_stmt 1 view .LVU563
 462:Middlewares/Third_Party/SubGHz_Phy/radio_driver/lr_fhss_mac.c ****     {
 1884              		.loc 1 462 27 is_stmt 0 view .LVU564
 1885 0016 2388     		ldrh	r3, [r4]
 462:Middlewares/Third_Party/SubGHz_Phy/radio_driver/lr_fhss_mac.c ****     {
 1886              		.loc 1 462 7 view .LVU565
 1887 0018 B0EB530F 		cmp	r0, r3, lsr #1
 1888 001c 04D2     		bcs	.L136
 464:Middlewares/Third_Party/SubGHz_Phy/radio_driver/lr_fhss_mac.c ****     }
 1889              		.loc 1 464 9 is_stmt 1 view .LVU566
 464:Middlewares/Third_Party/SubGHz_Phy/radio_driver/lr_fhss_mac.c ****     }
 1890              		.loc 1 464 16 is_stmt 0 view .LVU567
 1891 001e 00B2     		sxth	r0, r0
 1892              	.LVL199:
 1893              	.L137:
 470:Middlewares/Third_Party/SubGHz_Phy/radio_driver/lr_fhss_mac.c **** 
 1894              		.loc 1 470 1 view .LVU568
 1895 0020 10BD     		pop	{r4, pc}
 1896              	.LVL200:
 1897              	.L139:
 455:Middlewares/Third_Party/SubGHz_Phy/radio_driver/lr_fhss_mac.c ****     }
 1898              		.loc 1 455 9 is_stmt 1 view .LVU569
 455:Middlewares/Third_Party/SubGHz_Phy/radio_driver/lr_fhss_mac.c ****     }
 1899              		.loc 1 455 15 is_stmt 0 view .LVU570
 1900 0022 FFF7FEFF 		bl	lr_fhss_get_next_state
 1901              	.LVL201:
 455:Middlewares/Third_Party/SubGHz_Phy/radio_driver/lr_fhss_mac.c ****     }
 1902              		.loc 1 455 15 view .LVU571
ARM GAS  /tmp/ccvq1YAY.s 			page 54


 1903 0026 F6E7     		b	.L135
 1904              	.L136:
 468:Middlewares/Third_Party/SubGHz_Phy/radio_driver/lr_fhss_mac.c ****     }
 1905              		.loc 1 468 9 is_stmt 1 view .LVU572
 468:Middlewares/Third_Party/SubGHz_Phy/radio_driver/lr_fhss_mac.c ****     }
 1906              		.loc 1 468 20 is_stmt 0 view .LVU573
 1907 0028 C01A     		subs	r0, r0, r3
 1908              	.LVL202:
 468:Middlewares/Third_Party/SubGHz_Phy/radio_driver/lr_fhss_mac.c ****     }
 1909              		.loc 1 468 20 view .LVU574
 1910 002a 00B2     		sxth	r0, r0
 1911 002c F8E7     		b	.L137
 1912              		.cfi_endproc
 1913              	.LFE5:
 1915              		.section	.text.lr_fhss_build_frame,"ax",%progbits
 1916              		.align	1
 1917              		.global	lr_fhss_build_frame
 1918              		.syntax unified
 1919              		.thumb
 1920              		.thumb_func
 1922              	lr_fhss_build_frame:
 1923              	.LVL203:
 1924              	.LFB6:
 482:Middlewares/Third_Party/SubGHz_Phy/radio_driver/lr_fhss_mac.c ****     uint8_t data_out_tmp[LR_FHSS_MAX_TMP_BUF_BYTES] = { 0 };
 1925              		.loc 1 482 1 is_stmt 1 view -0
 1926              		.cfi_startproc
 1927              		@ args = 4, pretend = 0, frame = 640
 1928              		@ frame_needed = 0, uses_anonymous_args = 0
 482:Middlewares/Third_Party/SubGHz_Phy/radio_driver/lr_fhss_mac.c ****     uint8_t data_out_tmp[LR_FHSS_MAX_TMP_BUF_BYTES] = { 0 };
 1929              		.loc 1 482 1 is_stmt 0 view .LVU576
 1930 0000 2DE9F04F 		push	{r4, r5, r6, r7, r8, r9, r10, fp, lr}
 1931              		.cfi_def_cfa_offset 36
 1932              		.cfi_offset 4, -36
 1933              		.cfi_offset 5, -32
 1934              		.cfi_offset 6, -28
 1935              		.cfi_offset 7, -24
 1936              		.cfi_offset 8, -20
 1937              		.cfi_offset 9, -16
 1938              		.cfi_offset 10, -12
 1939              		.cfi_offset 11, -8
 1940              		.cfi_offset 14, -4
 1941 0004 ADF5217D 		sub	sp, sp, #644
 1942              		.cfi_def_cfa_offset 680
 1943 0008 0546     		mov	r5, r0
 1944 000a 0191     		str	r1, [sp, #4]
 1945 000c 1646     		mov	r6, r2
 1946 000e 9946     		mov	r9, r3
 1947 0010 AA9C     		ldr	r4, [sp, #680]
 483:Middlewares/Third_Party/SubGHz_Phy/radio_driver/lr_fhss_mac.c **** 
 1948              		.loc 1 483 5 is_stmt 1 view .LVU577
 483:Middlewares/Third_Party/SubGHz_Phy/radio_driver/lr_fhss_mac.c **** 
 1949              		.loc 1 483 13 is_stmt 0 view .LVU578
 1950 0012 08AF     		add	r7, sp, #32
 1951 0014 4FF41872 		mov	r2, #608
 1952              	.LVL204:
 483:Middlewares/Third_Party/SubGHz_Phy/radio_driver/lr_fhss_mac.c **** 
 1953              		.loc 1 483 13 view .LVU579
ARM GAS  /tmp/ccvq1YAY.s 			page 55


 1954 0018 0021     		movs	r1, #0
 1955              	.LVL205:
 483:Middlewares/Third_Party/SubGHz_Phy/radio_driver/lr_fhss_mac.c **** 
 1956              		.loc 1 483 13 view .LVU580
 1957 001a 3846     		mov	r0, r7
 1958              	.LVL206:
 483:Middlewares/Third_Party/SubGHz_Phy/radio_driver/lr_fhss_mac.c **** 
 1959              		.loc 1 483 13 view .LVU581
 1960 001c FFF7FEFF 		bl	memset
 1961              	.LVL207:
 485:Middlewares/Third_Party/SubGHz_Phy/radio_driver/lr_fhss_mac.c ****     uint16_t payload_crc = lr_fhss_payload_crc16( data_out, data_in_bytecount );
 1962              		.loc 1 485 5 is_stmt 1 view .LVU582
 1963 0020 2246     		mov	r2, r4
 1964 0022 4946     		mov	r1, r9
 1965 0024 3046     		mov	r0, r6
 1966 0026 FFF7FEFF 		bl	lr_fhss_payload_whitening
 1967              	.LVL208:
 486:Middlewares/Third_Party/SubGHz_Phy/radio_driver/lr_fhss_mac.c **** 
 1968              		.loc 1 486 5 view .LVU583
 486:Middlewares/Third_Party/SubGHz_Phy/radio_driver/lr_fhss_mac.c **** 
 1969              		.loc 1 486 28 is_stmt 0 view .LVU584
 1970 002a 4946     		mov	r1, r9
 1971 002c 2046     		mov	r0, r4
 1972 002e FFF7FEFF 		bl	lr_fhss_payload_crc16
 1973              	.LVL209:
 488:Middlewares/Third_Party/SubGHz_Phy/radio_driver/lr_fhss_mac.c ****     data_out[data_in_bytecount + 1] = payload_crc & 0xFF;
 1974              		.loc 1 488 5 is_stmt 1 view .LVU585
 488:Middlewares/Third_Party/SubGHz_Phy/radio_driver/lr_fhss_mac.c ****     data_out[data_in_bytecount + 1] = payload_crc & 0xFF;
 1975              		.loc 1 488 37 is_stmt 0 view .LVU586
 1976 0032 030A     		lsrs	r3, r0, #8
 1977 0034 04F80930 		strb	r3, [r4, r9]
 489:Middlewares/Third_Party/SubGHz_Phy/radio_driver/lr_fhss_mac.c ****     data_out[data_in_bytecount + 2] = 0;
 1978              		.loc 1 489 5 is_stmt 1 view .LVU587
 489:Middlewares/Third_Party/SubGHz_Phy/radio_driver/lr_fhss_mac.c ****     data_out[data_in_bytecount + 2] = 0;
 1979              		.loc 1 489 13 is_stmt 0 view .LVU588
 1980 0038 09F10103 		add	r3, r9, #1
 489:Middlewares/Third_Party/SubGHz_Phy/radio_driver/lr_fhss_mac.c ****     data_out[data_in_bytecount + 2] = 0;
 1981              		.loc 1 489 37 view .LVU589
 1982 003c E054     		strb	r0, [r4, r3]
 490:Middlewares/Third_Party/SubGHz_Phy/radio_driver/lr_fhss_mac.c **** 
 1983              		.loc 1 490 5 is_stmt 1 view .LVU590
 490:Middlewares/Third_Party/SubGHz_Phy/radio_driver/lr_fhss_mac.c **** 
 1984              		.loc 1 490 13 is_stmt 0 view .LVU591
 1985 003e 09F10203 		add	r3, r9, #2
 490:Middlewares/Third_Party/SubGHz_Phy/radio_driver/lr_fhss_mac.c **** 
 1986              		.loc 1 490 37 view .LVU592
 1987 0042 0026     		movs	r6, #0
 1988              	.LVL210:
 490:Middlewares/Third_Party/SubGHz_Phy/radio_driver/lr_fhss_mac.c **** 
 1989              		.loc 1 490 37 view .LVU593
 1990 0044 E654     		strb	r6, [r4, r3]
 493:Middlewares/Third_Party/SubGHz_Phy/radio_driver/lr_fhss_mac.c ****         lr_fhss_convolution_encode_viterbi_1_3( data_out, 8 * ( data_in_bytecount + 2 ) + 6, data_o
 1991              		.loc 1 493 5 is_stmt 1 view .LVU594
 494:Middlewares/Third_Party/SubGHz_Phy/radio_driver/lr_fhss_mac.c **** 
 1992              		.loc 1 494 89 is_stmt 0 view .LVU595
 1993 0046 4FEAC901 		lsl	r1, r9, #3
 1994 004a 89B2     		uxth	r1, r1
ARM GAS  /tmp/ccvq1YAY.s 			page 56


 494:Middlewares/Third_Party/SubGHz_Phy/radio_driver/lr_fhss_mac.c **** 
 1995              		.loc 1 494 9 view .LVU596
 1996 004c 1631     		adds	r1, r1, #22
 1997 004e 89B2     		uxth	r1, r1
 1998 0050 3A46     		mov	r2, r7
 1999 0052 2046     		mov	r0, r4
 2000              	.LVL211:
 494:Middlewares/Third_Party/SubGHz_Phy/radio_driver/lr_fhss_mac.c **** 
 2001              		.loc 1 494 9 view .LVU597
 2002 0054 FFF7FEFF 		bl	lr_fhss_convolution_encode_viterbi_1_3
 2003              	.LVL212:
 2004 0058 8046     		mov	r8, r0
 2005              	.LVL213:
 497:Middlewares/Third_Party/SubGHz_Phy/radio_driver/lr_fhss_mac.c **** 
 2006              		.loc 1 497 5 is_stmt 1 view .LVU598
 2007 005a FF22     		movs	r2, #255
 2008 005c 3146     		mov	r1, r6
 2009 005e 2046     		mov	r0, r4
 2010 0060 FFF7FEFF 		bl	memset
 2011              	.LVL214:
 499:Middlewares/Third_Party/SubGHz_Phy/radio_driver/lr_fhss_mac.c ****     {
 2012              		.loc 1 499 5 view .LVU599
 499:Middlewares/Third_Party/SubGHz_Phy/radio_driver/lr_fhss_mac.c ****     {
 2013              		.loc 1 499 15 is_stmt 0 view .LVU600
 2014 0064 6F79     		ldrb	r7, [r5, #5]	@ zero_extendqisi2
 499:Middlewares/Third_Party/SubGHz_Phy/radio_driver/lr_fhss_mac.c ****     {
 2015              		.loc 1 499 7 view .LVU601
 2016 0066 032F     		cmp	r7, #3
 2017 0068 3FD0     		beq	.L141
 2018              	.LBB20:
 502:Middlewares/Third_Party/SubGHz_Phy/radio_driver/lr_fhss_mac.c ****         uint8_t  matrix[15]   = { 1, 1, 0, 0, 1, 0, 1, 0, 0, 0, 1, 0, 1, 0, 0 };
 2019              		.loc 1 502 9 is_stmt 1 view .LVU602
 2020              	.LVL215:
 503:Middlewares/Third_Party/SubGHz_Phy/radio_driver/lr_fhss_mac.c ****         uint8_t  matrix_len   = 0;
 2021              		.loc 1 503 9 view .LVU603
 503:Middlewares/Third_Party/SubGHz_Phy/radio_driver/lr_fhss_mac.c ****         uint8_t  matrix_len   = 0;
 2022              		.loc 1 503 18 is_stmt 0 view .LVU604
 2023 006a 624B     		ldr	r3, .L166
 2024 006c 02AE     		add	r6, sp, #8
 2025 006e 0FCB     		ldm	r3, {r0, r1, r2, r3}
 2026 0070 07C6     		stmia	r6!, {r0, r1, r2}
 2027 0072 26F8023B 		strh	r3, [r6], #2	@ movhi
 2028 0076 1B0C     		lsrs	r3, r3, #16
 2029 0078 3370     		strb	r3, [r6]
 504:Middlewares/Third_Party/SubGHz_Phy/radio_driver/lr_fhss_mac.c ****         switch( params->cr )
 2030              		.loc 1 504 9 is_stmt 1 view .LVU605
 2031              	.LVL216:
 505:Middlewares/Third_Party/SubGHz_Phy/radio_driver/lr_fhss_mac.c ****         {
 2032              		.loc 1 505 9 view .LVU606
 2033 007a 012F     		cmp	r7, #1
 2034 007c 08D0     		beq	.L157
 2035 007e 022F     		cmp	r7, #2
 2036 0080 09D0     		beq	.L158
 2037 0082 5FB9     		cbnz	r7, .L159
 508:Middlewares/Third_Party/SubGHz_Phy/radio_driver/lr_fhss_mac.c ****             break;
 2038              		.loc 1 508 24 is_stmt 0 view .LVU607
 2039 0084 4FF00F0A 		mov	r10, #15
ARM GAS  /tmp/ccvq1YAY.s 			page 57


 2040              	.L142:
 2041              	.LVL217:
 521:Middlewares/Third_Party/SubGHz_Phy/radio_driver/lr_fhss_mac.c ****         for( uint32_t i = 0; i < nb_bits; i++ )
 2042              		.loc 1 521 9 is_stmt 1 view .LVU608
 522:Middlewares/Third_Party/SubGHz_Phy/radio_driver/lr_fhss_mac.c ****         {
 2043              		.loc 1 522 9 view .LVU609
 2044              	.LBB21:
 522:Middlewares/Third_Party/SubGHz_Phy/radio_driver/lr_fhss_mac.c ****         {
 2045              		.loc 1 522 14 view .LVU610
 522:Middlewares/Third_Party/SubGHz_Phy/radio_driver/lr_fhss_mac.c ****         {
 2046              		.loc 1 522 23 is_stmt 0 view .LVU611
 2047 0088 0027     		movs	r7, #0
 2048              	.LBE21:
 521:Middlewares/Third_Party/SubGHz_Phy/radio_driver/lr_fhss_mac.c ****         for( uint32_t i = 0; i < nb_bits; i++ )
 2049              		.loc 1 521 18 view .LVU612
 2050 008a BB46     		mov	fp, r7
 502:Middlewares/Third_Party/SubGHz_Phy/radio_driver/lr_fhss_mac.c ****         uint8_t  matrix[15]   = { 1, 1, 0, 0, 1, 0, 1, 0, 0, 0, 1, 0, 1, 0, 0 };
 2051              		.loc 1 502 18 view .LVU613
 2052 008c 3E46     		mov	r6, r7
 2053              	.LBB22:
 522:Middlewares/Third_Party/SubGHz_Phy/radio_driver/lr_fhss_mac.c ****         {
 2054              		.loc 1 522 9 view .LVU614
 2055 008e 18E0     		b	.L143
 2056              	.LVL218:
 2057              	.L157:
 522:Middlewares/Third_Party/SubGHz_Phy/radio_driver/lr_fhss_mac.c ****         {
 2058              		.loc 1 522 9 view .LVU615
 2059              	.LBE22:
 511:Middlewares/Third_Party/SubGHz_Phy/radio_driver/lr_fhss_mac.c ****             break;
 2060              		.loc 1 511 24 view .LVU616
 2061 0090 4FF0060A 		mov	r10, #6
 2062 0094 F8E7     		b	.L142
 2063              	.L158:
 514:Middlewares/Third_Party/SubGHz_Phy/radio_driver/lr_fhss_mac.c ****             break;
 2064              		.loc 1 514 24 view .LVU617
 2065 0096 4FF0030A 		mov	r10, #3
 2066 009a F5E7     		b	.L142
 2067              	.L159:
 505:Middlewares/Third_Party/SubGHz_Phy/radio_driver/lr_fhss_mac.c ****         {
 2068              		.loc 1 505 9 view .LVU618
 2069 009c 4FF0000A 		mov	r10, #0
 2070 00a0 F2E7     		b	.L142
 2071              	.LVL219:
 2072              	.L163:
 2073              	.LBB23:
 526:Middlewares/Third_Party/SubGHz_Phy/radio_driver/lr_fhss_mac.c ****             }
 2074              		.loc 1 526 17 is_stmt 1 view .LVU619
 2075 00a2 0BF10103 		add	r3, fp, #1
 2076 00a6 0093     		str	r3, [sp]
 2077              	.LVL220:
 526:Middlewares/Third_Party/SubGHz_Phy/radio_driver/lr_fhss_mac.c ****             }
 2078              		.loc 1 526 17 is_stmt 0 view .LVU620
 2079 00a8 3946     		mov	r1, r7
 2080 00aa 08A8     		add	r0, sp, #32
 2081 00ac FFF7FEFF 		bl	lr_fhss_extract_bit_in_byte_vector
 2082              	.LVL221:
 526:Middlewares/Third_Party/SubGHz_Phy/radio_driver/lr_fhss_mac.c ****             }
ARM GAS  /tmp/ccvq1YAY.s 			page 58


 2083              		.loc 1 526 17 view .LVU621
 2084 00b0 0246     		mov	r2, r0
 526:Middlewares/Third_Party/SubGHz_Phy/radio_driver/lr_fhss_mac.c ****             }
 2085              		.loc 1 526 17 discriminator 1 view .LVU622
 2086 00b2 5946     		mov	r1, fp
 2087 00b4 2046     		mov	r0, r4
 2088 00b6 FFF7FEFF 		bl	lr_fhss_set_bit_in_byte_vector
 2089              	.LVL222:
 526:Middlewares/Third_Party/SubGHz_Phy/radio_driver/lr_fhss_mac.c ****             }
 2090              		.loc 1 526 17 view .LVU623
 2091 00ba DDF800B0 		ldr	fp, [sp]
 2092 00be 06E0     		b	.L144
 2093              	.LVL223:
 2094              	.L145:
 522:Middlewares/Third_Party/SubGHz_Phy/radio_driver/lr_fhss_mac.c ****         {
 2095              		.loc 1 522 44 is_stmt 1 discriminator 2 view .LVU624
 2096 00c0 0137     		adds	r7, r7, #1
 2097              	.LVL224:
 2098              	.L143:
 522:Middlewares/Third_Party/SubGHz_Phy/radio_driver/lr_fhss_mac.c ****         {
 2099              		.loc 1 522 32 discriminator 1 view .LVU625
 2100 00c2 B845     		cmp	r8, r7
 2101 00c4 08D9     		bls	.L162
 524:Middlewares/Third_Party/SubGHz_Phy/radio_driver/lr_fhss_mac.c ****             {
 2102              		.loc 1 524 13 view .LVU626
 524:Middlewares/Third_Party/SubGHz_Phy/radio_driver/lr_fhss_mac.c ****             {
 2103              		.loc 1 524 23 is_stmt 0 view .LVU627
 2104 00c6 02AB     		add	r3, sp, #8
 2105 00c8 9B5D     		ldrb	r3, [r3, r6]	@ zero_extendqisi2
 524:Middlewares/Third_Party/SubGHz_Phy/radio_driver/lr_fhss_mac.c ****             {
 2106              		.loc 1 524 15 view .LVU628
 2107 00ca 002B     		cmp	r3, #0
 2108 00cc E9D1     		bne	.L163
 2109              	.LVL225:
 2110              	.L144:
 528:Middlewares/Third_Party/SubGHz_Phy/radio_driver/lr_fhss_mac.c ****             {
 2111              		.loc 1 528 13 is_stmt 1 view .LVU629
 528:Middlewares/Third_Party/SubGHz_Phy/radio_driver/lr_fhss_mac.c ****             {
 2112              		.loc 1 528 15 is_stmt 0 view .LVU630
 2113 00ce 0136     		adds	r6, r6, #1
 2114              	.LVL226:
 528:Middlewares/Third_Party/SubGHz_Phy/radio_driver/lr_fhss_mac.c ****             {
 2115              		.loc 1 528 15 view .LVU631
 2116 00d0 B245     		cmp	r10, r6
 2117 00d2 F5D1     		bne	.L145
 530:Middlewares/Third_Party/SubGHz_Phy/radio_driver/lr_fhss_mac.c ****             }
 2118              		.loc 1 530 30 view .LVU632
 2119 00d4 0026     		movs	r6, #0
 2120              	.LVL227:
 530:Middlewares/Third_Party/SubGHz_Phy/radio_driver/lr_fhss_mac.c ****             }
 2121              		.loc 1 530 30 view .LVU633
 2122 00d6 F3E7     		b	.L145
 2123              	.LVL228:
 2124              	.L162:
 530:Middlewares/Third_Party/SubGHz_Phy/radio_driver/lr_fhss_mac.c ****             }
 2125              		.loc 1 530 30 view .LVU634
 2126              	.LBE23:
ARM GAS  /tmp/ccvq1YAY.s 			page 59


 533:Middlewares/Third_Party/SubGHz_Phy/radio_driver/lr_fhss_mac.c **** 
 2127              		.loc 1 533 9 is_stmt 1 view .LVU635
 533:Middlewares/Third_Party/SubGHz_Phy/radio_driver/lr_fhss_mac.c **** 
 2128              		.loc 1 533 17 is_stmt 0 view .LVU636
 2129 00d8 1FFA8BF8 		uxth	r8, fp
 2130              	.LVL229:
 535:Middlewares/Third_Party/SubGHz_Phy/radio_driver/lr_fhss_mac.c ****     }
 2131              		.loc 1 535 9 is_stmt 1 view .LVU637
 535:Middlewares/Third_Party/SubGHz_Phy/radio_driver/lr_fhss_mac.c ****     }
 2132              		.loc 1 535 57 is_stmt 0 view .LVU638
 2133 00dc 08F10702 		add	r2, r8, #7
 535:Middlewares/Third_Party/SubGHz_Phy/radio_driver/lr_fhss_mac.c ****     }
 2134              		.loc 1 535 9 view .LVU639
 2135 00e0 D210     		asrs	r2, r2, #3
 2136 00e2 2146     		mov	r1, r4
 2137 00e4 08A8     		add	r0, sp, #32
 2138 00e6 FFF7FEFF 		bl	memcpy
 2139              	.LVL230:
 2140              	.L141:
 535:Middlewares/Third_Party/SubGHz_Phy/radio_driver/lr_fhss_mac.c ****     }
 2141              		.loc 1 535 9 view .LVU640
 2142              	.LBE20:
 539:Middlewares/Third_Party/SubGHz_Phy/radio_driver/lr_fhss_mac.c ****         lr_fhss_payload_interleaving( data_out_tmp, nb_bits, data_out, LR_FHSS_HEADER_BITS * params
 2143              		.loc 1 539 5 is_stmt 1 view .LVU641
 540:Middlewares/Third_Party/SubGHz_Phy/radio_driver/lr_fhss_mac.c **** 
 2144              		.loc 1 540 100 is_stmt 0 view .LVU642
 2145 00ea 6B7A     		ldrb	r3, [r5, #9]	@ zero_extendqisi2
 540:Middlewares/Third_Party/SubGHz_Phy/radio_driver/lr_fhss_mac.c **** 
 2146              		.loc 1 540 9 view .LVU643
 2147 00ec 7222     		movs	r2, #114
 2148 00ee 02FB03F3 		mul	r3, r2, r3
 2149 00f2 2246     		mov	r2, r4
 2150 00f4 4146     		mov	r1, r8
 2151 00f6 08A8     		add	r0, sp, #32
 2152 00f8 FFF7FEFF 		bl	lr_fhss_payload_interleaving
 2153              	.LVL231:
 2154 00fc 8046     		mov	r8, r0
 2155              	.LVL232:
 543:Middlewares/Third_Party/SubGHz_Phy/radio_driver/lr_fhss_mac.c ****     lr_fhss_raw_header( params, hop_sequence_id, data_in_bytecount, raw_header );
 2156              		.loc 1 543 5 is_stmt 1 view .LVU644
 544:Middlewares/Third_Party/SubGHz_Phy/radio_driver/lr_fhss_mac.c **** 
 2157              		.loc 1 544 5 view .LVU645
 2158 00fe 06AB     		add	r3, sp, #24
 2159 0100 4A46     		mov	r2, r9
 2160 0102 0199     		ldr	r1, [sp, #4]
 2161 0104 2846     		mov	r0, r5
 2162 0106 FFF7FEFF 		bl	lr_fhss_raw_header
 2163              	.LVL233:
 546:Middlewares/Third_Party/SubGHz_Phy/radio_driver/lr_fhss_mac.c ****     for( uint32_t i = 0; i < params->header_count; i++ )
 2164              		.loc 1 546 5 view .LVU646
 547:Middlewares/Third_Party/SubGHz_Phy/radio_driver/lr_fhss_mac.c ****     {
 2165              		.loc 1 547 5 view .LVU647
 2166              	.LBB24:
 547:Middlewares/Third_Party/SubGHz_Phy/radio_driver/lr_fhss_mac.c ****     {
 2167              		.loc 1 547 10 view .LVU648
 547:Middlewares/Third_Party/SubGHz_Phy/radio_driver/lr_fhss_mac.c ****     {
 2168              		.loc 1 547 19 is_stmt 0 view .LVU649
ARM GAS  /tmp/ccvq1YAY.s 			page 60


 2169 010a 4FF0000A 		mov	r10, #0
 2170              	.LBE24:
 546:Middlewares/Third_Party/SubGHz_Phy/radio_driver/lr_fhss_mac.c ****     for( uint32_t i = 0; i < params->header_count; i++ )
 2171              		.loc 1 546 14 view .LVU650
 2172 010e D146     		mov	r9, r10
 2173              	.LVL234:
 2174              	.LBB31:
 547:Middlewares/Third_Party/SubGHz_Phy/radio_driver/lr_fhss_mac.c ****     {
 2175              		.loc 1 547 5 view .LVU651
 2176 0110 3AE0     		b	.L148
 2177              	.LVL235:
 2178              	.L150:
 2179              	.LBB25:
 2180              	.LBB26:
 564:Middlewares/Third_Party/SubGHz_Phy/radio_driver/lr_fhss_mac.c ****                 data_out, header_offset + 2 + j,
 2181              		.loc 1 564 13 is_stmt 1 view .LVU652
 565:Middlewares/Third_Party/SubGHz_Phy/radio_driver/lr_fhss_mac.c ****                 lr_fhss_extract_bit_in_byte_vector( coded_header, lr_fhss_header_interleaver_minus_
 2182              		.loc 1 565 45 is_stmt 0 view .LVU653
 2183 0112 07EB060B 		add	fp, r7, r6
 564:Middlewares/Third_Party/SubGHz_Phy/radio_driver/lr_fhss_mac.c ****                 data_out, header_offset + 2 + j,
 2184              		.loc 1 564 13 view .LVU654
 2185 0116 384B     		ldr	r3, .L166+4
 2186 0118 995D     		ldrb	r1, [r3, r6]	@ zero_extendqisi2
 2187 011a 02A8     		add	r0, sp, #8
 2188 011c FFF7FEFF 		bl	lr_fhss_extract_bit_in_byte_vector
 2189              	.LVL236:
 2190 0120 0246     		mov	r2, r0
 564:Middlewares/Third_Party/SubGHz_Phy/radio_driver/lr_fhss_mac.c ****                 data_out, header_offset + 2 + j,
 2191              		.loc 1 564 13 discriminator 1 view .LVU655
 2192 0122 0BF10201 		add	r1, fp, #2
 2193 0126 2046     		mov	r0, r4
 2194 0128 FFF7FEFF 		bl	lr_fhss_set_bit_in_byte_vector
 2195              	.LVL237:
 562:Middlewares/Third_Party/SubGHz_Phy/radio_driver/lr_fhss_mac.c ****         {
 2196              		.loc 1 562 58 is_stmt 1 discriminator 3 view .LVU656
 2197 012c 0136     		adds	r6, r6, #1
 2198              	.LVL238:
 2199              	.L149:
 562:Middlewares/Third_Party/SubGHz_Phy/radio_driver/lr_fhss_mac.c ****         {
 2200              		.loc 1 562 32 discriminator 1 view .LVU657
 2201 012e 272E     		cmp	r6, #39
 2202 0130 EFD9     		bls	.L150
 2203              	.LBE26:
 2204              	.LBB27:
 568:Middlewares/Third_Party/SubGHz_Phy/radio_driver/lr_fhss_mac.c ****         {
 2205              		.loc 1 568 23 is_stmt 0 view .LVU658
 2206 0132 0026     		movs	r6, #0
 2207              	.LVL239:
 568:Middlewares/Third_Party/SubGHz_Phy/radio_driver/lr_fhss_mac.c ****         {
 2208              		.loc 1 568 23 view .LVU659
 2209 0134 0FE0     		b	.L151
 2210              	.LVL240:
 2211              	.L152:
 570:Middlewares/Third_Party/SubGHz_Phy/radio_driver/lr_fhss_mac.c ****                 data_out, header_offset + 2 + LR_FHSS_HALF_HDR_BITS + LR_FHSS_SYNC_WORD_BITS + j,
 2212              		.loc 1 570 13 is_stmt 1 view .LVU660
 571:Middlewares/Third_Party/SubGHz_Phy/radio_driver/lr_fhss_mac.c ****                 lr_fhss_extract_bit_in_byte_vector( coded_header,
 2213              		.loc 1 571 94 is_stmt 0 view .LVU661
ARM GAS  /tmp/ccvq1YAY.s 			page 61


 2214 0136 07EB060B 		add	fp, r7, r6
 573:Middlewares/Third_Party/SubGHz_Phy/radio_driver/lr_fhss_mac.c ****         }
 2215              		.loc 1 573 112 view .LVU662
 2216 013a 06F12803 		add	r3, r6, #40
 570:Middlewares/Third_Party/SubGHz_Phy/radio_driver/lr_fhss_mac.c ****                 data_out, header_offset + 2 + LR_FHSS_HALF_HDR_BITS + LR_FHSS_SYNC_WORD_BITS + j,
 2217              		.loc 1 570 13 view .LVU663
 2218 013e 2E4A     		ldr	r2, .L166+4
 2219 0140 D15C     		ldrb	r1, [r2, r3]	@ zero_extendqisi2
 2220 0142 02A8     		add	r0, sp, #8
 2221 0144 FFF7FEFF 		bl	lr_fhss_extract_bit_in_byte_vector
 2222              	.LVL241:
 2223 0148 0246     		mov	r2, r0
 570:Middlewares/Third_Party/SubGHz_Phy/radio_driver/lr_fhss_mac.c ****                 data_out, header_offset + 2 + LR_FHSS_HALF_HDR_BITS + LR_FHSS_SYNC_WORD_BITS + j,
 2224              		.loc 1 570 13 discriminator 1 view .LVU664
 2225 014a 0BF14A01 		add	r1, fp, #74
 2226 014e 2046     		mov	r0, r4
 2227 0150 FFF7FEFF 		bl	lr_fhss_set_bit_in_byte_vector
 2228              	.LVL242:
 568:Middlewares/Third_Party/SubGHz_Phy/radio_driver/lr_fhss_mac.c ****         {
 2229              		.loc 1 568 58 is_stmt 1 discriminator 3 view .LVU665
 2230 0154 0136     		adds	r6, r6, #1
 2231              	.LVL243:
 2232              	.L151:
 568:Middlewares/Third_Party/SubGHz_Phy/radio_driver/lr_fhss_mac.c ****         {
 2233              		.loc 1 568 32 discriminator 1 view .LVU666
 2234 0156 272E     		cmp	r6, #39
 2235 0158 EDD9     		bls	.L152
 2236              	.LBE27:
 2237              	.LBB28:
 577:Middlewares/Third_Party/SubGHz_Phy/radio_driver/lr_fhss_mac.c ****         {
 2238              		.loc 1 577 23 is_stmt 0 view .LVU667
 2239 015a 0026     		movs	r6, #0
 2240              	.LVL244:
 577:Middlewares/Third_Party/SubGHz_Phy/radio_driver/lr_fhss_mac.c ****         {
 2241              		.loc 1 577 23 view .LVU668
 2242 015c 0CE0     		b	.L153
 2243              	.LVL245:
 2244              	.L154:
 579:Middlewares/Third_Party/SubGHz_Phy/radio_driver/lr_fhss_mac.c ****                                             lr_fhss_extract_bit_in_byte_vector( params->sync_word, 
 2245              		.loc 1 579 13 is_stmt 1 view .LVU669
 579:Middlewares/Third_Party/SubGHz_Phy/radio_driver/lr_fhss_mac.c ****                                             lr_fhss_extract_bit_in_byte_vector( params->sync_word, 
 2246              		.loc 1 579 97 is_stmt 0 view .LVU670
 2247 015e 07EB060B 		add	fp, r7, r6
 579:Middlewares/Third_Party/SubGHz_Phy/radio_driver/lr_fhss_mac.c ****                                             lr_fhss_extract_bit_in_byte_vector( params->sync_word, 
 2248              		.loc 1 579 13 view .LVU671
 2249 0162 3146     		mov	r1, r6
 2250 0164 2868     		ldr	r0, [r5]
 2251 0166 FFF7FEFF 		bl	lr_fhss_extract_bit_in_byte_vector
 2252              	.LVL246:
 2253 016a 0246     		mov	r2, r0
 579:Middlewares/Third_Party/SubGHz_Phy/radio_driver/lr_fhss_mac.c ****                                             lr_fhss_extract_bit_in_byte_vector( params->sync_word, 
 2254              		.loc 1 579 13 discriminator 1 view .LVU672
 2255 016c 0BF12A01 		add	r1, fp, #42
 2256 0170 2046     		mov	r0, r4
 2257 0172 FFF7FEFF 		bl	lr_fhss_set_bit_in_byte_vector
 2258              	.LVL247:
 577:Middlewares/Third_Party/SubGHz_Phy/radio_driver/lr_fhss_mac.c ****         {
ARM GAS  /tmp/ccvq1YAY.s 			page 62


 2259              		.loc 1 577 59 is_stmt 1 discriminator 3 view .LVU673
 2260 0176 0136     		adds	r6, r6, #1
 2261              	.LVL248:
 2262              	.L153:
 577:Middlewares/Third_Party/SubGHz_Phy/radio_driver/lr_fhss_mac.c ****         {
 2263              		.loc 1 577 32 discriminator 1 view .LVU674
 2264 0178 1F2E     		cmp	r6, #31
 2265 017a F0D9     		bls	.L154
 2266              	.LBE28:
 583:Middlewares/Third_Party/SubGHz_Phy/radio_driver/lr_fhss_mac.c ****     }
 2267              		.loc 1 583 9 view .LVU675
 583:Middlewares/Third_Party/SubGHz_Phy/radio_driver/lr_fhss_mac.c ****     }
 2268              		.loc 1 583 23 is_stmt 0 view .LVU676
 2269 017c 09F17209 		add	r9, r9, #114
 2270              	.LVL249:
 583:Middlewares/Third_Party/SubGHz_Phy/radio_driver/lr_fhss_mac.c ****     }
 2271              		.loc 1 583 23 view .LVU677
 2272 0180 1FFA89F9 		uxth	r9, r9
 2273              	.LVL250:
 583:Middlewares/Third_Party/SubGHz_Phy/radio_driver/lr_fhss_mac.c ****     }
 2274              		.loc 1 583 23 view .LVU678
 2275              	.LBE25:
 547:Middlewares/Third_Party/SubGHz_Phy/radio_driver/lr_fhss_mac.c ****     {
 2276              		.loc 1 547 53 is_stmt 1 discriminator 2 view .LVU679
 2277 0184 0AF1010A 		add	r10, r10, #1
 2278              	.LVL251:
 2279              	.L148:
 547:Middlewares/Third_Party/SubGHz_Phy/radio_driver/lr_fhss_mac.c ****     {
 2280              		.loc 1 547 28 discriminator 1 view .LVU680
 547:Middlewares/Third_Party/SubGHz_Phy/radio_driver/lr_fhss_mac.c ****     {
 2281              		.loc 1 547 36 is_stmt 0 discriminator 1 view .LVU681
 2282 0188 6B7A     		ldrb	r3, [r5, #9]	@ zero_extendqisi2
 547:Middlewares/Third_Party/SubGHz_Phy/radio_driver/lr_fhss_mac.c ****     {
 2283              		.loc 1 547 28 discriminator 1 view .LVU682
 2284 018a 5345     		cmp	r3, r10
 2285 018c 25D9     		bls	.L164
 2286              	.LBB30:
 550:Middlewares/Third_Party/SubGHz_Phy/radio_driver/lr_fhss_mac.c ****         raw_header[4] = lr_fhss_header_crc8( raw_header, 4 );
 2287              		.loc 1 550 9 is_stmt 1 view .LVU683
 550:Middlewares/Third_Party/SubGHz_Phy/radio_driver/lr_fhss_mac.c ****         raw_header[4] = lr_fhss_header_crc8( raw_header, 4 );
 2288              		.loc 1 550 68 is_stmt 0 view .LVU684
 2289 018e A3EB0A00 		sub	r0, r3, r10
 2290 0192 C0B2     		uxtb	r0, r0
 550:Middlewares/Third_Party/SubGHz_Phy/radio_driver/lr_fhss_mac.c ****         raw_header[4] = lr_fhss_header_crc8( raw_header, 4 );
 2291              		.loc 1 550 9 view .LVU685
 2292 0194 06AF     		add	r7, sp, #24
 2293 0196 0138     		subs	r0, r0, #1
 2294 0198 3946     		mov	r1, r7
 2295 019a C0B2     		uxtb	r0, r0
 2296 019c FFF7FEFF 		bl	lr_fhss_store_header_sync_word_index
 2297              	.LVL252:
 551:Middlewares/Third_Party/SubGHz_Phy/radio_driver/lr_fhss_mac.c **** 
 2298              		.loc 1 551 9 is_stmt 1 view .LVU686
 551:Middlewares/Third_Party/SubGHz_Phy/radio_driver/lr_fhss_mac.c **** 
 2299              		.loc 1 551 25 is_stmt 0 view .LVU687
 2300 01a0 0421     		movs	r1, #4
 2301 01a2 3846     		mov	r0, r7
ARM GAS  /tmp/ccvq1YAY.s 			page 63


 2302 01a4 FFF7FEFF 		bl	lr_fhss_header_crc8
 2303              	.LVL253:
 551:Middlewares/Third_Party/SubGHz_Phy/radio_driver/lr_fhss_mac.c **** 
 2304              		.loc 1 551 23 discriminator 1 view .LVU688
 2305 01a8 8DF81C00 		strb	r0, [sp, #28]
 554:Middlewares/Third_Party/SubGHz_Phy/radio_driver/lr_fhss_mac.c ****         lr_fhss_convolution_encode_viterbi_1_2( raw_header, LR_FHSS_HALF_HDR_BITS, 1, coded_header 
 2306              		.loc 1 554 9 is_stmt 1 view .LVU689
 554:Middlewares/Third_Party/SubGHz_Phy/radio_driver/lr_fhss_mac.c ****         lr_fhss_convolution_encode_viterbi_1_2( raw_header, LR_FHSS_HALF_HDR_BITS, 1, coded_header 
 2307              		.loc 1 554 17 is_stmt 0 view .LVU690
 2308 01ac 02AB     		add	r3, sp, #8
 2309 01ae 0026     		movs	r6, #0
 2310 01b0 1E60     		str	r6, [r3]
 2311 01b2 5E60     		str	r6, [r3, #4]
 2312 01b4 1E81     		strh	r6, [r3, #8]	@ movhi
 555:Middlewares/Third_Party/SubGHz_Phy/radio_driver/lr_fhss_mac.c **** 
 2313              		.loc 1 555 9 is_stmt 1 view .LVU691
 2314 01b6 0122     		movs	r2, #1
 2315 01b8 2821     		movs	r1, #40
 2316 01ba 3846     		mov	r0, r7
 2317 01bc FFF7FEFF 		bl	lr_fhss_convolution_encode_viterbi_1_2
 2318              	.LVL254:
 558:Middlewares/Third_Party/SubGHz_Phy/radio_driver/lr_fhss_mac.c ****         lr_fhss_set_bit_in_byte_vector( data_out, header_offset + 1, 0 );
 2319              		.loc 1 558 9 view .LVU692
 2320 01c0 4F46     		mov	r7, r9
 2321 01c2 3246     		mov	r2, r6
 2322 01c4 4946     		mov	r1, r9
 2323 01c6 2046     		mov	r0, r4
 2324 01c8 FFF7FEFF 		bl	lr_fhss_set_bit_in_byte_vector
 2325              	.LVL255:
 559:Middlewares/Third_Party/SubGHz_Phy/radio_driver/lr_fhss_mac.c **** 
 2326              		.loc 1 559 9 view .LVU693
 2327 01cc 3246     		mov	r2, r6
 2328 01ce 09F10101 		add	r1, r9, #1
 2329 01d2 2046     		mov	r0, r4
 2330 01d4 FFF7FEFF 		bl	lr_fhss_set_bit_in_byte_vector
 2331              	.LVL256:
 562:Middlewares/Third_Party/SubGHz_Phy/radio_driver/lr_fhss_mac.c ****         {
 2332              		.loc 1 562 9 view .LVU694
 2333              	.LBB29:
 562:Middlewares/Third_Party/SubGHz_Phy/radio_driver/lr_fhss_mac.c ****         {
 2334              		.loc 1 562 14 view .LVU695
 562:Middlewares/Third_Party/SubGHz_Phy/radio_driver/lr_fhss_mac.c ****         {
 2335              		.loc 1 562 9 is_stmt 0 view .LVU696
 2336 01d8 A9E7     		b	.L149
 2337              	.LVL257:
 2338              	.L164:
 562:Middlewares/Third_Party/SubGHz_Phy/radio_driver/lr_fhss_mac.c ****         {
 2339              		.loc 1 562 9 view .LVU697
 2340              	.LBE29:
 2341              	.LBE30:
 2342              	.LBE31:
 586:Middlewares/Third_Party/SubGHz_Phy/radio_driver/lr_fhss_mac.c **** }
 2343              		.loc 1 586 5 is_stmt 1 view .LVU698
 586:Middlewares/Third_Party/SubGHz_Phy/radio_driver/lr_fhss_mac.c **** }
 2344              		.loc 1 586 28 is_stmt 0 view .LVU699
 2345 01da C144     		add	r9, r9, r8
 2346              	.LVL258:
ARM GAS  /tmp/ccvq1YAY.s 			page 64


 586:Middlewares/Third_Party/SubGHz_Phy/radio_driver/lr_fhss_mac.c **** }
 2347              		.loc 1 586 44 view .LVU700
 2348 01dc 19F10709 		adds	r9, r9, #7
 2349 01e0 05D4     		bmi	.L165
 2350              	.L156:
 587:Middlewares/Third_Party/SubGHz_Phy/radio_driver/lr_fhss_mac.c **** 
 2351              		.loc 1 587 1 view .LVU701
 2352 01e2 C9F3CF00 		ubfx	r0, r9, #3, #16
 2353 01e6 0DF5217D 		add	sp, sp, #644
 2354              		.cfi_remember_state
 2355              		.cfi_def_cfa_offset 36
 2356              		@ sp needed
 2357 01ea BDE8F08F 		pop	{r4, r5, r6, r7, r8, r9, r10, fp, pc}
 2358              	.LVL259:
 2359              	.L165:
 2360              		.cfi_restore_state
 586:Middlewares/Third_Party/SubGHz_Phy/radio_driver/lr_fhss_mac.c **** }
 2361              		.loc 1 586 44 view .LVU702
 2362 01ee 09F10709 		add	r9, r9, #7
 2363 01f2 F6E7     		b	.L156
 2364              	.L167:
 2365              		.align	2
 2366              	.L166:
 2367 01f4 00000000 		.word	.LANCHOR0
 2368 01f8 00000000 		.word	lr_fhss_header_interleaver_minus_one
 2369              		.cfi_endproc
 2370              	.LFE6:
 2372              		.section	.text.lr_fhss_get_time_on_air_in_ms,"ax",%progbits
 2373              		.align	1
 2374              		.global	lr_fhss_get_time_on_air_in_ms
 2375              		.syntax unified
 2376              		.thumb
 2377              		.thumb_func
 2379              	lr_fhss_get_time_on_air_in_ms:
 2380              	.LVL260:
 2381              	.LFB7:
 590:Middlewares/Third_Party/SubGHz_Phy/radio_driver/lr_fhss_mac.c ****     // Multiply by 1000 / 488.28125, or equivalently 256/125, rounding up
 2382              		.loc 1 590 1 is_stmt 1 view -0
 2383              		.cfi_startproc
 2384              		@ args = 0, pretend = 0, frame = 8
 2385              		@ frame_needed = 0, uses_anonymous_args = 0
 590:Middlewares/Third_Party/SubGHz_Phy/radio_driver/lr_fhss_mac.c ****     // Multiply by 1000 / 488.28125, or equivalently 256/125, rounding up
 2386              		.loc 1 590 1 is_stmt 0 view .LVU704
 2387 0000 00B5     		push	{lr}
 2388              		.cfi_def_cfa_offset 4
 2389              		.cfi_offset 14, -4
 2390 0002 83B0     		sub	sp, sp, #12
 2391              		.cfi_def_cfa_offset 16
 592:Middlewares/Third_Party/SubGHz_Phy/radio_driver/lr_fhss_mac.c **** }
 2392              		.loc 1 592 5 is_stmt 1 view .LVU705
 2393              	.LVL261:
 2394              	.LBB32:
 2395              	.LBI32:
 2396              		.file 2 "Middlewares/Third_Party/SubGHz_Phy/radio_driver/lr_fhss_mac.h"
   1:Middlewares/Third_Party/SubGHz_Phy/radio_driver/lr_fhss_mac.h **** /*!
   2:Middlewares/Third_Party/SubGHz_Phy/radio_driver/lr_fhss_mac.h ****  * @file      lr_fhss_mac.h
   3:Middlewares/Third_Party/SubGHz_Phy/radio_driver/lr_fhss_mac.h ****  *
ARM GAS  /tmp/ccvq1YAY.s 			page 65


   4:Middlewares/Third_Party/SubGHz_Phy/radio_driver/lr_fhss_mac.h ****  * @brief     Radio-independent LR-FHSS algorithms driver internal API
   5:Middlewares/Third_Party/SubGHz_Phy/radio_driver/lr_fhss_mac.h ****  *
   6:Middlewares/Third_Party/SubGHz_Phy/radio_driver/lr_fhss_mac.h ****  * The Clear BSD License
   7:Middlewares/Third_Party/SubGHz_Phy/radio_driver/lr_fhss_mac.h ****  * Copyright Semtech Corporation 2021. All rights reserved.
   8:Middlewares/Third_Party/SubGHz_Phy/radio_driver/lr_fhss_mac.h ****  *
   9:Middlewares/Third_Party/SubGHz_Phy/radio_driver/lr_fhss_mac.h ****  * Redistribution and use in source and binary forms, with or without
  10:Middlewares/Third_Party/SubGHz_Phy/radio_driver/lr_fhss_mac.h ****  * modification, are permitted (subject to the limitations in the disclaimer
  11:Middlewares/Third_Party/SubGHz_Phy/radio_driver/lr_fhss_mac.h ****  * below) provided that the following conditions are met:
  12:Middlewares/Third_Party/SubGHz_Phy/radio_driver/lr_fhss_mac.h ****  *     * Redistributions of source code must retain the above copyright
  13:Middlewares/Third_Party/SubGHz_Phy/radio_driver/lr_fhss_mac.h ****  *       notice, this list of conditions and the following disclaimer.
  14:Middlewares/Third_Party/SubGHz_Phy/radio_driver/lr_fhss_mac.h ****  *     * Redistributions in binary form must reproduce the above copyright
  15:Middlewares/Third_Party/SubGHz_Phy/radio_driver/lr_fhss_mac.h ****  *       notice, this list of conditions and the following disclaimer in the
  16:Middlewares/Third_Party/SubGHz_Phy/radio_driver/lr_fhss_mac.h ****  *       documentation and/or other materials provided with the distribution.
  17:Middlewares/Third_Party/SubGHz_Phy/radio_driver/lr_fhss_mac.h ****  *     * Neither the name of the Semtech corporation nor the
  18:Middlewares/Third_Party/SubGHz_Phy/radio_driver/lr_fhss_mac.h ****  *       names of its contributors may be used to endorse or promote products
  19:Middlewares/Third_Party/SubGHz_Phy/radio_driver/lr_fhss_mac.h ****  *       derived from this software without specific prior written permission.
  20:Middlewares/Third_Party/SubGHz_Phy/radio_driver/lr_fhss_mac.h ****  *
  21:Middlewares/Third_Party/SubGHz_Phy/radio_driver/lr_fhss_mac.h ****  * NO EXPRESS OR IMPLIED LICENSES TO ANY PARTY'S PATENT RIGHTS ARE GRANTED BY
  22:Middlewares/Third_Party/SubGHz_Phy/radio_driver/lr_fhss_mac.h ****  * THIS LICENSE. THIS SOFTWARE IS PROVIDED BY THE COPYRIGHT HOLDERS AND
  23:Middlewares/Third_Party/SubGHz_Phy/radio_driver/lr_fhss_mac.h ****  * CONTRIBUTORS "AS IS" AND ANY EXPRESS OR IMPLIED WARRANTIES, INCLUDING, BUT
  24:Middlewares/Third_Party/SubGHz_Phy/radio_driver/lr_fhss_mac.h ****  * NOT LIMITED TO, THE IMPLIED WARRANTIES OF MERCHANTABILITY AND FITNESS FOR A
  25:Middlewares/Third_Party/SubGHz_Phy/radio_driver/lr_fhss_mac.h ****  * PARTICULAR PURPOSE ARE DISCLAIMED. IN NO EVENT SHALL SEMTECH CORPORATION BE
  26:Middlewares/Third_Party/SubGHz_Phy/radio_driver/lr_fhss_mac.h ****  * LIABLE FOR ANY DIRECT, INDIRECT, INCIDENTAL, SPECIAL, EXEMPLARY, OR
  27:Middlewares/Third_Party/SubGHz_Phy/radio_driver/lr_fhss_mac.h ****  * CONSEQUENTIAL DAMAGES (INCLUDING, BUT NOT LIMITED TO, PROCUREMENT OF
  28:Middlewares/Third_Party/SubGHz_Phy/radio_driver/lr_fhss_mac.h ****  * SUBSTITUTE GOODS OR SERVICES; LOSS OF USE, DATA, OR PROFITS; OR BUSINESS
  29:Middlewares/Third_Party/SubGHz_Phy/radio_driver/lr_fhss_mac.h ****  * INTERRUPTION) HOWEVER CAUSED AND ON ANY THEORY OF LIABILITY, WHETHER IN
  30:Middlewares/Third_Party/SubGHz_Phy/radio_driver/lr_fhss_mac.h ****  * CONTRACT, STRICT LIABILITY, OR TORT (INCLUDING NEGLIGENCE OR OTHERWISE)
  31:Middlewares/Third_Party/SubGHz_Phy/radio_driver/lr_fhss_mac.h ****  * ARISING IN ANY WAY OUT OF THE USE OF THIS SOFTWARE, EVEN IF ADVISED OF THE
  32:Middlewares/Third_Party/SubGHz_Phy/radio_driver/lr_fhss_mac.h ****  * POSSIBILITY OF SUCH DAMAGE.
  33:Middlewares/Third_Party/SubGHz_Phy/radio_driver/lr_fhss_mac.h ****  */
  34:Middlewares/Third_Party/SubGHz_Phy/radio_driver/lr_fhss_mac.h **** 
  35:Middlewares/Third_Party/SubGHz_Phy/radio_driver/lr_fhss_mac.h **** #ifndef LR_FHSS_MAC_H__
  36:Middlewares/Third_Party/SubGHz_Phy/radio_driver/lr_fhss_mac.h **** #define LR_FHSS_MAC_H__
  37:Middlewares/Third_Party/SubGHz_Phy/radio_driver/lr_fhss_mac.h **** 
  38:Middlewares/Third_Party/SubGHz_Phy/radio_driver/lr_fhss_mac.h **** /*
  39:Middlewares/Third_Party/SubGHz_Phy/radio_driver/lr_fhss_mac.h ****  * -----------------------------------------------------------------------------
  40:Middlewares/Third_Party/SubGHz_Phy/radio_driver/lr_fhss_mac.h ****  * --- DEPENDENCIES ------------------------------------------------------------
  41:Middlewares/Third_Party/SubGHz_Phy/radio_driver/lr_fhss_mac.h ****  */
  42:Middlewares/Third_Party/SubGHz_Phy/radio_driver/lr_fhss_mac.h **** 
  43:Middlewares/Third_Party/SubGHz_Phy/radio_driver/lr_fhss_mac.h **** #include <stdint.h>
  44:Middlewares/Third_Party/SubGHz_Phy/radio_driver/lr_fhss_mac.h **** #include <stdbool.h>
  45:Middlewares/Third_Party/SubGHz_Phy/radio_driver/lr_fhss_mac.h **** #include "radio_def.h"
  46:Middlewares/Third_Party/SubGHz_Phy/radio_driver/lr_fhss_mac.h **** #include "lr_fhss_v1_base_types.h"
  47:Middlewares/Third_Party/SubGHz_Phy/radio_driver/lr_fhss_mac.h **** 
  48:Middlewares/Third_Party/SubGHz_Phy/radio_driver/lr_fhss_mac.h **** /*
  49:Middlewares/Third_Party/SubGHz_Phy/radio_driver/lr_fhss_mac.h ****  * -----------------------------------------------------------------------------
  50:Middlewares/Third_Party/SubGHz_Phy/radio_driver/lr_fhss_mac.h ****  * --- PUBLIC MACROS -----------------------------------------------------------
  51:Middlewares/Third_Party/SubGHz_Phy/radio_driver/lr_fhss_mac.h ****  */
  52:Middlewares/Third_Party/SubGHz_Phy/radio_driver/lr_fhss_mac.h **** 
  53:Middlewares/Third_Party/SubGHz_Phy/radio_driver/lr_fhss_mac.h **** /*
  54:Middlewares/Third_Party/SubGHz_Phy/radio_driver/lr_fhss_mac.h ****  * -----------------------------------------------------------------------------
  55:Middlewares/Third_Party/SubGHz_Phy/radio_driver/lr_fhss_mac.h ****  * --- PUBLIC CONSTANTS --------------------------------------------------------
  56:Middlewares/Third_Party/SubGHz_Phy/radio_driver/lr_fhss_mac.h ****  */
  57:Middlewares/Third_Party/SubGHz_Phy/radio_driver/lr_fhss_mac.h **** 
  58:Middlewares/Third_Party/SubGHz_Phy/radio_driver/lr_fhss_mac.h **** 
  59:Middlewares/Third_Party/SubGHz_Phy/radio_driver/lr_fhss_mac.h **** /*
  60:Middlewares/Third_Party/SubGHz_Phy/radio_driver/lr_fhss_mac.h ****  * -----------------------------------------------------------------------------
ARM GAS  /tmp/ccvq1YAY.s 			page 66


  61:Middlewares/Third_Party/SubGHz_Phy/radio_driver/lr_fhss_mac.h ****  * --- PUBLIC TYPES ------------------------------------------------------------
  62:Middlewares/Third_Party/SubGHz_Phy/radio_driver/lr_fhss_mac.h ****  */
  63:Middlewares/Third_Party/SubGHz_Phy/radio_driver/lr_fhss_mac.h **** 
  64:Middlewares/Third_Party/SubGHz_Phy/radio_driver/lr_fhss_mac.h **** /*!
  65:Middlewares/Third_Party/SubGHz_Phy/radio_driver/lr_fhss_mac.h ****  * Digest, holding physical payload length and hop information
  66:Middlewares/Third_Party/SubGHz_Phy/radio_driver/lr_fhss_mac.h ****  */
  67:Middlewares/Third_Party/SubGHz_Phy/radio_driver/lr_fhss_mac.h **** typedef struct lr_fhss_digest_s
  68:Middlewares/Third_Party/SubGHz_Phy/radio_driver/lr_fhss_mac.h **** {
  69:Middlewares/Third_Party/SubGHz_Phy/radio_driver/lr_fhss_mac.h ****     uint16_t nb_bytes; /**< Length of LR-FHSS frame, in bytes */
  70:Middlewares/Third_Party/SubGHz_Phy/radio_driver/lr_fhss_mac.h ****     uint16_t nb_bits;  /**< Number of bits */
  71:Middlewares/Third_Party/SubGHz_Phy/radio_driver/lr_fhss_mac.h ****     uint8_t  nb_hops;  /**< Number of hops */
  72:Middlewares/Third_Party/SubGHz_Phy/radio_driver/lr_fhss_mac.h **** } lr_fhss_digest_t;
  73:Middlewares/Third_Party/SubGHz_Phy/radio_driver/lr_fhss_mac.h **** 
  74:Middlewares/Third_Party/SubGHz_Phy/radio_driver/lr_fhss_mac.h **** /*!
  75:Middlewares/Third_Party/SubGHz_Phy/radio_driver/lr_fhss_mac.h ****  * Hopping configuration, created by @ref lr_fhss_get_hop_params, and used to generate hop sequence
  76:Middlewares/Third_Party/SubGHz_Phy/radio_driver/lr_fhss_mac.h ****  */
  77:Middlewares/Third_Party/SubGHz_Phy/radio_driver/lr_fhss_mac.h **** typedef struct lr_fhss_hop_params_s
  78:Middlewares/Third_Party/SubGHz_Phy/radio_driver/lr_fhss_mac.h **** {
  79:Middlewares/Third_Party/SubGHz_Phy/radio_driver/lr_fhss_mac.h ****     uint16_t n_grid;          /**< Ngrid, as described in specification */
  80:Middlewares/Third_Party/SubGHz_Phy/radio_driver/lr_fhss_mac.h ****     uint16_t polynomial;      /**< polynomial, as described in specification, used for hop sequence
  81:Middlewares/Third_Party/SubGHz_Phy/radio_driver/lr_fhss_mac.h ****     uint16_t xoring_seed;     /**< xoring seed, as described in specification, used for hop sequenc
  82:Middlewares/Third_Party/SubGHz_Phy/radio_driver/lr_fhss_mac.h ****     uint16_t hop_sequence_id; /**< Hopping sequence seed, as described in specification, determines
  83:Middlewares/Third_Party/SubGHz_Phy/radio_driver/lr_fhss_mac.h ****                                  will be used */
  84:Middlewares/Third_Party/SubGHz_Phy/radio_driver/lr_fhss_mac.h **** } lr_fhss_hop_params_t;
  85:Middlewares/Third_Party/SubGHz_Phy/radio_driver/lr_fhss_mac.h **** 
  86:Middlewares/Third_Party/SubGHz_Phy/radio_driver/lr_fhss_mac.h **** /*!
  87:Middlewares/Third_Party/SubGHz_Phy/radio_driver/lr_fhss_mac.h ****   * -----------------------------------------------------------------------------
  88:Middlewares/Third_Party/SubGHz_Phy/radio_driver/lr_fhss_mac.h ****   * --- PUBLIC FUNCTIONS PROTOTYPES ---------------------------------------------
  89:Middlewares/Third_Party/SubGHz_Phy/radio_driver/lr_fhss_mac.h ****   */
  90:Middlewares/Third_Party/SubGHz_Phy/radio_driver/lr_fhss_mac.h **** 
  91:Middlewares/Third_Party/SubGHz_Phy/radio_driver/lr_fhss_mac.h **** #ifdef __cplusplus
  92:Middlewares/Third_Party/SubGHz_Phy/radio_driver/lr_fhss_mac.h **** extern "C" {
  93:Middlewares/Third_Party/SubGHz_Phy/radio_driver/lr_fhss_mac.h **** #endif
  94:Middlewares/Third_Party/SubGHz_Phy/radio_driver/lr_fhss_mac.h **** 
  95:Middlewares/Third_Party/SubGHz_Phy/radio_driver/lr_fhss_mac.h **** /*!
  96:Middlewares/Third_Party/SubGHz_Phy/radio_driver/lr_fhss_mac.h ****  * @brief Return the number of hop sequences available using the given parameters
  97:Middlewares/Third_Party/SubGHz_Phy/radio_driver/lr_fhss_mac.h ****  *
  98:Middlewares/Third_Party/SubGHz_Phy/radio_driver/lr_fhss_mac.h ****  * @param  [in] params         LR-FHSS parameter structure
  99:Middlewares/Third_Party/SubGHz_Phy/radio_driver/lr_fhss_mac.h ****  *
 100:Middlewares/Third_Party/SubGHz_Phy/radio_driver/lr_fhss_mac.h ****  * @returns Number of valid hop sequences (512 or 384)
 101:Middlewares/Third_Party/SubGHz_Phy/radio_driver/lr_fhss_mac.h ****  */
 102:Middlewares/Third_Party/SubGHz_Phy/radio_driver/lr_fhss_mac.h **** unsigned int lr_fhss_get_hop_sequence_count( const lr_fhss_v1_params_t *params );
 103:Middlewares/Third_Party/SubGHz_Phy/radio_driver/lr_fhss_mac.h **** 
 104:Middlewares/Third_Party/SubGHz_Phy/radio_driver/lr_fhss_mac.h **** /*!
 105:Middlewares/Third_Party/SubGHz_Phy/radio_driver/lr_fhss_mac.h ****  * @brief Fill the digest structure with various size-related data for a LR-FHSS frame
 106:Middlewares/Third_Party/SubGHz_Phy/radio_driver/lr_fhss_mac.h ****  *
 107:Middlewares/Third_Party/SubGHz_Phy/radio_driver/lr_fhss_mac.h ****  * @param  [in] params         LR-FHSS parameter structure
 108:Middlewares/Third_Party/SubGHz_Phy/radio_driver/lr_fhss_mac.h ****  * @param  [in] payload_length Length of payload, in bytes
 109:Middlewares/Third_Party/SubGHz_Phy/radio_driver/lr_fhss_mac.h ****  * @param [out] digest         Contains block count byte count, and number of hops
 110:Middlewares/Third_Party/SubGHz_Phy/radio_driver/lr_fhss_mac.h ****  */
 111:Middlewares/Third_Party/SubGHz_Phy/radio_driver/lr_fhss_mac.h **** void lr_fhss_process_parameters( const lr_fhss_v1_params_t *params, uint16_t payload_length, lr_fhs
 112:Middlewares/Third_Party/SubGHz_Phy/radio_driver/lr_fhss_mac.h **** 
 113:Middlewares/Third_Party/SubGHz_Phy/radio_driver/lr_fhss_mac.h **** /*!
 114:Middlewares/Third_Party/SubGHz_Phy/radio_driver/lr_fhss_mac.h ****  * @brief Fill the hop structure with various hop-related data for a LR-FHSS frame, and provide ini
 115:Middlewares/Third_Party/SubGHz_Phy/radio_driver/lr_fhss_mac.h ****  *
 116:Middlewares/Third_Party/SubGHz_Phy/radio_driver/lr_fhss_mac.h ****  * @param  [in] params          LR-FHSS parameter structure
 117:Middlewares/Third_Party/SubGHz_Phy/radio_driver/lr_fhss_mac.h ****  * @param [out] hop_params      Hop parameter structure
ARM GAS  /tmp/ccvq1YAY.s 			page 67


 118:Middlewares/Third_Party/SubGHz_Phy/radio_driver/lr_fhss_mac.h ****  * @param [out] initial_state   Initial LFSR state
