ARM GAS  /tmp/cclRXqpz.s 			page 1


   1              		.cpu cortex-m4
   2              		.arch armv7e-m
   3              		.fpu softvfp
   4              		.eabi_attribute 20, 1
   5              		.eabi_attribute 21, 1
   6              		.eabi_attribute 23, 3
   7              		.eabi_attribute 24, 1
   8              		.eabi_attribute 25, 1
   9              		.eabi_attribute 26, 1
  10              		.eabi_attribute 30, 1
  11              		.eabi_attribute 34, 1
  12              		.eabi_attribute 18, 4
  13              		.file	"stm32wlxx_hal_flash_ex.c"
  14              		.text
  15              	.Ltext0:
  16              		.cfi_sections	.debug_frame
  17              		.file 1 "Drivers/STM32WLxx_HAL_Driver/Src/stm32wlxx_hal_flash_ex.c"
  18              		.section	.text.FLASH_MassErase,"ax",%progbits
  19              		.align	1
  20              		.syntax unified
  21              		.thumb
  22              		.thumb_func
  24              	FLASH_MassErase:
  25              	.LFB855:
   1:Drivers/STM32WLxx_HAL_Driver/Src/stm32wlxx_hal_flash_ex.c **** /**
   2:Drivers/STM32WLxx_HAL_Driver/Src/stm32wlxx_hal_flash_ex.c ****   ******************************************************************************
   3:Drivers/STM32WLxx_HAL_Driver/Src/stm32wlxx_hal_flash_ex.c ****   * @file    stm32wlxx_hal_flash_ex.c
   4:Drivers/STM32WLxx_HAL_Driver/Src/stm32wlxx_hal_flash_ex.c ****   * @author  MCD Application Team
   5:Drivers/STM32WLxx_HAL_Driver/Src/stm32wlxx_hal_flash_ex.c ****   * @brief   Extended FLASH HAL module driver.
   6:Drivers/STM32WLxx_HAL_Driver/Src/stm32wlxx_hal_flash_ex.c ****   *          This file provides firmware functions to manage the following
   7:Drivers/STM32WLxx_HAL_Driver/Src/stm32wlxx_hal_flash_ex.c ****   *          functionalities of the FLASH extended peripheral:
   8:Drivers/STM32WLxx_HAL_Driver/Src/stm32wlxx_hal_flash_ex.c ****   *           + Extended programming operations functions
   9:Drivers/STM32WLxx_HAL_Driver/Src/stm32wlxx_hal_flash_ex.c ****   *
  10:Drivers/STM32WLxx_HAL_Driver/Src/stm32wlxx_hal_flash_ex.c ****   ******************************************************************************
  11:Drivers/STM32WLxx_HAL_Driver/Src/stm32wlxx_hal_flash_ex.c ****   * @attention
  12:Drivers/STM32WLxx_HAL_Driver/Src/stm32wlxx_hal_flash_ex.c ****   *
  13:Drivers/STM32WLxx_HAL_Driver/Src/stm32wlxx_hal_flash_ex.c ****   * Copyright (c) 2020 STMicroelectronics.
  14:Drivers/STM32WLxx_HAL_Driver/Src/stm32wlxx_hal_flash_ex.c ****   * All rights reserved.
  15:Drivers/STM32WLxx_HAL_Driver/Src/stm32wlxx_hal_flash_ex.c ****   *
  16:Drivers/STM32WLxx_HAL_Driver/Src/stm32wlxx_hal_flash_ex.c ****   * This software is licensed under terms that can be found in the LICENSE file
  17:Drivers/STM32WLxx_HAL_Driver/Src/stm32wlxx_hal_flash_ex.c ****   * in the root directory of this software component.
  18:Drivers/STM32WLxx_HAL_Driver/Src/stm32wlxx_hal_flash_ex.c ****   * If no LICENSE file comes with this software, it is provided AS-IS.
  19:Drivers/STM32WLxx_HAL_Driver/Src/stm32wlxx_hal_flash_ex.c ****   *
  20:Drivers/STM32WLxx_HAL_Driver/Src/stm32wlxx_hal_flash_ex.c ****   ******************************************************************************
  21:Drivers/STM32WLxx_HAL_Driver/Src/stm32wlxx_hal_flash_ex.c ****  @verbatim
  22:Drivers/STM32WLxx_HAL_Driver/Src/stm32wlxx_hal_flash_ex.c ****  ==============================================================================
  23:Drivers/STM32WLxx_HAL_Driver/Src/stm32wlxx_hal_flash_ex.c ****                    ##### Flash Extended features #####
  24:Drivers/STM32WLxx_HAL_Driver/Src/stm32wlxx_hal_flash_ex.c ****   ==============================================================================
  25:Drivers/STM32WLxx_HAL_Driver/Src/stm32wlxx_hal_flash_ex.c **** 
  26:Drivers/STM32WLxx_HAL_Driver/Src/stm32wlxx_hal_flash_ex.c ****   [..] Comparing to other previous devices, the FLASH interface for STM32WLxx
  27:Drivers/STM32WLxx_HAL_Driver/Src/stm32wlxx_hal_flash_ex.c ****        devices contains the following additional features
  28:Drivers/STM32WLxx_HAL_Driver/Src/stm32wlxx_hal_flash_ex.c **** 
  29:Drivers/STM32WLxx_HAL_Driver/Src/stm32wlxx_hal_flash_ex.c ****        (+) Capacity up to 256kB with single bank architecture supporting read-while-write
  30:Drivers/STM32WLxx_HAL_Driver/Src/stm32wlxx_hal_flash_ex.c ****            capability (RWW)
  31:Drivers/STM32WLxx_HAL_Driver/Src/stm32wlxx_hal_flash_ex.c ****        (+) Single bank memory organization
  32:Drivers/STM32WLxx_HAL_Driver/Src/stm32wlxx_hal_flash_ex.c ****        (+) PCROP protection
  33:Drivers/STM32WLxx_HAL_Driver/Src/stm32wlxx_hal_flash_ex.c ****        (+) WRP protection
ARM GAS  /tmp/cclRXqpz.s 			page 2


  34:Drivers/STM32WLxx_HAL_Driver/Src/stm32wlxx_hal_flash_ex.c ****        (+) CPU2 Security area
  35:Drivers/STM32WLxx_HAL_Driver/Src/stm32wlxx_hal_flash_ex.c ****        (+) Program Erase Suspend feature
  36:Drivers/STM32WLxx_HAL_Driver/Src/stm32wlxx_hal_flash_ex.c **** 
  37:Drivers/STM32WLxx_HAL_Driver/Src/stm32wlxx_hal_flash_ex.c ****                         ##### How to use this driver #####
  38:Drivers/STM32WLxx_HAL_Driver/Src/stm32wlxx_hal_flash_ex.c ****  ==============================================================================
  39:Drivers/STM32WLxx_HAL_Driver/Src/stm32wlxx_hal_flash_ex.c ****   [..] This driver provides functions to configure and program the FLASH memory
  40:Drivers/STM32WLxx_HAL_Driver/Src/stm32wlxx_hal_flash_ex.c ****        of all STM32WLxx devices. It includes
  41:Drivers/STM32WLxx_HAL_Driver/Src/stm32wlxx_hal_flash_ex.c ****       (#) Flash Memory Erase functions:
  42:Drivers/STM32WLxx_HAL_Driver/Src/stm32wlxx_hal_flash_ex.c ****            (++) Lock and Unlock the FLASH interface using HAL_FLASH_Unlock() and
  43:Drivers/STM32WLxx_HAL_Driver/Src/stm32wlxx_hal_flash_ex.c ****                 HAL_FLASH_Lock() functions
  44:Drivers/STM32WLxx_HAL_Driver/Src/stm32wlxx_hal_flash_ex.c ****            (++) Erase function: Erase page, erase all sectors
  45:Drivers/STM32WLxx_HAL_Driver/Src/stm32wlxx_hal_flash_ex.c ****            (++) There are two modes of erase :
  46:Drivers/STM32WLxx_HAL_Driver/Src/stm32wlxx_hal_flash_ex.c ****              (+++) Polling Mode using HAL_FLASHEx_Erase()
  47:Drivers/STM32WLxx_HAL_Driver/Src/stm32wlxx_hal_flash_ex.c ****              (+++) Interrupt Mode using HAL_FLASHEx_Erase_IT()
  48:Drivers/STM32WLxx_HAL_Driver/Src/stm32wlxx_hal_flash_ex.c **** 
  49:Drivers/STM32WLxx_HAL_Driver/Src/stm32wlxx_hal_flash_ex.c ****       (#) Option Bytes Programming function: Use HAL_FLASHEx_OBProgram() to :
  50:Drivers/STM32WLxx_HAL_Driver/Src/stm32wlxx_hal_flash_ex.c ****         (++) Set/Reset the write protection (per 4 KByte)
  51:Drivers/STM32WLxx_HAL_Driver/Src/stm32wlxx_hal_flash_ex.c ****         (++) Set the Read protection Level
  52:Drivers/STM32WLxx_HAL_Driver/Src/stm32wlxx_hal_flash_ex.c ****         (++) Program the user Option Bytes
  53:Drivers/STM32WLxx_HAL_Driver/Src/stm32wlxx_hal_flash_ex.c ****         (++) Configure the PCROP protection (per 2 KByte)
  54:Drivers/STM32WLxx_HAL_Driver/Src/stm32wlxx_hal_flash_ex.c ****         (++) Configure the IPCC Buffer start Address
  55:Drivers/STM32WLxx_HAL_Driver/Src/stm32wlxx_hal_flash_ex.c ****         (++) Configure the CPU2 boot region and reset vector start Address
  56:Drivers/STM32WLxx_HAL_Driver/Src/stm32wlxx_hal_flash_ex.c ****         (++) Configure the Flash and SRAM2 secure area
  57:Drivers/STM32WLxx_HAL_Driver/Src/stm32wlxx_hal_flash_ex.c **** 
  58:Drivers/STM32WLxx_HAL_Driver/Src/stm32wlxx_hal_flash_ex.c ****       (#) Get Option Bytes Configuration function: Use HAL_FLASHEx_OBGetConfig() to :
  59:Drivers/STM32WLxx_HAL_Driver/Src/stm32wlxx_hal_flash_ex.c ****         (++) Get the value of a write protection area
  60:Drivers/STM32WLxx_HAL_Driver/Src/stm32wlxx_hal_flash_ex.c ****         (++) Know if the read protection is activated
  61:Drivers/STM32WLxx_HAL_Driver/Src/stm32wlxx_hal_flash_ex.c ****         (++) Get the value of the user Option Bytes
  62:Drivers/STM32WLxx_HAL_Driver/Src/stm32wlxx_hal_flash_ex.c ****         (++) Get the value of a PCROP area
  63:Drivers/STM32WLxx_HAL_Driver/Src/stm32wlxx_hal_flash_ex.c ****         (++) Get the IPCC Buffer start Address
  64:Drivers/STM32WLxx_HAL_Driver/Src/stm32wlxx_hal_flash_ex.c ****         (++) Get the CPU2 boot region and reset vector start Address
  65:Drivers/STM32WLxx_HAL_Driver/Src/stm32wlxx_hal_flash_ex.c ****         (++) Get the Flash and SRAM2 secure area
  66:Drivers/STM32WLxx_HAL_Driver/Src/stm32wlxx_hal_flash_ex.c **** 
  67:Drivers/STM32WLxx_HAL_Driver/Src/stm32wlxx_hal_flash_ex.c ****       (#) Flash Suspend, Allow functions:
  68:Drivers/STM32WLxx_HAL_Driver/Src/stm32wlxx_hal_flash_ex.c ****            (++) Suspend or Allow new program or erase operation request using HAL_FLASHEx_SuspendOp
  69:Drivers/STM32WLxx_HAL_Driver/Src/stm32wlxx_hal_flash_ex.c ****                 HAL_FLASHEx_AllowOperation() functions
  70:Drivers/STM32WLxx_HAL_Driver/Src/stm32wlxx_hal_flash_ex.c **** 
  71:Drivers/STM32WLxx_HAL_Driver/Src/stm32wlxx_hal_flash_ex.c ****       (#) Check is flash content is empty or not using HAL_FLASHEx_FlashEmptyCheck().
  72:Drivers/STM32WLxx_HAL_Driver/Src/stm32wlxx_hal_flash_ex.c ****           and modify this setting (for flash loader purpose e.g.) using
  73:Drivers/STM32WLxx_HAL_Driver/Src/stm32wlxx_hal_flash_ex.c ****           HAL_FLASHEx_ForceFlashEmpty().
  74:Drivers/STM32WLxx_HAL_Driver/Src/stm32wlxx_hal_flash_ex.c **** 
  75:Drivers/STM32WLxx_HAL_Driver/Src/stm32wlxx_hal_flash_ex.c ****       (#) Enable, Disable CPU2 debug access using HAL_FLASHEx_EnableC2Debug() or
  76:Drivers/STM32WLxx_HAL_Driver/Src/stm32wlxx_hal_flash_ex.c ****           HAL_FLASHEx_DisableC2Debug()
  77:Drivers/STM32WLxx_HAL_Driver/Src/stm32wlxx_hal_flash_ex.c **** 
  78:Drivers/STM32WLxx_HAL_Driver/Src/stm32wlxx_hal_flash_ex.c ****       (#) Enable Secure Hide Protection area access using HAL_FLASHEx_EnableSecHideProtection()
  79:Drivers/STM32WLxx_HAL_Driver/Src/stm32wlxx_hal_flash_ex.c ****          (++) Enable Secure Hide Protection area access done by hardware on a system reset
  80:Drivers/STM32WLxx_HAL_Driver/Src/stm32wlxx_hal_flash_ex.c **** 
  81:Drivers/STM32WLxx_HAL_Driver/Src/stm32wlxx_hal_flash_ex.c ****       (#) Privilege mode configuration function: Use HAL_FLASHEx_ConfigPrivMode()
  82:Drivers/STM32WLxx_HAL_Driver/Src/stm32wlxx_hal_flash_ex.c ****         (++) FLASH register can be protected against non-privilege accesses
  83:Drivers/STM32WLxx_HAL_Driver/Src/stm32wlxx_hal_flash_ex.c **** 
  84:Drivers/STM32WLxx_HAL_Driver/Src/stm32wlxx_hal_flash_ex.c ****       (#) Get the privilege mode configuration function: Use HAL_FLASHEx_GetPrivMode()
  85:Drivers/STM32WLxx_HAL_Driver/Src/stm32wlxx_hal_flash_ex.c ****         (++) Returns if the FLASH registers are protected against non-privilege accesses
  86:Drivers/STM32WLxx_HAL_Driver/Src/stm32wlxx_hal_flash_ex.c **** 
  87:Drivers/STM32WLxx_HAL_Driver/Src/stm32wlxx_hal_flash_ex.c ****  @endverbatim
  88:Drivers/STM32WLxx_HAL_Driver/Src/stm32wlxx_hal_flash_ex.c ****   ******************************************************************************
  89:Drivers/STM32WLxx_HAL_Driver/Src/stm32wlxx_hal_flash_ex.c ****   */
  90:Drivers/STM32WLxx_HAL_Driver/Src/stm32wlxx_hal_flash_ex.c **** 
ARM GAS  /tmp/cclRXqpz.s 			page 3


  91:Drivers/STM32WLxx_HAL_Driver/Src/stm32wlxx_hal_flash_ex.c **** /* Includes ------------------------------------------------------------------*/
  92:Drivers/STM32WLxx_HAL_Driver/Src/stm32wlxx_hal_flash_ex.c **** #include "stm32wlxx_hal.h"
  93:Drivers/STM32WLxx_HAL_Driver/Src/stm32wlxx_hal_flash_ex.c **** 
  94:Drivers/STM32WLxx_HAL_Driver/Src/stm32wlxx_hal_flash_ex.c **** /** @addtogroup STM32WLxx_HAL_Driver
  95:Drivers/STM32WLxx_HAL_Driver/Src/stm32wlxx_hal_flash_ex.c ****   * @{
  96:Drivers/STM32WLxx_HAL_Driver/Src/stm32wlxx_hal_flash_ex.c ****   */
  97:Drivers/STM32WLxx_HAL_Driver/Src/stm32wlxx_hal_flash_ex.c **** 
  98:Drivers/STM32WLxx_HAL_Driver/Src/stm32wlxx_hal_flash_ex.c **** /** @defgroup FLASHEx FLASHEx
  99:Drivers/STM32WLxx_HAL_Driver/Src/stm32wlxx_hal_flash_ex.c ****   * @brief FLASH Extended HAL module driver
 100:Drivers/STM32WLxx_HAL_Driver/Src/stm32wlxx_hal_flash_ex.c ****   * @{
 101:Drivers/STM32WLxx_HAL_Driver/Src/stm32wlxx_hal_flash_ex.c ****   */
 102:Drivers/STM32WLxx_HAL_Driver/Src/stm32wlxx_hal_flash_ex.c **** 
 103:Drivers/STM32WLxx_HAL_Driver/Src/stm32wlxx_hal_flash_ex.c **** #ifdef HAL_FLASH_MODULE_ENABLED
 104:Drivers/STM32WLxx_HAL_Driver/Src/stm32wlxx_hal_flash_ex.c **** 
 105:Drivers/STM32WLxx_HAL_Driver/Src/stm32wlxx_hal_flash_ex.c **** /* Private typedef -----------------------------------------------------------*/
 106:Drivers/STM32WLxx_HAL_Driver/Src/stm32wlxx_hal_flash_ex.c **** /* Private define ------------------------------------------------------------*/
 107:Drivers/STM32WLxx_HAL_Driver/Src/stm32wlxx_hal_flash_ex.c **** /* Private macro -------------------------------------------------------------*/
 108:Drivers/STM32WLxx_HAL_Driver/Src/stm32wlxx_hal_flash_ex.c **** /* Private variables ---------------------------------------------------------*/
 109:Drivers/STM32WLxx_HAL_Driver/Src/stm32wlxx_hal_flash_ex.c **** /* Private function prototypes -----------------------------------------------*/
 110:Drivers/STM32WLxx_HAL_Driver/Src/stm32wlxx_hal_flash_ex.c **** /** @defgroup FLASHEx_Private_Functions FLASHEx Private Functions
 111:Drivers/STM32WLxx_HAL_Driver/Src/stm32wlxx_hal_flash_ex.c ****   * @{
 112:Drivers/STM32WLxx_HAL_Driver/Src/stm32wlxx_hal_flash_ex.c ****   */
 113:Drivers/STM32WLxx_HAL_Driver/Src/stm32wlxx_hal_flash_ex.c **** static void              FLASH_MassErase(void);
 114:Drivers/STM32WLxx_HAL_Driver/Src/stm32wlxx_hal_flash_ex.c **** static void              FLASH_AcknowledgePageErase(void);
 115:Drivers/STM32WLxx_HAL_Driver/Src/stm32wlxx_hal_flash_ex.c **** static void              FLASH_FlushCaches(void);
 116:Drivers/STM32WLxx_HAL_Driver/Src/stm32wlxx_hal_flash_ex.c **** static void              FLASH_OB_WRPConfig(uint32_t WRPArea, uint32_t WRPStartOffset, uint32_t WRD
 117:Drivers/STM32WLxx_HAL_Driver/Src/stm32wlxx_hal_flash_ex.c **** static void              FLASH_OB_OptrConfig(uint32_t UserType, uint32_t UserConfig, uint32_t RDPLe
 118:Drivers/STM32WLxx_HAL_Driver/Src/stm32wlxx_hal_flash_ex.c **** static void              FLASH_OB_PCROP1AConfig(uint32_t PCROPConfig, uint32_t PCROP1AStartAddr,
 119:Drivers/STM32WLxx_HAL_Driver/Src/stm32wlxx_hal_flash_ex.c ****                                                 uint32_t PCROP1AEndAddr);
 120:Drivers/STM32WLxx_HAL_Driver/Src/stm32wlxx_hal_flash_ex.c **** static void              FLASH_OB_PCROP1BConfig(uint32_t PCROP1BStartAddr, uint32_t PCROP1BEndAddr)
 121:Drivers/STM32WLxx_HAL_Driver/Src/stm32wlxx_hal_flash_ex.c **** #if defined(DUAL_CORE)
 122:Drivers/STM32WLxx_HAL_Driver/Src/stm32wlxx_hal_flash_ex.c **** static void              FLASH_OB_IPCCBufferAddrConfig(uint32_t IPCCDataBufAddr);
 123:Drivers/STM32WLxx_HAL_Driver/Src/stm32wlxx_hal_flash_ex.c **** static void              FLASH_OB_SecureConfig(FLASH_OBProgramInitTypeDef *pOBParam);
 124:Drivers/STM32WLxx_HAL_Driver/Src/stm32wlxx_hal_flash_ex.c **** #endif /* DUAL_CORE */
 125:Drivers/STM32WLxx_HAL_Driver/Src/stm32wlxx_hal_flash_ex.c **** static void              FLASH_OB_GetWRP(uint32_t WRPArea, uint32_t *WRPStartOffset, uint32_t *WRDP
 126:Drivers/STM32WLxx_HAL_Driver/Src/stm32wlxx_hal_flash_ex.c **** static uint32_t          FLASH_OB_GetRDP(void);
 127:Drivers/STM32WLxx_HAL_Driver/Src/stm32wlxx_hal_flash_ex.c **** static uint32_t          FLASH_OB_GetUser(void);
 128:Drivers/STM32WLxx_HAL_Driver/Src/stm32wlxx_hal_flash_ex.c **** static void              FLASH_OB_GetPCROP(uint32_t *PCROPConfig, uint32_t *PCROP1AStartAddr, uint3
 129:Drivers/STM32WLxx_HAL_Driver/Src/stm32wlxx_hal_flash_ex.c ****                                            uint32_t *PCROP1BStartAddr, uint32_t *PCROP1BEndAddr);
 130:Drivers/STM32WLxx_HAL_Driver/Src/stm32wlxx_hal_flash_ex.c **** #if defined(DUAL_CORE)
 131:Drivers/STM32WLxx_HAL_Driver/Src/stm32wlxx_hal_flash_ex.c **** static uint32_t          FLASH_OB_GetIPCCBufferAddr(void);
 132:Drivers/STM32WLxx_HAL_Driver/Src/stm32wlxx_hal_flash_ex.c **** static void              FLASH_OB_GetSecureMemoryConfig(uint32_t *SecureFlashStartAddr,
 133:Drivers/STM32WLxx_HAL_Driver/Src/stm32wlxx_hal_flash_ex.c ****                                                         uint32_t *HideProtectionStartAddr, uint32_t
 134:Drivers/STM32WLxx_HAL_Driver/Src/stm32wlxx_hal_flash_ex.c ****                                                         uint32_t *SecureMode);
 135:Drivers/STM32WLxx_HAL_Driver/Src/stm32wlxx_hal_flash_ex.c **** static void              FLASH_OB_GetC2BootResetConfig(uint32_t *C2BootResetVectAddr, uint32_t *C2B
 136:Drivers/STM32WLxx_HAL_Driver/Src/stm32wlxx_hal_flash_ex.c **** #endif /* DUAL_CORE */
 137:Drivers/STM32WLxx_HAL_Driver/Src/stm32wlxx_hal_flash_ex.c **** static HAL_StatusTypeDef FLASH_OB_ProceedWriteOperation(void);
 138:Drivers/STM32WLxx_HAL_Driver/Src/stm32wlxx_hal_flash_ex.c **** #if defined(DUAL_CORE)
 139:Drivers/STM32WLxx_HAL_Driver/Src/stm32wlxx_hal_flash_ex.c **** static uint32_t          FLASH_OB_GetSUBGHZSPISecureAccess(void);
 140:Drivers/STM32WLxx_HAL_Driver/Src/stm32wlxx_hal_flash_ex.c **** static uint32_t          FLASH_OB_GetC2DebugAccessMode(void);
 141:Drivers/STM32WLxx_HAL_Driver/Src/stm32wlxx_hal_flash_ex.c **** static void              FLASH_OB_ConfigSecureMode(uint32_t SecureMode, uint32_t *Reg, uint32_t Bit
 142:Drivers/STM32WLxx_HAL_Driver/Src/stm32wlxx_hal_flash_ex.c ****                                                    uint32_t ValueEnable);
 143:Drivers/STM32WLxx_HAL_Driver/Src/stm32wlxx_hal_flash_ex.c **** static uint32_t          FLASH_OB_GetSecureMode(uint32_t Reg, uint32_t Bit, uint32_t ValueEnable,
 144:Drivers/STM32WLxx_HAL_Driver/Src/stm32wlxx_hal_flash_ex.c ****                                                 uint32_t ValueDisable);
 145:Drivers/STM32WLxx_HAL_Driver/Src/stm32wlxx_hal_flash_ex.c **** #endif /* DUAL_CORE */
 146:Drivers/STM32WLxx_HAL_Driver/Src/stm32wlxx_hal_flash_ex.c **** /**
 147:Drivers/STM32WLxx_HAL_Driver/Src/stm32wlxx_hal_flash_ex.c ****   * @}
ARM GAS  /tmp/cclRXqpz.s 			page 4


 148:Drivers/STM32WLxx_HAL_Driver/Src/stm32wlxx_hal_flash_ex.c ****   */
 149:Drivers/STM32WLxx_HAL_Driver/Src/stm32wlxx_hal_flash_ex.c **** 
 150:Drivers/STM32WLxx_HAL_Driver/Src/stm32wlxx_hal_flash_ex.c **** /* Exported functions -------------------------------------------------------*/
 151:Drivers/STM32WLxx_HAL_Driver/Src/stm32wlxx_hal_flash_ex.c **** /** @defgroup FLASHEx_Exported_Functions FLASH Extended Exported Functions
 152:Drivers/STM32WLxx_HAL_Driver/Src/stm32wlxx_hal_flash_ex.c ****   * @{
 153:Drivers/STM32WLxx_HAL_Driver/Src/stm32wlxx_hal_flash_ex.c ****   */
 154:Drivers/STM32WLxx_HAL_Driver/Src/stm32wlxx_hal_flash_ex.c **** 
 155:Drivers/STM32WLxx_HAL_Driver/Src/stm32wlxx_hal_flash_ex.c **** /** @defgroup FLASHEx_Exported_Functions_Group1 Extended IO operation functions
 156:Drivers/STM32WLxx_HAL_Driver/Src/stm32wlxx_hal_flash_ex.c ****   *  @brief   Extended IO operation functions
 157:Drivers/STM32WLxx_HAL_Driver/Src/stm32wlxx_hal_flash_ex.c ****   *
 158:Drivers/STM32WLxx_HAL_Driver/Src/stm32wlxx_hal_flash_ex.c **** @verbatim
 159:Drivers/STM32WLxx_HAL_Driver/Src/stm32wlxx_hal_flash_ex.c ****  ===============================================================================
 160:Drivers/STM32WLxx_HAL_Driver/Src/stm32wlxx_hal_flash_ex.c ****                 ##### Extended programming operation functions #####
 161:Drivers/STM32WLxx_HAL_Driver/Src/stm32wlxx_hal_flash_ex.c ****  ===============================================================================
 162:Drivers/STM32WLxx_HAL_Driver/Src/stm32wlxx_hal_flash_ex.c ****     [..]
 163:Drivers/STM32WLxx_HAL_Driver/Src/stm32wlxx_hal_flash_ex.c ****     This subsection provides a set of functions allowing to manage the Extended FLASH
 164:Drivers/STM32WLxx_HAL_Driver/Src/stm32wlxx_hal_flash_ex.c ****     programming operations Operations.
 165:Drivers/STM32WLxx_HAL_Driver/Src/stm32wlxx_hal_flash_ex.c **** 
 166:Drivers/STM32WLxx_HAL_Driver/Src/stm32wlxx_hal_flash_ex.c **** @endverbatim
 167:Drivers/STM32WLxx_HAL_Driver/Src/stm32wlxx_hal_flash_ex.c ****   * @{
 168:Drivers/STM32WLxx_HAL_Driver/Src/stm32wlxx_hal_flash_ex.c ****   */
 169:Drivers/STM32WLxx_HAL_Driver/Src/stm32wlxx_hal_flash_ex.c **** /**
 170:Drivers/STM32WLxx_HAL_Driver/Src/stm32wlxx_hal_flash_ex.c ****   * @brief  Perform a mass erase or erase the specified FLASH memory pages.
 171:Drivers/STM32WLxx_HAL_Driver/Src/stm32wlxx_hal_flash_ex.c ****   * @note   Before any operation, it is possible to check there is no operation suspended
 172:Drivers/STM32WLxx_HAL_Driver/Src/stm32wlxx_hal_flash_ex.c ****   *         by call HAL_FLASHEx_IsOperationSuspended()
 173:Drivers/STM32WLxx_HAL_Driver/Src/stm32wlxx_hal_flash_ex.c ****   * @param[in]  pEraseInit Pointer to an @ref FLASH_EraseInitTypeDef structure that
 174:Drivers/STM32WLxx_HAL_Driver/Src/stm32wlxx_hal_flash_ex.c ****   *         contains the configuration information for the erasing.
 175:Drivers/STM32WLxx_HAL_Driver/Src/stm32wlxx_hal_flash_ex.c ****   * @param[out]  PageError Pointer to variable that contains the configuration
 176:Drivers/STM32WLxx_HAL_Driver/Src/stm32wlxx_hal_flash_ex.c ****   *         information on faulty page in case of error (0xFFFFFFFF means that all
 177:Drivers/STM32WLxx_HAL_Driver/Src/stm32wlxx_hal_flash_ex.c ****   *         the pages have been correctly erased)
 178:Drivers/STM32WLxx_HAL_Driver/Src/stm32wlxx_hal_flash_ex.c ****   * @retval HAL Status
 179:Drivers/STM32WLxx_HAL_Driver/Src/stm32wlxx_hal_flash_ex.c ****   */
 180:Drivers/STM32WLxx_HAL_Driver/Src/stm32wlxx_hal_flash_ex.c **** HAL_StatusTypeDef HAL_FLASHEx_Erase(const FLASH_EraseInitTypeDef *pEraseInit, uint32_t *PageError)
 181:Drivers/STM32WLxx_HAL_Driver/Src/stm32wlxx_hal_flash_ex.c **** {
 182:Drivers/STM32WLxx_HAL_Driver/Src/stm32wlxx_hal_flash_ex.c ****   HAL_StatusTypeDef status;
 183:Drivers/STM32WLxx_HAL_Driver/Src/stm32wlxx_hal_flash_ex.c ****   uint32_t index;
 184:Drivers/STM32WLxx_HAL_Driver/Src/stm32wlxx_hal_flash_ex.c **** 
 185:Drivers/STM32WLxx_HAL_Driver/Src/stm32wlxx_hal_flash_ex.c ****   /* Check the parameters */
 186:Drivers/STM32WLxx_HAL_Driver/Src/stm32wlxx_hal_flash_ex.c ****   assert_param(IS_FLASH_TYPEERASE(pEraseInit->TypeErase));
 187:Drivers/STM32WLxx_HAL_Driver/Src/stm32wlxx_hal_flash_ex.c **** 
 188:Drivers/STM32WLxx_HAL_Driver/Src/stm32wlxx_hal_flash_ex.c ****   /* Process Locked */
 189:Drivers/STM32WLxx_HAL_Driver/Src/stm32wlxx_hal_flash_ex.c ****   __HAL_LOCK(&pFlash);
 190:Drivers/STM32WLxx_HAL_Driver/Src/stm32wlxx_hal_flash_ex.c **** 
 191:Drivers/STM32WLxx_HAL_Driver/Src/stm32wlxx_hal_flash_ex.c ****   /* Reset error code */
 192:Drivers/STM32WLxx_HAL_Driver/Src/stm32wlxx_hal_flash_ex.c ****   pFlash.ErrorCode = HAL_FLASH_ERROR_NONE;
 193:Drivers/STM32WLxx_HAL_Driver/Src/stm32wlxx_hal_flash_ex.c **** 
 194:Drivers/STM32WLxx_HAL_Driver/Src/stm32wlxx_hal_flash_ex.c ****   /* Verify that next operation can be proceed */
 195:Drivers/STM32WLxx_HAL_Driver/Src/stm32wlxx_hal_flash_ex.c ****   status = FLASH_WaitForLastOperation(FLASH_TIMEOUT_VALUE);
 196:Drivers/STM32WLxx_HAL_Driver/Src/stm32wlxx_hal_flash_ex.c **** 
 197:Drivers/STM32WLxx_HAL_Driver/Src/stm32wlxx_hal_flash_ex.c ****   if (status == HAL_OK)
 198:Drivers/STM32WLxx_HAL_Driver/Src/stm32wlxx_hal_flash_ex.c ****   {
 199:Drivers/STM32WLxx_HAL_Driver/Src/stm32wlxx_hal_flash_ex.c ****     if (pEraseInit->TypeErase == FLASH_TYPEERASE_MASSERASE)
 200:Drivers/STM32WLxx_HAL_Driver/Src/stm32wlxx_hal_flash_ex.c ****     {
 201:Drivers/STM32WLxx_HAL_Driver/Src/stm32wlxx_hal_flash_ex.c ****       /* Mass erase to be done */
 202:Drivers/STM32WLxx_HAL_Driver/Src/stm32wlxx_hal_flash_ex.c ****       FLASH_MassErase();
 203:Drivers/STM32WLxx_HAL_Driver/Src/stm32wlxx_hal_flash_ex.c **** 
 204:Drivers/STM32WLxx_HAL_Driver/Src/stm32wlxx_hal_flash_ex.c ****       /* Wait for last operation to be completed */
ARM GAS  /tmp/cclRXqpz.s 			page 5


 205:Drivers/STM32WLxx_HAL_Driver/Src/stm32wlxx_hal_flash_ex.c ****       status = FLASH_WaitForLastOperation(FLASH_TIMEOUT_VALUE);
 206:Drivers/STM32WLxx_HAL_Driver/Src/stm32wlxx_hal_flash_ex.c **** 
 207:Drivers/STM32WLxx_HAL_Driver/Src/stm32wlxx_hal_flash_ex.c ****       /* If operation is completed or interrupted, no need to clear the Mass Erase Bit */
 208:Drivers/STM32WLxx_HAL_Driver/Src/stm32wlxx_hal_flash_ex.c ****     }
 209:Drivers/STM32WLxx_HAL_Driver/Src/stm32wlxx_hal_flash_ex.c ****     else
 210:Drivers/STM32WLxx_HAL_Driver/Src/stm32wlxx_hal_flash_ex.c ****     {
 211:Drivers/STM32WLxx_HAL_Driver/Src/stm32wlxx_hal_flash_ex.c ****       /*Initialization of PageError variable*/
 212:Drivers/STM32WLxx_HAL_Driver/Src/stm32wlxx_hal_flash_ex.c ****       *PageError = 0xFFFFFFFFU;
 213:Drivers/STM32WLxx_HAL_Driver/Src/stm32wlxx_hal_flash_ex.c **** 
 214:Drivers/STM32WLxx_HAL_Driver/Src/stm32wlxx_hal_flash_ex.c ****       for (index = pEraseInit->Page; index < (pEraseInit->Page + pEraseInit->NbPages); index++)
 215:Drivers/STM32WLxx_HAL_Driver/Src/stm32wlxx_hal_flash_ex.c ****       {
 216:Drivers/STM32WLxx_HAL_Driver/Src/stm32wlxx_hal_flash_ex.c ****         /* Start erase page */
 217:Drivers/STM32WLxx_HAL_Driver/Src/stm32wlxx_hal_flash_ex.c ****         FLASH_PageErase(index);
 218:Drivers/STM32WLxx_HAL_Driver/Src/stm32wlxx_hal_flash_ex.c **** 
 219:Drivers/STM32WLxx_HAL_Driver/Src/stm32wlxx_hal_flash_ex.c ****         /* Wait for last operation to be completed */
 220:Drivers/STM32WLxx_HAL_Driver/Src/stm32wlxx_hal_flash_ex.c ****         status = FLASH_WaitForLastOperation(FLASH_TIMEOUT_VALUE);
 221:Drivers/STM32WLxx_HAL_Driver/Src/stm32wlxx_hal_flash_ex.c **** 
 222:Drivers/STM32WLxx_HAL_Driver/Src/stm32wlxx_hal_flash_ex.c ****         if (status != HAL_OK)
 223:Drivers/STM32WLxx_HAL_Driver/Src/stm32wlxx_hal_flash_ex.c ****         {
 224:Drivers/STM32WLxx_HAL_Driver/Src/stm32wlxx_hal_flash_ex.c ****           /* In case of error, stop erase procedure and return the faulty address */
 225:Drivers/STM32WLxx_HAL_Driver/Src/stm32wlxx_hal_flash_ex.c ****           *PageError = index;
 226:Drivers/STM32WLxx_HAL_Driver/Src/stm32wlxx_hal_flash_ex.c ****           break;
 227:Drivers/STM32WLxx_HAL_Driver/Src/stm32wlxx_hal_flash_ex.c ****         }
 228:Drivers/STM32WLxx_HAL_Driver/Src/stm32wlxx_hal_flash_ex.c ****       }
 229:Drivers/STM32WLxx_HAL_Driver/Src/stm32wlxx_hal_flash_ex.c **** 
 230:Drivers/STM32WLxx_HAL_Driver/Src/stm32wlxx_hal_flash_ex.c ****       /* If operation is completed or interrupted, disable the Page Erase Bit */
 231:Drivers/STM32WLxx_HAL_Driver/Src/stm32wlxx_hal_flash_ex.c ****       FLASH_AcknowledgePageErase();
 232:Drivers/STM32WLxx_HAL_Driver/Src/stm32wlxx_hal_flash_ex.c ****     }
 233:Drivers/STM32WLxx_HAL_Driver/Src/stm32wlxx_hal_flash_ex.c **** 
 234:Drivers/STM32WLxx_HAL_Driver/Src/stm32wlxx_hal_flash_ex.c ****     /* Flush the caches to be sure of the data consistency */
 235:Drivers/STM32WLxx_HAL_Driver/Src/stm32wlxx_hal_flash_ex.c ****     FLASH_FlushCaches();
 236:Drivers/STM32WLxx_HAL_Driver/Src/stm32wlxx_hal_flash_ex.c ****   }
 237:Drivers/STM32WLxx_HAL_Driver/Src/stm32wlxx_hal_flash_ex.c **** 
 238:Drivers/STM32WLxx_HAL_Driver/Src/stm32wlxx_hal_flash_ex.c ****   /* Process Unlocked */
 239:Drivers/STM32WLxx_HAL_Driver/Src/stm32wlxx_hal_flash_ex.c ****   __HAL_UNLOCK(&pFlash);
 240:Drivers/STM32WLxx_HAL_Driver/Src/stm32wlxx_hal_flash_ex.c **** 
 241:Drivers/STM32WLxx_HAL_Driver/Src/stm32wlxx_hal_flash_ex.c ****   return status;
 242:Drivers/STM32WLxx_HAL_Driver/Src/stm32wlxx_hal_flash_ex.c **** }
 243:Drivers/STM32WLxx_HAL_Driver/Src/stm32wlxx_hal_flash_ex.c **** 
 244:Drivers/STM32WLxx_HAL_Driver/Src/stm32wlxx_hal_flash_ex.c **** /**
 245:Drivers/STM32WLxx_HAL_Driver/Src/stm32wlxx_hal_flash_ex.c ****   * @brief  Perform a mass erase or erase the specified FLASH memory pages with interrupt enabled.
 246:Drivers/STM32WLxx_HAL_Driver/Src/stm32wlxx_hal_flash_ex.c ****   * @note   Before any operation, it is possible to check there is no operation suspended
 247:Drivers/STM32WLxx_HAL_Driver/Src/stm32wlxx_hal_flash_ex.c ****   *         by call HAL_FLASHEx_IsOperationSuspended()
 248:Drivers/STM32WLxx_HAL_Driver/Src/stm32wlxx_hal_flash_ex.c ****   * @param  pEraseInit Pointer to an @ref FLASH_EraseInitTypeDef structure that
 249:Drivers/STM32WLxx_HAL_Driver/Src/stm32wlxx_hal_flash_ex.c ****   *         contains the configuration information for the erasing.
 250:Drivers/STM32WLxx_HAL_Driver/Src/stm32wlxx_hal_flash_ex.c ****   * @retval HAL Status
 251:Drivers/STM32WLxx_HAL_Driver/Src/stm32wlxx_hal_flash_ex.c ****   */
 252:Drivers/STM32WLxx_HAL_Driver/Src/stm32wlxx_hal_flash_ex.c **** HAL_StatusTypeDef HAL_FLASHEx_Erase_IT(FLASH_EraseInitTypeDef *pEraseInit)
 253:Drivers/STM32WLxx_HAL_Driver/Src/stm32wlxx_hal_flash_ex.c **** {
 254:Drivers/STM32WLxx_HAL_Driver/Src/stm32wlxx_hal_flash_ex.c ****   HAL_StatusTypeDef status;
 255:Drivers/STM32WLxx_HAL_Driver/Src/stm32wlxx_hal_flash_ex.c **** 
 256:Drivers/STM32WLxx_HAL_Driver/Src/stm32wlxx_hal_flash_ex.c ****   /* Check the parameters */
 257:Drivers/STM32WLxx_HAL_Driver/Src/stm32wlxx_hal_flash_ex.c ****   assert_param(IS_FLASH_TYPEERASE(pEraseInit->TypeErase));
 258:Drivers/STM32WLxx_HAL_Driver/Src/stm32wlxx_hal_flash_ex.c **** 
 259:Drivers/STM32WLxx_HAL_Driver/Src/stm32wlxx_hal_flash_ex.c ****   /* Process Locked */
 260:Drivers/STM32WLxx_HAL_Driver/Src/stm32wlxx_hal_flash_ex.c ****   __HAL_LOCK(&pFlash);
 261:Drivers/STM32WLxx_HAL_Driver/Src/stm32wlxx_hal_flash_ex.c **** 
ARM GAS  /tmp/cclRXqpz.s 			page 6


 262:Drivers/STM32WLxx_HAL_Driver/Src/stm32wlxx_hal_flash_ex.c ****   /* Reset error code */
 263:Drivers/STM32WLxx_HAL_Driver/Src/stm32wlxx_hal_flash_ex.c ****   pFlash.ErrorCode = HAL_FLASH_ERROR_NONE;
 264:Drivers/STM32WLxx_HAL_Driver/Src/stm32wlxx_hal_flash_ex.c **** 
 265:Drivers/STM32WLxx_HAL_Driver/Src/stm32wlxx_hal_flash_ex.c ****   /* save procedure for interrupt treatment */
 266:Drivers/STM32WLxx_HAL_Driver/Src/stm32wlxx_hal_flash_ex.c ****   pFlash.ProcedureOnGoing = pEraseInit->TypeErase;
 267:Drivers/STM32WLxx_HAL_Driver/Src/stm32wlxx_hal_flash_ex.c **** 
 268:Drivers/STM32WLxx_HAL_Driver/Src/stm32wlxx_hal_flash_ex.c ****   /* Verify that next operation can be proceed */
 269:Drivers/STM32WLxx_HAL_Driver/Src/stm32wlxx_hal_flash_ex.c ****   status = FLASH_WaitForLastOperation(FLASH_TIMEOUT_VALUE);
 270:Drivers/STM32WLxx_HAL_Driver/Src/stm32wlxx_hal_flash_ex.c **** 
 271:Drivers/STM32WLxx_HAL_Driver/Src/stm32wlxx_hal_flash_ex.c ****   if (status != HAL_OK)
 272:Drivers/STM32WLxx_HAL_Driver/Src/stm32wlxx_hal_flash_ex.c ****   {
 273:Drivers/STM32WLxx_HAL_Driver/Src/stm32wlxx_hal_flash_ex.c ****     /* Process Unlocked */
 274:Drivers/STM32WLxx_HAL_Driver/Src/stm32wlxx_hal_flash_ex.c ****     __HAL_UNLOCK(&pFlash);
 275:Drivers/STM32WLxx_HAL_Driver/Src/stm32wlxx_hal_flash_ex.c ****   }
 276:Drivers/STM32WLxx_HAL_Driver/Src/stm32wlxx_hal_flash_ex.c ****   else
 277:Drivers/STM32WLxx_HAL_Driver/Src/stm32wlxx_hal_flash_ex.c ****   {
 278:Drivers/STM32WLxx_HAL_Driver/Src/stm32wlxx_hal_flash_ex.c ****     /* Enable End of Operation and Error interrupts */
 279:Drivers/STM32WLxx_HAL_Driver/Src/stm32wlxx_hal_flash_ex.c ****     __HAL_FLASH_ENABLE_IT(FLASH_IT_EOP | FLASH_IT_OPERR);
 280:Drivers/STM32WLxx_HAL_Driver/Src/stm32wlxx_hal_flash_ex.c **** 
 281:Drivers/STM32WLxx_HAL_Driver/Src/stm32wlxx_hal_flash_ex.c ****     if (pEraseInit->TypeErase == FLASH_TYPEERASE_MASSERASE)
 282:Drivers/STM32WLxx_HAL_Driver/Src/stm32wlxx_hal_flash_ex.c ****     {
 283:Drivers/STM32WLxx_HAL_Driver/Src/stm32wlxx_hal_flash_ex.c ****       /* Set Page to 0 for Interrupt callback management */
 284:Drivers/STM32WLxx_HAL_Driver/Src/stm32wlxx_hal_flash_ex.c ****       pFlash.Page = 0;
 285:Drivers/STM32WLxx_HAL_Driver/Src/stm32wlxx_hal_flash_ex.c **** 
 286:Drivers/STM32WLxx_HAL_Driver/Src/stm32wlxx_hal_flash_ex.c ****       /* Proceed to Mass Erase */
 287:Drivers/STM32WLxx_HAL_Driver/Src/stm32wlxx_hal_flash_ex.c ****       FLASH_MassErase();
 288:Drivers/STM32WLxx_HAL_Driver/Src/stm32wlxx_hal_flash_ex.c ****     }
 289:Drivers/STM32WLxx_HAL_Driver/Src/stm32wlxx_hal_flash_ex.c ****     else
 290:Drivers/STM32WLxx_HAL_Driver/Src/stm32wlxx_hal_flash_ex.c ****     {
 291:Drivers/STM32WLxx_HAL_Driver/Src/stm32wlxx_hal_flash_ex.c ****       /* Erase by page to be done */
 292:Drivers/STM32WLxx_HAL_Driver/Src/stm32wlxx_hal_flash_ex.c ****       pFlash.NbPagesToErase = pEraseInit->NbPages;
 293:Drivers/STM32WLxx_HAL_Driver/Src/stm32wlxx_hal_flash_ex.c ****       pFlash.Page = pEraseInit->Page;
 294:Drivers/STM32WLxx_HAL_Driver/Src/stm32wlxx_hal_flash_ex.c **** 
 295:Drivers/STM32WLxx_HAL_Driver/Src/stm32wlxx_hal_flash_ex.c ****       /*Erase 1st page and wait for IT */
 296:Drivers/STM32WLxx_HAL_Driver/Src/stm32wlxx_hal_flash_ex.c ****       FLASH_PageErase(pEraseInit->Page);
 297:Drivers/STM32WLxx_HAL_Driver/Src/stm32wlxx_hal_flash_ex.c ****     }
 298:Drivers/STM32WLxx_HAL_Driver/Src/stm32wlxx_hal_flash_ex.c ****   }
 299:Drivers/STM32WLxx_HAL_Driver/Src/stm32wlxx_hal_flash_ex.c **** 
 300:Drivers/STM32WLxx_HAL_Driver/Src/stm32wlxx_hal_flash_ex.c ****   /* return status */
 301:Drivers/STM32WLxx_HAL_Driver/Src/stm32wlxx_hal_flash_ex.c ****   return status;
 302:Drivers/STM32WLxx_HAL_Driver/Src/stm32wlxx_hal_flash_ex.c **** }
 303:Drivers/STM32WLxx_HAL_Driver/Src/stm32wlxx_hal_flash_ex.c **** 
 304:Drivers/STM32WLxx_HAL_Driver/Src/stm32wlxx_hal_flash_ex.c **** /**
 305:Drivers/STM32WLxx_HAL_Driver/Src/stm32wlxx_hal_flash_ex.c ****   * @brief  Program Option bytes.
 306:Drivers/STM32WLxx_HAL_Driver/Src/stm32wlxx_hal_flash_ex.c ****   * @param  pOBInit Pointer to an @ref FLASH_OBProgramInitTypeDef structure that
 307:Drivers/STM32WLxx_HAL_Driver/Src/stm32wlxx_hal_flash_ex.c ****   *         contains the configuration information for the programming.
 308:Drivers/STM32WLxx_HAL_Driver/Src/stm32wlxx_hal_flash_ex.c ****   * @note   To configure any option bytes, the option lock bit OPTLOCK must be
 309:Drivers/STM32WLxx_HAL_Driver/Src/stm32wlxx_hal_flash_ex.c ****   *         cleared with the call of @ref HAL_FLASH_OB_Unlock() function.
 310:Drivers/STM32WLxx_HAL_Driver/Src/stm32wlxx_hal_flash_ex.c ****   * @note   New option bytes configuration will be taken into account only
 311:Drivers/STM32WLxx_HAL_Driver/Src/stm32wlxx_hal_flash_ex.c ****   *         - after an option bytes launch through the call of @ref HAL_FLASH_OB_Launch()
 312:Drivers/STM32WLxx_HAL_Driver/Src/stm32wlxx_hal_flash_ex.c ****   *         - a Power On Reset
 313:Drivers/STM32WLxx_HAL_Driver/Src/stm32wlxx_hal_flash_ex.c ****   *         - an exit from Standby or Shutdown mode.
 314:Drivers/STM32WLxx_HAL_Driver/Src/stm32wlxx_hal_flash_ex.c ****   * @retval HAL Status
 315:Drivers/STM32WLxx_HAL_Driver/Src/stm32wlxx_hal_flash_ex.c ****   */
 316:Drivers/STM32WLxx_HAL_Driver/Src/stm32wlxx_hal_flash_ex.c **** HAL_StatusTypeDef HAL_FLASHEx_OBProgram(FLASH_OBProgramInitTypeDef *pOBInit)
 317:Drivers/STM32WLxx_HAL_Driver/Src/stm32wlxx_hal_flash_ex.c **** {
 318:Drivers/STM32WLxx_HAL_Driver/Src/stm32wlxx_hal_flash_ex.c ****   uint32_t optr;
ARM GAS  /tmp/cclRXqpz.s 			page 7


 319:Drivers/STM32WLxx_HAL_Driver/Src/stm32wlxx_hal_flash_ex.c ****   HAL_StatusTypeDef status;
 320:Drivers/STM32WLxx_HAL_Driver/Src/stm32wlxx_hal_flash_ex.c **** 
 321:Drivers/STM32WLxx_HAL_Driver/Src/stm32wlxx_hal_flash_ex.c ****   /* Check the parameters */
 322:Drivers/STM32WLxx_HAL_Driver/Src/stm32wlxx_hal_flash_ex.c ****   assert_param(IS_OPTIONBYTE(pOBInit->OptionType));
 323:Drivers/STM32WLxx_HAL_Driver/Src/stm32wlxx_hal_flash_ex.c **** 
 324:Drivers/STM32WLxx_HAL_Driver/Src/stm32wlxx_hal_flash_ex.c ****   /* Process Locked */
 325:Drivers/STM32WLxx_HAL_Driver/Src/stm32wlxx_hal_flash_ex.c ****   __HAL_LOCK(&pFlash);
 326:Drivers/STM32WLxx_HAL_Driver/Src/stm32wlxx_hal_flash_ex.c **** 
 327:Drivers/STM32WLxx_HAL_Driver/Src/stm32wlxx_hal_flash_ex.c ****   pFlash.ErrorCode = HAL_FLASH_ERROR_NONE;
 328:Drivers/STM32WLxx_HAL_Driver/Src/stm32wlxx_hal_flash_ex.c **** 
 329:Drivers/STM32WLxx_HAL_Driver/Src/stm32wlxx_hal_flash_ex.c ****   /* Write protection configuration */
 330:Drivers/STM32WLxx_HAL_Driver/Src/stm32wlxx_hal_flash_ex.c ****   if ((pOBInit->OptionType & OPTIONBYTE_WRP) != 0U)
 331:Drivers/STM32WLxx_HAL_Driver/Src/stm32wlxx_hal_flash_ex.c ****   {
 332:Drivers/STM32WLxx_HAL_Driver/Src/stm32wlxx_hal_flash_ex.c ****     /* Configure of Write protection on the selected area */
 333:Drivers/STM32WLxx_HAL_Driver/Src/stm32wlxx_hal_flash_ex.c ****     FLASH_OB_WRPConfig(pOBInit->WRPArea, pOBInit->WRPStartOffset, pOBInit->WRPEndOffset);
 334:Drivers/STM32WLxx_HAL_Driver/Src/stm32wlxx_hal_flash_ex.c ****   }
 335:Drivers/STM32WLxx_HAL_Driver/Src/stm32wlxx_hal_flash_ex.c **** 
 336:Drivers/STM32WLxx_HAL_Driver/Src/stm32wlxx_hal_flash_ex.c ****   /* Option register */
 337:Drivers/STM32WLxx_HAL_Driver/Src/stm32wlxx_hal_flash_ex.c ****   if ((pOBInit->OptionType & (OPTIONBYTE_RDP | OPTIONBYTE_USER)) == (OPTIONBYTE_RDP | OPTIONBYTE_US
 338:Drivers/STM32WLxx_HAL_Driver/Src/stm32wlxx_hal_flash_ex.c ****   {
 339:Drivers/STM32WLxx_HAL_Driver/Src/stm32wlxx_hal_flash_ex.c ****     /* Fully modify OPTR register with RDP & user data */
 340:Drivers/STM32WLxx_HAL_Driver/Src/stm32wlxx_hal_flash_ex.c ****     FLASH_OB_OptrConfig(pOBInit->UserType, pOBInit->UserConfig, pOBInit->RDPLevel);
 341:Drivers/STM32WLxx_HAL_Driver/Src/stm32wlxx_hal_flash_ex.c ****   }
 342:Drivers/STM32WLxx_HAL_Driver/Src/stm32wlxx_hal_flash_ex.c ****   else if ((pOBInit->OptionType & OPTIONBYTE_RDP) != 0U)
 343:Drivers/STM32WLxx_HAL_Driver/Src/stm32wlxx_hal_flash_ex.c ****   {
 344:Drivers/STM32WLxx_HAL_Driver/Src/stm32wlxx_hal_flash_ex.c ****     /* Only modify RDP so get current user data */
 345:Drivers/STM32WLxx_HAL_Driver/Src/stm32wlxx_hal_flash_ex.c ****     optr = FLASH_OB_GetUser();
 346:Drivers/STM32WLxx_HAL_Driver/Src/stm32wlxx_hal_flash_ex.c **** 
 347:Drivers/STM32WLxx_HAL_Driver/Src/stm32wlxx_hal_flash_ex.c ****     /* Remove BOR LEVEL User Type*/
 348:Drivers/STM32WLxx_HAL_Driver/Src/stm32wlxx_hal_flash_ex.c ****     optr &= ~OB_USER_BOR_LEV;
 349:Drivers/STM32WLxx_HAL_Driver/Src/stm32wlxx_hal_flash_ex.c **** 
 350:Drivers/STM32WLxx_HAL_Driver/Src/stm32wlxx_hal_flash_ex.c ****     FLASH_OB_OptrConfig(optr, optr, pOBInit->RDPLevel);
 351:Drivers/STM32WLxx_HAL_Driver/Src/stm32wlxx_hal_flash_ex.c ****   }
 352:Drivers/STM32WLxx_HAL_Driver/Src/stm32wlxx_hal_flash_ex.c ****   else if ((pOBInit->OptionType & OPTIONBYTE_USER) != 0U)
 353:Drivers/STM32WLxx_HAL_Driver/Src/stm32wlxx_hal_flash_ex.c ****   {
 354:Drivers/STM32WLxx_HAL_Driver/Src/stm32wlxx_hal_flash_ex.c ****     /* Only modify user so get current RDP level */
 355:Drivers/STM32WLxx_HAL_Driver/Src/stm32wlxx_hal_flash_ex.c ****     optr = FLASH_OB_GetRDP();
 356:Drivers/STM32WLxx_HAL_Driver/Src/stm32wlxx_hal_flash_ex.c ****     FLASH_OB_OptrConfig(pOBInit->UserType, pOBInit->UserConfig, optr);
 357:Drivers/STM32WLxx_HAL_Driver/Src/stm32wlxx_hal_flash_ex.c ****   }
 358:Drivers/STM32WLxx_HAL_Driver/Src/stm32wlxx_hal_flash_ex.c ****   else
 359:Drivers/STM32WLxx_HAL_Driver/Src/stm32wlxx_hal_flash_ex.c ****   {
 360:Drivers/STM32WLxx_HAL_Driver/Src/stm32wlxx_hal_flash_ex.c ****     /* Do Nothing */
 361:Drivers/STM32WLxx_HAL_Driver/Src/stm32wlxx_hal_flash_ex.c ****   }
 362:Drivers/STM32WLxx_HAL_Driver/Src/stm32wlxx_hal_flash_ex.c **** 
 363:Drivers/STM32WLxx_HAL_Driver/Src/stm32wlxx_hal_flash_ex.c ****   /* PCROP Configuration */
 364:Drivers/STM32WLxx_HAL_Driver/Src/stm32wlxx_hal_flash_ex.c ****   if ((pOBInit->OptionType & OPTIONBYTE_PCROP) != 0U)
 365:Drivers/STM32WLxx_HAL_Driver/Src/stm32wlxx_hal_flash_ex.c ****   {
 366:Drivers/STM32WLxx_HAL_Driver/Src/stm32wlxx_hal_flash_ex.c ****     /* Check the parameters */
 367:Drivers/STM32WLxx_HAL_Driver/Src/stm32wlxx_hal_flash_ex.c ****     assert_param(IS_OB_PCROP_CONFIG(pOBInit->PCROPConfig));
 368:Drivers/STM32WLxx_HAL_Driver/Src/stm32wlxx_hal_flash_ex.c **** 
 369:Drivers/STM32WLxx_HAL_Driver/Src/stm32wlxx_hal_flash_ex.c ****     if ((pOBInit->PCROPConfig & (OB_PCROP_ZONE_A | OB_PCROP_RDP_ERASE)) != 0U)
 370:Drivers/STM32WLxx_HAL_Driver/Src/stm32wlxx_hal_flash_ex.c ****     {
 371:Drivers/STM32WLxx_HAL_Driver/Src/stm32wlxx_hal_flash_ex.c ****       /* Configure the Zone 1A Proprietary code readout protection */
 372:Drivers/STM32WLxx_HAL_Driver/Src/stm32wlxx_hal_flash_ex.c ****       FLASH_OB_PCROP1AConfig(pOBInit->PCROPConfig, pOBInit->PCROP1AStartAddr, pOBInit->PCROP1AEndAd
 373:Drivers/STM32WLxx_HAL_Driver/Src/stm32wlxx_hal_flash_ex.c ****     }
 374:Drivers/STM32WLxx_HAL_Driver/Src/stm32wlxx_hal_flash_ex.c **** 
 375:Drivers/STM32WLxx_HAL_Driver/Src/stm32wlxx_hal_flash_ex.c ****     if ((pOBInit->PCROPConfig & OB_PCROP_ZONE_B) != 0U)
ARM GAS  /tmp/cclRXqpz.s 			page 8


 376:Drivers/STM32WLxx_HAL_Driver/Src/stm32wlxx_hal_flash_ex.c ****     {
 377:Drivers/STM32WLxx_HAL_Driver/Src/stm32wlxx_hal_flash_ex.c ****       /* Configure the Zone 1B Proprietary code readout protection */
 378:Drivers/STM32WLxx_HAL_Driver/Src/stm32wlxx_hal_flash_ex.c ****       FLASH_OB_PCROP1BConfig(pOBInit->PCROP1BStartAddr, pOBInit->PCROP1BEndAddr);
 379:Drivers/STM32WLxx_HAL_Driver/Src/stm32wlxx_hal_flash_ex.c ****     }
 380:Drivers/STM32WLxx_HAL_Driver/Src/stm32wlxx_hal_flash_ex.c ****   }
 381:Drivers/STM32WLxx_HAL_Driver/Src/stm32wlxx_hal_flash_ex.c **** 
 382:Drivers/STM32WLxx_HAL_Driver/Src/stm32wlxx_hal_flash_ex.c **** #if defined(DUAL_CORE)
 383:Drivers/STM32WLxx_HAL_Driver/Src/stm32wlxx_hal_flash_ex.c ****   /*  Secure mode and CPU2 Boot Vector */
 384:Drivers/STM32WLxx_HAL_Driver/Src/stm32wlxx_hal_flash_ex.c ****   if ((pOBInit->OptionType & (OPTIONBYTE_SECURE_MODE | OPTIONBYTE_C2_BOOT_VECT | OPTIONBYTE_C2_DEBU
 385:Drivers/STM32WLxx_HAL_Driver/Src/stm32wlxx_hal_flash_ex.c ****                               OPTIONBYTE_SUBGHZSPI_SECURE_ACCESS)) != 0U)
 386:Drivers/STM32WLxx_HAL_Driver/Src/stm32wlxx_hal_flash_ex.c ****   {
 387:Drivers/STM32WLxx_HAL_Driver/Src/stm32wlxx_hal_flash_ex.c ****     /* Set the secure flash, SRAM memory start address, CPU2 boot reset vector or CPU2 debug access
 388:Drivers/STM32WLxx_HAL_Driver/Src/stm32wlxx_hal_flash_ex.c ****     FLASH_OB_SecureConfig(pOBInit);
 389:Drivers/STM32WLxx_HAL_Driver/Src/stm32wlxx_hal_flash_ex.c ****   }
 390:Drivers/STM32WLxx_HAL_Driver/Src/stm32wlxx_hal_flash_ex.c **** 
 391:Drivers/STM32WLxx_HAL_Driver/Src/stm32wlxx_hal_flash_ex.c ****   /* IPCC mailbox data buffer address */
 392:Drivers/STM32WLxx_HAL_Driver/Src/stm32wlxx_hal_flash_ex.c ****   if ((pOBInit->OptionType & OPTIONBYTE_IPCC_BUF_ADDR) != 0U)
 393:Drivers/STM32WLxx_HAL_Driver/Src/stm32wlxx_hal_flash_ex.c ****   {
 394:Drivers/STM32WLxx_HAL_Driver/Src/stm32wlxx_hal_flash_ex.c ****     /* Configure the IPCC data buffer address */
 395:Drivers/STM32WLxx_HAL_Driver/Src/stm32wlxx_hal_flash_ex.c ****     FLASH_OB_IPCCBufferAddrConfig(pOBInit->IPCCdataBufAddr);
 396:Drivers/STM32WLxx_HAL_Driver/Src/stm32wlxx_hal_flash_ex.c ****   }
 397:Drivers/STM32WLxx_HAL_Driver/Src/stm32wlxx_hal_flash_ex.c **** #endif /* DUAL_CORE */
 398:Drivers/STM32WLxx_HAL_Driver/Src/stm32wlxx_hal_flash_ex.c **** 
 399:Drivers/STM32WLxx_HAL_Driver/Src/stm32wlxx_hal_flash_ex.c ****   /* Proceed the OB Write Operation */
 400:Drivers/STM32WLxx_HAL_Driver/Src/stm32wlxx_hal_flash_ex.c ****   status = FLASH_OB_ProceedWriteOperation();
 401:Drivers/STM32WLxx_HAL_Driver/Src/stm32wlxx_hal_flash_ex.c **** 
 402:Drivers/STM32WLxx_HAL_Driver/Src/stm32wlxx_hal_flash_ex.c ****   /* Process Unlocked */
 403:Drivers/STM32WLxx_HAL_Driver/Src/stm32wlxx_hal_flash_ex.c ****   __HAL_UNLOCK(&pFlash);
 404:Drivers/STM32WLxx_HAL_Driver/Src/stm32wlxx_hal_flash_ex.c **** 
 405:Drivers/STM32WLxx_HAL_Driver/Src/stm32wlxx_hal_flash_ex.c ****   /* return status */
 406:Drivers/STM32WLxx_HAL_Driver/Src/stm32wlxx_hal_flash_ex.c ****   return status;
 407:Drivers/STM32WLxx_HAL_Driver/Src/stm32wlxx_hal_flash_ex.c **** }
 408:Drivers/STM32WLxx_HAL_Driver/Src/stm32wlxx_hal_flash_ex.c **** 
 409:Drivers/STM32WLxx_HAL_Driver/Src/stm32wlxx_hal_flash_ex.c **** /**
 410:Drivers/STM32WLxx_HAL_Driver/Src/stm32wlxx_hal_flash_ex.c ****   * @brief  Get the Option bytes configuration.
 411:Drivers/STM32WLxx_HAL_Driver/Src/stm32wlxx_hal_flash_ex.c ****   * @note   warning: this API only read flash register, it does not reflect any
 412:Drivers/STM32WLxx_HAL_Driver/Src/stm32wlxx_hal_flash_ex.c ****   *         change that would have been programmed between previous Option byte
 413:Drivers/STM32WLxx_HAL_Driver/Src/stm32wlxx_hal_flash_ex.c ****   *         loading and current call.
 414:Drivers/STM32WLxx_HAL_Driver/Src/stm32wlxx_hal_flash_ex.c ****   * @param  pOBInit Pointer to an @ref FLASH_OBProgramInitTypeDef structure that contains the
 415:Drivers/STM32WLxx_HAL_Driver/Src/stm32wlxx_hal_flash_ex.c ****   *                  configuration information. The fields pOBInit->WRPArea and
 416:Drivers/STM32WLxx_HAL_Driver/Src/stm32wlxx_hal_flash_ex.c ****   *                  pOBInit->PCROPConfig should indicate which area is requested
 417:Drivers/STM32WLxx_HAL_Driver/Src/stm32wlxx_hal_flash_ex.c ****   *                  for the WRP and PCROP.
 418:Drivers/STM32WLxx_HAL_Driver/Src/stm32wlxx_hal_flash_ex.c ****   * @retval None
 419:Drivers/STM32WLxx_HAL_Driver/Src/stm32wlxx_hal_flash_ex.c ****   */
 420:Drivers/STM32WLxx_HAL_Driver/Src/stm32wlxx_hal_flash_ex.c **** void HAL_FLASHEx_OBGetConfig(FLASH_OBProgramInitTypeDef *pOBInit)
 421:Drivers/STM32WLxx_HAL_Driver/Src/stm32wlxx_hal_flash_ex.c **** {
 422:Drivers/STM32WLxx_HAL_Driver/Src/stm32wlxx_hal_flash_ex.c ****   pOBInit->OptionType = OPTIONBYTE_ALL;
 423:Drivers/STM32WLxx_HAL_Driver/Src/stm32wlxx_hal_flash_ex.c **** 
 424:Drivers/STM32WLxx_HAL_Driver/Src/stm32wlxx_hal_flash_ex.c ****   if ((pOBInit->WRPArea == OB_WRPAREA_BANK1_AREAA) || (pOBInit->WRPArea == OB_WRPAREA_BANK1_AREAB))
 425:Drivers/STM32WLxx_HAL_Driver/Src/stm32wlxx_hal_flash_ex.c ****   {
 426:Drivers/STM32WLxx_HAL_Driver/Src/stm32wlxx_hal_flash_ex.c ****     /* Get write protection on the selected area */
 427:Drivers/STM32WLxx_HAL_Driver/Src/stm32wlxx_hal_flash_ex.c ****     FLASH_OB_GetWRP(pOBInit->WRPArea, &(pOBInit->WRPStartOffset), &(pOBInit->WRPEndOffset));
 428:Drivers/STM32WLxx_HAL_Driver/Src/stm32wlxx_hal_flash_ex.c ****   }
 429:Drivers/STM32WLxx_HAL_Driver/Src/stm32wlxx_hal_flash_ex.c **** 
 430:Drivers/STM32WLxx_HAL_Driver/Src/stm32wlxx_hal_flash_ex.c ****   /* Get Read protection level */
 431:Drivers/STM32WLxx_HAL_Driver/Src/stm32wlxx_hal_flash_ex.c ****   pOBInit->RDPLevel = FLASH_OB_GetRDP();
 432:Drivers/STM32WLxx_HAL_Driver/Src/stm32wlxx_hal_flash_ex.c **** 
ARM GAS  /tmp/cclRXqpz.s 			page 9


 433:Drivers/STM32WLxx_HAL_Driver/Src/stm32wlxx_hal_flash_ex.c ****   /* Get the user option bytes */
 434:Drivers/STM32WLxx_HAL_Driver/Src/stm32wlxx_hal_flash_ex.c ****   pOBInit->UserConfig = FLASH_OB_GetUser();
 435:Drivers/STM32WLxx_HAL_Driver/Src/stm32wlxx_hal_flash_ex.c ****   pOBInit->UserType = OB_USER_ALL;
 436:Drivers/STM32WLxx_HAL_Driver/Src/stm32wlxx_hal_flash_ex.c **** 
 437:Drivers/STM32WLxx_HAL_Driver/Src/stm32wlxx_hal_flash_ex.c ****   /* Get the Zone 1A and 1B Proprietary code readout protection */
 438:Drivers/STM32WLxx_HAL_Driver/Src/stm32wlxx_hal_flash_ex.c ****   FLASH_OB_GetPCROP(&(pOBInit->PCROPConfig), &(pOBInit->PCROP1AStartAddr), &(pOBInit->PCROP1AEndAdd
 439:Drivers/STM32WLxx_HAL_Driver/Src/stm32wlxx_hal_flash_ex.c ****                     &(pOBInit->PCROP1BStartAddr), &(pOBInit->PCROP1BEndAddr));
 440:Drivers/STM32WLxx_HAL_Driver/Src/stm32wlxx_hal_flash_ex.c ****   pOBInit->PCROPConfig |= (OB_PCROP_ZONE_A | OB_PCROP_ZONE_B);
 441:Drivers/STM32WLxx_HAL_Driver/Src/stm32wlxx_hal_flash_ex.c **** 
 442:Drivers/STM32WLxx_HAL_Driver/Src/stm32wlxx_hal_flash_ex.c **** #if defined(DUAL_CORE)
 443:Drivers/STM32WLxx_HAL_Driver/Src/stm32wlxx_hal_flash_ex.c ****   /* Get the IPCC start Address */
 444:Drivers/STM32WLxx_HAL_Driver/Src/stm32wlxx_hal_flash_ex.c ****   pOBInit->IPCCdataBufAddr = FLASH_OB_GetIPCCBufferAddr();
 445:Drivers/STM32WLxx_HAL_Driver/Src/stm32wlxx_hal_flash_ex.c **** 
 446:Drivers/STM32WLxx_HAL_Driver/Src/stm32wlxx_hal_flash_ex.c ****   /* Get the Secure Flash start address, Secure Hide Protection start address Secure Backup SRAM2 s
 447:Drivers/STM32WLxx_HAL_Driver/Src/stm32wlxx_hal_flash_ex.c ****   FLASH_OB_GetSecureMemoryConfig(&(pOBInit->SecureFlashStartAddr), &(pOBInit->HideProtectionStartAd
 448:Drivers/STM32WLxx_HAL_Driver/Src/stm32wlxx_hal_flash_ex.c ****                                  &(pOBInit->SecureSRAM2StartAddr), &(pOBInit->SecureSRAM1StartAddr)
 449:Drivers/STM32WLxx_HAL_Driver/Src/stm32wlxx_hal_flash_ex.c **** 
 450:Drivers/STM32WLxx_HAL_Driver/Src/stm32wlxx_hal_flash_ex.c ****   /* Get the M0+ Secure Boot reset vector address and Secure Boot memory selection */
 451:Drivers/STM32WLxx_HAL_Driver/Src/stm32wlxx_hal_flash_ex.c ****   FLASH_OB_GetC2BootResetConfig(&(pOBInit->C2SecureBootVectAddr), &(pOBInit->C2BootRegion));
 452:Drivers/STM32WLxx_HAL_Driver/Src/stm32wlxx_hal_flash_ex.c **** 
 453:Drivers/STM32WLxx_HAL_Driver/Src/stm32wlxx_hal_flash_ex.c ****   /* Get the Sub-GHz radio SPI Secure Access */
 454:Drivers/STM32WLxx_HAL_Driver/Src/stm32wlxx_hal_flash_ex.c ****   pOBInit->SUBGHZSPISecureAccess = FLASH_OB_GetSUBGHZSPISecureAccess();
 455:Drivers/STM32WLxx_HAL_Driver/Src/stm32wlxx_hal_flash_ex.c **** 
 456:Drivers/STM32WLxx_HAL_Driver/Src/stm32wlxx_hal_flash_ex.c ****   /* Get the CPU2 Debug Access Mode */
 457:Drivers/STM32WLxx_HAL_Driver/Src/stm32wlxx_hal_flash_ex.c ****   pOBInit->C2DebugAccessMode = FLASH_OB_GetC2DebugAccessMode();
 458:Drivers/STM32WLxx_HAL_Driver/Src/stm32wlxx_hal_flash_ex.c **** #endif /* DUAL_CORE */
 459:Drivers/STM32WLxx_HAL_Driver/Src/stm32wlxx_hal_flash_ex.c **** }
 460:Drivers/STM32WLxx_HAL_Driver/Src/stm32wlxx_hal_flash_ex.c **** 
 461:Drivers/STM32WLxx_HAL_Driver/Src/stm32wlxx_hal_flash_ex.c **** /**
 462:Drivers/STM32WLxx_HAL_Driver/Src/stm32wlxx_hal_flash_ex.c ****   * @brief  Flash Empty check
 463:Drivers/STM32WLxx_HAL_Driver/Src/stm32wlxx_hal_flash_ex.c ****   * @note   This API checks if first location in Flash is programmed or not.
 464:Drivers/STM32WLxx_HAL_Driver/Src/stm32wlxx_hal_flash_ex.c ****   *         This check is done once by Option Byte Loader.
 465:Drivers/STM32WLxx_HAL_Driver/Src/stm32wlxx_hal_flash_ex.c ****   * @retval Returned value can be one of the following values:
 466:Drivers/STM32WLxx_HAL_Driver/Src/stm32wlxx_hal_flash_ex.c ****   *         @arg @ref FLASH_PROG_NOT_EMPTY 1st location in Flash is programmed
 467:Drivers/STM32WLxx_HAL_Driver/Src/stm32wlxx_hal_flash_ex.c ****   *         @arg @ref FLASH_PROG_EMPTY 1st location in Flash is empty
 468:Drivers/STM32WLxx_HAL_Driver/Src/stm32wlxx_hal_flash_ex.c ****   */
 469:Drivers/STM32WLxx_HAL_Driver/Src/stm32wlxx_hal_flash_ex.c **** uint32_t HAL_FLASHEx_FlashEmptyCheck(void)
 470:Drivers/STM32WLxx_HAL_Driver/Src/stm32wlxx_hal_flash_ex.c **** {
 471:Drivers/STM32WLxx_HAL_Driver/Src/stm32wlxx_hal_flash_ex.c ****   return (READ_BIT(FLASH->ACR, FLASH_ACR_EMPTY));
 472:Drivers/STM32WLxx_HAL_Driver/Src/stm32wlxx_hal_flash_ex.c **** }
 473:Drivers/STM32WLxx_HAL_Driver/Src/stm32wlxx_hal_flash_ex.c **** 
 474:Drivers/STM32WLxx_HAL_Driver/Src/stm32wlxx_hal_flash_ex.c **** 
 475:Drivers/STM32WLxx_HAL_Driver/Src/stm32wlxx_hal_flash_ex.c **** /**
 476:Drivers/STM32WLxx_HAL_Driver/Src/stm32wlxx_hal_flash_ex.c ****   * @brief  Force Empty check value.
 477:Drivers/STM32WLxx_HAL_Driver/Src/stm32wlxx_hal_flash_ex.c ****   * @note   Allows to modify program empty check value in order to force this
 478:Drivers/STM32WLxx_HAL_Driver/Src/stm32wlxx_hal_flash_ex.c ****   *         information in Flash Interface, for all next reset that do not launch
 479:Drivers/STM32WLxx_HAL_Driver/Src/stm32wlxx_hal_flash_ex.c ****   *         Option Byte Loader.
 480:Drivers/STM32WLxx_HAL_Driver/Src/stm32wlxx_hal_flash_ex.c ****   * @param  FlashEmpty Specifies the empty check value
 481:Drivers/STM32WLxx_HAL_Driver/Src/stm32wlxx_hal_flash_ex.c ****   *          This parameter can be one of the following values:
 482:Drivers/STM32WLxx_HAL_Driver/Src/stm32wlxx_hal_flash_ex.c ****   *            @arg @ref FLASH_PROG_NOT_EMPTY 1st location in Flash is programmed
 483:Drivers/STM32WLxx_HAL_Driver/Src/stm32wlxx_hal_flash_ex.c ****   *            @arg @ref FLASH_PROG_EMPTY 1st location in Flash is empty
 484:Drivers/STM32WLxx_HAL_Driver/Src/stm32wlxx_hal_flash_ex.c ****   * @retval None
 485:Drivers/STM32WLxx_HAL_Driver/Src/stm32wlxx_hal_flash_ex.c ****   */
 486:Drivers/STM32WLxx_HAL_Driver/Src/stm32wlxx_hal_flash_ex.c **** void HAL_FLASHEx_ForceFlashEmpty(uint32_t FlashEmpty)
 487:Drivers/STM32WLxx_HAL_Driver/Src/stm32wlxx_hal_flash_ex.c **** {
 488:Drivers/STM32WLxx_HAL_Driver/Src/stm32wlxx_hal_flash_ex.c ****   assert_param(IS_FLASH_EMPTY_CHECK(FlashEmpty));
 489:Drivers/STM32WLxx_HAL_Driver/Src/stm32wlxx_hal_flash_ex.c **** 
ARM GAS  /tmp/cclRXqpz.s 			page 10


 490:Drivers/STM32WLxx_HAL_Driver/Src/stm32wlxx_hal_flash_ex.c ****   MODIFY_REG(FLASH->ACR, FLASH_ACR_EMPTY, FlashEmpty);
 491:Drivers/STM32WLxx_HAL_Driver/Src/stm32wlxx_hal_flash_ex.c **** }
 492:Drivers/STM32WLxx_HAL_Driver/Src/stm32wlxx_hal_flash_ex.c **** 
 493:Drivers/STM32WLxx_HAL_Driver/Src/stm32wlxx_hal_flash_ex.c **** /**
 494:Drivers/STM32WLxx_HAL_Driver/Src/stm32wlxx_hal_flash_ex.c ****   * @brief  Suspend new program or erase operation request.
 495:Drivers/STM32WLxx_HAL_Driver/Src/stm32wlxx_hal_flash_ex.c ****   * @note   Any new Flash program and erase operation on both CPU side will be suspended
 496:Drivers/STM32WLxx_HAL_Driver/Src/stm32wlxx_hal_flash_ex.c ****   *         until this bit and the same bit in Flash CPU2 access control register (FLASH_C2ACR) are
 497:Drivers/STM32WLxx_HAL_Driver/Src/stm32wlxx_hal_flash_ex.c ****   *         cleared. The PESD bit in both the Flash status register (FLASH_SR) and Flash
 498:Drivers/STM32WLxx_HAL_Driver/Src/stm32wlxx_hal_flash_ex.c ****   *         CPU2 status register (FLASH_C2SR) register will be set when at least one PES
 499:Drivers/STM32WLxx_HAL_Driver/Src/stm32wlxx_hal_flash_ex.c ****   *         bit in FLASH_ACR or FLASH_C2ACR is set.
 500:Drivers/STM32WLxx_HAL_Driver/Src/stm32wlxx_hal_flash_ex.c ****   * @retval None
 501:Drivers/STM32WLxx_HAL_Driver/Src/stm32wlxx_hal_flash_ex.c ****   */
 502:Drivers/STM32WLxx_HAL_Driver/Src/stm32wlxx_hal_flash_ex.c **** void HAL_FLASHEx_SuspendOperation(void)
 503:Drivers/STM32WLxx_HAL_Driver/Src/stm32wlxx_hal_flash_ex.c **** {
 504:Drivers/STM32WLxx_HAL_Driver/Src/stm32wlxx_hal_flash_ex.c **** #if defined(CORE_CM0PLUS)
 505:Drivers/STM32WLxx_HAL_Driver/Src/stm32wlxx_hal_flash_ex.c ****   SET_BIT(FLASH->C2ACR, FLASH_C2ACR_PES);
 506:Drivers/STM32WLxx_HAL_Driver/Src/stm32wlxx_hal_flash_ex.c **** #else
 507:Drivers/STM32WLxx_HAL_Driver/Src/stm32wlxx_hal_flash_ex.c ****   SET_BIT(FLASH->ACR, FLASH_ACR_PES);
 508:Drivers/STM32WLxx_HAL_Driver/Src/stm32wlxx_hal_flash_ex.c **** #endif
 509:Drivers/STM32WLxx_HAL_Driver/Src/stm32wlxx_hal_flash_ex.c **** }
 510:Drivers/STM32WLxx_HAL_Driver/Src/stm32wlxx_hal_flash_ex.c **** 
 511:Drivers/STM32WLxx_HAL_Driver/Src/stm32wlxx_hal_flash_ex.c **** /**
 512:Drivers/STM32WLxx_HAL_Driver/Src/stm32wlxx_hal_flash_ex.c ****   * @brief  Allow new program or erase operation request.
 513:Drivers/STM32WLxx_HAL_Driver/Src/stm32wlxx_hal_flash_ex.c ****   * @note   Any new Flash program and erase operation on both CPU side will be allowed
 514:Drivers/STM32WLxx_HAL_Driver/Src/stm32wlxx_hal_flash_ex.c ****   *         until one of this bit or the same bit in Flash CPU2 access control register (FLASH_C2AC
 515:Drivers/STM32WLxx_HAL_Driver/Src/stm32wlxx_hal_flash_ex.c ****   *         set. The PESD bit in both the Flash status register (FLASH_SR) and Flash
 516:Drivers/STM32WLxx_HAL_Driver/Src/stm32wlxx_hal_flash_ex.c ****   *         CPU2 status register (FLASH_C2SR) register will be clear when both PES
 517:Drivers/STM32WLxx_HAL_Driver/Src/stm32wlxx_hal_flash_ex.c ****   *         bit in FLASH_ACR or FLASH_C2ACR is cleared.
 518:Drivers/STM32WLxx_HAL_Driver/Src/stm32wlxx_hal_flash_ex.c ****   * @retval None
 519:Drivers/STM32WLxx_HAL_Driver/Src/stm32wlxx_hal_flash_ex.c ****   */
 520:Drivers/STM32WLxx_HAL_Driver/Src/stm32wlxx_hal_flash_ex.c **** void HAL_FLASHEx_AllowOperation(void)
 521:Drivers/STM32WLxx_HAL_Driver/Src/stm32wlxx_hal_flash_ex.c **** {
 522:Drivers/STM32WLxx_HAL_Driver/Src/stm32wlxx_hal_flash_ex.c **** #if defined(CORE_CM0PLUS)
 523:Drivers/STM32WLxx_HAL_Driver/Src/stm32wlxx_hal_flash_ex.c ****   CLEAR_BIT(FLASH->C2ACR, FLASH_C2ACR_PES);
 524:Drivers/STM32WLxx_HAL_Driver/Src/stm32wlxx_hal_flash_ex.c **** #else
 525:Drivers/STM32WLxx_HAL_Driver/Src/stm32wlxx_hal_flash_ex.c ****   CLEAR_BIT(FLASH->ACR, FLASH_ACR_PES);
 526:Drivers/STM32WLxx_HAL_Driver/Src/stm32wlxx_hal_flash_ex.c **** #endif
 527:Drivers/STM32WLxx_HAL_Driver/Src/stm32wlxx_hal_flash_ex.c **** }
 528:Drivers/STM32WLxx_HAL_Driver/Src/stm32wlxx_hal_flash_ex.c **** 
 529:Drivers/STM32WLxx_HAL_Driver/Src/stm32wlxx_hal_flash_ex.c **** /**
 530:Drivers/STM32WLxx_HAL_Driver/Src/stm32wlxx_hal_flash_ex.c ****   * @brief  Check if new program or erase operation request from CPU1 or CPU2 is suspended
 531:Drivers/STM32WLxx_HAL_Driver/Src/stm32wlxx_hal_flash_ex.c ****   * @note   Any new Flash program and erase operation on both CPU side will be allowed
 532:Drivers/STM32WLxx_HAL_Driver/Src/stm32wlxx_hal_flash_ex.c ****   *         until one of this bit or the same bit in Flash CPU2 access control register (FLASH_C2AC
 533:Drivers/STM32WLxx_HAL_Driver/Src/stm32wlxx_hal_flash_ex.c ****   *         set. The PESD bit in both the Flash status register (FLASH_SR) and Flash
 534:Drivers/STM32WLxx_HAL_Driver/Src/stm32wlxx_hal_flash_ex.c ****   *         CPU2 status register (FLASH_C2SR) register will be cleared when both PES
 535:Drivers/STM32WLxx_HAL_Driver/Src/stm32wlxx_hal_flash_ex.c ****   *         bit in FLASH_ACR and FLASH_C2ACR are cleared.
 536:Drivers/STM32WLxx_HAL_Driver/Src/stm32wlxx_hal_flash_ex.c ****   * @retval Status
 537:Drivers/STM32WLxx_HAL_Driver/Src/stm32wlxx_hal_flash_ex.c ****   *          - 0 : No suspended flash operation
 538:Drivers/STM32WLxx_HAL_Driver/Src/stm32wlxx_hal_flash_ex.c ****   *          - 1 : Flash operation is suspended
 539:Drivers/STM32WLxx_HAL_Driver/Src/stm32wlxx_hal_flash_ex.c ****   */
 540:Drivers/STM32WLxx_HAL_Driver/Src/stm32wlxx_hal_flash_ex.c **** uint32_t HAL_FLASHEx_IsOperationSuspended(void)
 541:Drivers/STM32WLxx_HAL_Driver/Src/stm32wlxx_hal_flash_ex.c **** {
 542:Drivers/STM32WLxx_HAL_Driver/Src/stm32wlxx_hal_flash_ex.c ****   uint32_t status = 0U;
 543:Drivers/STM32WLxx_HAL_Driver/Src/stm32wlxx_hal_flash_ex.c **** 
 544:Drivers/STM32WLxx_HAL_Driver/Src/stm32wlxx_hal_flash_ex.c **** #if defined(CORE_CM0PLUS)
 545:Drivers/STM32WLxx_HAL_Driver/Src/stm32wlxx_hal_flash_ex.c ****   if (READ_BIT(FLASH->C2SR, FLASH_C2SR_PESD) == FLASH_C2SR_PESD)
 546:Drivers/STM32WLxx_HAL_Driver/Src/stm32wlxx_hal_flash_ex.c **** #else
ARM GAS  /tmp/cclRXqpz.s 			page 11


 547:Drivers/STM32WLxx_HAL_Driver/Src/stm32wlxx_hal_flash_ex.c ****   if (READ_BIT(FLASH->SR, FLASH_SR_PESD) == FLASH_SR_PESD)
 548:Drivers/STM32WLxx_HAL_Driver/Src/stm32wlxx_hal_flash_ex.c **** #endif
 549:Drivers/STM32WLxx_HAL_Driver/Src/stm32wlxx_hal_flash_ex.c ****   {
 550:Drivers/STM32WLxx_HAL_Driver/Src/stm32wlxx_hal_flash_ex.c ****     status = 1U;
 551:Drivers/STM32WLxx_HAL_Driver/Src/stm32wlxx_hal_flash_ex.c ****   }
 552:Drivers/STM32WLxx_HAL_Driver/Src/stm32wlxx_hal_flash_ex.c **** 
 553:Drivers/STM32WLxx_HAL_Driver/Src/stm32wlxx_hal_flash_ex.c ****   return status;
 554:Drivers/STM32WLxx_HAL_Driver/Src/stm32wlxx_hal_flash_ex.c **** }
 555:Drivers/STM32WLxx_HAL_Driver/Src/stm32wlxx_hal_flash_ex.c **** 
 556:Drivers/STM32WLxx_HAL_Driver/Src/stm32wlxx_hal_flash_ex.c **** #if defined(DUAL_CORE)
 557:Drivers/STM32WLxx_HAL_Driver/Src/stm32wlxx_hal_flash_ex.c **** /**
 558:Drivers/STM32WLxx_HAL_Driver/Src/stm32wlxx_hal_flash_ex.c ****   * @brief  Disable CPU2 debug access.
 559:Drivers/STM32WLxx_HAL_Driver/Src/stm32wlxx_hal_flash_ex.c ****   * @note   This feature can only be accessed by a secure privileged CPU2
 560:Drivers/STM32WLxx_HAL_Driver/Src/stm32wlxx_hal_flash_ex.c ****   *         When FLASH_SFR_HDPAD = 0 (Secure Hide Protection area enabled) the CPU2 software debug 
 561:Drivers/STM32WLxx_HAL_Driver/Src/stm32wlxx_hal_flash_ex.c ****   *         When FLASH_SFR_HDPAD = 1 (Secure Hide Protection area disabled) the CPU2 software debug
 562:Drivers/STM32WLxx_HAL_Driver/Src/stm32wlxx_hal_flash_ex.c ****   * @retval None
 563:Drivers/STM32WLxx_HAL_Driver/Src/stm32wlxx_hal_flash_ex.c ****   */
 564:Drivers/STM32WLxx_HAL_Driver/Src/stm32wlxx_hal_flash_ex.c **** void HAL_FLASHEx_DisableC2Debug(void)
 565:Drivers/STM32WLxx_HAL_Driver/Src/stm32wlxx_hal_flash_ex.c **** {
 566:Drivers/STM32WLxx_HAL_Driver/Src/stm32wlxx_hal_flash_ex.c ****   CLEAR_BIT(FLASH->ACR2, FLASH_ACR2_C2SWDBGEN);
 567:Drivers/STM32WLxx_HAL_Driver/Src/stm32wlxx_hal_flash_ex.c **** }
 568:Drivers/STM32WLxx_HAL_Driver/Src/stm32wlxx_hal_flash_ex.c **** 
 569:Drivers/STM32WLxx_HAL_Driver/Src/stm32wlxx_hal_flash_ex.c **** /**
 570:Drivers/STM32WLxx_HAL_Driver/Src/stm32wlxx_hal_flash_ex.c ****   * @brief  Enable CPU2 debug access (When also enabled in FLASH_SFR_DDS).
 571:Drivers/STM32WLxx_HAL_Driver/Src/stm32wlxx_hal_flash_ex.c ****   * @note   This feature can only be accessed by a secure privileged CPU2
 572:Drivers/STM32WLxx_HAL_Driver/Src/stm32wlxx_hal_flash_ex.c ****   *         When FLASH_SFR_HDPAD = 0 (Secure Hide Protection area enabled) the CPU2 software debug 
 573:Drivers/STM32WLxx_HAL_Driver/Src/stm32wlxx_hal_flash_ex.c ****   *         When FLASH_SFR_HDPAD = 1 (Secure Hide Protection area disabled) the CPU2 software debug
 574:Drivers/STM32WLxx_HAL_Driver/Src/stm32wlxx_hal_flash_ex.c ****   * @retval None
 575:Drivers/STM32WLxx_HAL_Driver/Src/stm32wlxx_hal_flash_ex.c ****   */
 576:Drivers/STM32WLxx_HAL_Driver/Src/stm32wlxx_hal_flash_ex.c **** void HAL_FLASHEx_EnableC2Debug(void)
 577:Drivers/STM32WLxx_HAL_Driver/Src/stm32wlxx_hal_flash_ex.c **** {
 578:Drivers/STM32WLxx_HAL_Driver/Src/stm32wlxx_hal_flash_ex.c ****   SET_BIT(FLASH->ACR2, FLASH_ACR2_C2SWDBGEN);
 579:Drivers/STM32WLxx_HAL_Driver/Src/stm32wlxx_hal_flash_ex.c **** }
 580:Drivers/STM32WLxx_HAL_Driver/Src/stm32wlxx_hal_flash_ex.c **** 
 581:Drivers/STM32WLxx_HAL_Driver/Src/stm32wlxx_hal_flash_ex.c **** /**
 582:Drivers/STM32WLxx_HAL_Driver/Src/stm32wlxx_hal_flash_ex.c ****   * @brief  Enable Secure Hide Protection Area access.
 583:Drivers/STM32WLxx_HAL_Driver/Src/stm32wlxx_hal_flash_ex.c ****   * @note   This feature can only be accessed by a secure privileged CPU2
 584:Drivers/STM32WLxx_HAL_Driver/Src/stm32wlxx_hal_flash_ex.c ****   *         This bit is set by software and will only be reset by hardware on a system reset.
 585:Drivers/STM32WLxx_HAL_Driver/Src/stm32wlxx_hal_flash_ex.c ****   * @retval None
 586:Drivers/STM32WLxx_HAL_Driver/Src/stm32wlxx_hal_flash_ex.c ****   */
 587:Drivers/STM32WLxx_HAL_Driver/Src/stm32wlxx_hal_flash_ex.c **** void HAL_FLASHEx_EnableSecHideProtection(void)
 588:Drivers/STM32WLxx_HAL_Driver/Src/stm32wlxx_hal_flash_ex.c **** {
 589:Drivers/STM32WLxx_HAL_Driver/Src/stm32wlxx_hal_flash_ex.c ****   SET_BIT(FLASH->ACR2, FLASH_ACR2_HDPADIS);
 590:Drivers/STM32WLxx_HAL_Driver/Src/stm32wlxx_hal_flash_ex.c **** }
 591:Drivers/STM32WLxx_HAL_Driver/Src/stm32wlxx_hal_flash_ex.c **** 
 592:Drivers/STM32WLxx_HAL_Driver/Src/stm32wlxx_hal_flash_ex.c **** /**
 593:Drivers/STM32WLxx_HAL_Driver/Src/stm32wlxx_hal_flash_ex.c ****   * @brief  Configuration of the privilege attribute.
 594:Drivers/STM32WLxx_HAL_Driver/Src/stm32wlxx_hal_flash_ex.c ****   * @note   This feature can only be accessed by a secure privileged CPU2
 595:Drivers/STM32WLxx_HAL_Driver/Src/stm32wlxx_hal_flash_ex.c ****   * @param  PrivMode indicate privilege mode configuration
 596:Drivers/STM32WLxx_HAL_Driver/Src/stm32wlxx_hal_flash_ex.c ****   *          This parameter can be one of the following values:
 597:Drivers/STM32WLxx_HAL_Driver/Src/stm32wlxx_hal_flash_ex.c ****   *            @arg @ref FLASH_PRIV_GRANTED Access to Flash registers is granted
 598:Drivers/STM32WLxx_HAL_Driver/Src/stm32wlxx_hal_flash_ex.c ****   *            @arg @ref FLASH_PRIV_DENIED Access to Flash registers is denied to non-privilege acc
 599:Drivers/STM32WLxx_HAL_Driver/Src/stm32wlxx_hal_flash_ex.c ****   * @retval None
 600:Drivers/STM32WLxx_HAL_Driver/Src/stm32wlxx_hal_flash_ex.c ****   */
 601:Drivers/STM32WLxx_HAL_Driver/Src/stm32wlxx_hal_flash_ex.c **** void HAL_FLASHEx_ConfigPrivMode(uint32_t PrivMode)
 602:Drivers/STM32WLxx_HAL_Driver/Src/stm32wlxx_hal_flash_ex.c **** {
 603:Drivers/STM32WLxx_HAL_Driver/Src/stm32wlxx_hal_flash_ex.c ****   /* Check the parameters */
ARM GAS  /tmp/cclRXqpz.s 			page 12


 604:Drivers/STM32WLxx_HAL_Driver/Src/stm32wlxx_hal_flash_ex.c ****   assert_param(IS_FLASH_CFGPRIVMODE(PrivMode));
 605:Drivers/STM32WLxx_HAL_Driver/Src/stm32wlxx_hal_flash_ex.c **** 
 606:Drivers/STM32WLxx_HAL_Driver/Src/stm32wlxx_hal_flash_ex.c ****   MODIFY_REG(FLASH->ACR2, FLASH_ACR2_PRIVMODE, PrivMode);
 607:Drivers/STM32WLxx_HAL_Driver/Src/stm32wlxx_hal_flash_ex.c **** }
 608:Drivers/STM32WLxx_HAL_Driver/Src/stm32wlxx_hal_flash_ex.c **** 
 609:Drivers/STM32WLxx_HAL_Driver/Src/stm32wlxx_hal_flash_ex.c **** /**
 610:Drivers/STM32WLxx_HAL_Driver/Src/stm32wlxx_hal_flash_ex.c ****   * @brief  Return the value of the privilege attribute.
 611:Drivers/STM32WLxx_HAL_Driver/Src/stm32wlxx_hal_flash_ex.c ****   * @note   This feature can only be accessed by a secure privileged CPU2
 612:Drivers/STM32WLxx_HAL_Driver/Src/stm32wlxx_hal_flash_ex.c ****   * @retval It indicates privilege mode configuration.
 613:Drivers/STM32WLxx_HAL_Driver/Src/stm32wlxx_hal_flash_ex.c ****   *          This return value can be one of the following values:
 614:Drivers/STM32WLxx_HAL_Driver/Src/stm32wlxx_hal_flash_ex.c ****   *            @arg @ref FLASH_PRIV_GRANTED Access to Flash registers is granted
 615:Drivers/STM32WLxx_HAL_Driver/Src/stm32wlxx_hal_flash_ex.c ****   *            @arg @ref FLASH_PRIV_DENIED Access to Flash registers is denied to non-privilege acc
 616:Drivers/STM32WLxx_HAL_Driver/Src/stm32wlxx_hal_flash_ex.c ****   */
 617:Drivers/STM32WLxx_HAL_Driver/Src/stm32wlxx_hal_flash_ex.c **** uint32_t HAL_FLASHEx_GetPrivMode(void)
 618:Drivers/STM32WLxx_HAL_Driver/Src/stm32wlxx_hal_flash_ex.c **** {
 619:Drivers/STM32WLxx_HAL_Driver/Src/stm32wlxx_hal_flash_ex.c ****   return (FLASH->ACR2 & FLASH_ACR2_PRIVMODE);
 620:Drivers/STM32WLxx_HAL_Driver/Src/stm32wlxx_hal_flash_ex.c **** }
 621:Drivers/STM32WLxx_HAL_Driver/Src/stm32wlxx_hal_flash_ex.c **** #endif /* DUAL_CORE */
 622:Drivers/STM32WLxx_HAL_Driver/Src/stm32wlxx_hal_flash_ex.c **** 
 623:Drivers/STM32WLxx_HAL_Driver/Src/stm32wlxx_hal_flash_ex.c **** /**
 624:Drivers/STM32WLxx_HAL_Driver/Src/stm32wlxx_hal_flash_ex.c ****   * @}
 625:Drivers/STM32WLxx_HAL_Driver/Src/stm32wlxx_hal_flash_ex.c ****   */
 626:Drivers/STM32WLxx_HAL_Driver/Src/stm32wlxx_hal_flash_ex.c **** 
 627:Drivers/STM32WLxx_HAL_Driver/Src/stm32wlxx_hal_flash_ex.c **** /**
 628:Drivers/STM32WLxx_HAL_Driver/Src/stm32wlxx_hal_flash_ex.c ****   * @}
 629:Drivers/STM32WLxx_HAL_Driver/Src/stm32wlxx_hal_flash_ex.c ****   */
 630:Drivers/STM32WLxx_HAL_Driver/Src/stm32wlxx_hal_flash_ex.c **** 
 631:Drivers/STM32WLxx_HAL_Driver/Src/stm32wlxx_hal_flash_ex.c **** /* Private functions ---------------------------------------------------------*/
 632:Drivers/STM32WLxx_HAL_Driver/Src/stm32wlxx_hal_flash_ex.c **** /** @addtogroup FLASHEx_Private_Functions
 633:Drivers/STM32WLxx_HAL_Driver/Src/stm32wlxx_hal_flash_ex.c ****   * @{
 634:Drivers/STM32WLxx_HAL_Driver/Src/stm32wlxx_hal_flash_ex.c ****   */
 635:Drivers/STM32WLxx_HAL_Driver/Src/stm32wlxx_hal_flash_ex.c **** 
 636:Drivers/STM32WLxx_HAL_Driver/Src/stm32wlxx_hal_flash_ex.c **** /**
 637:Drivers/STM32WLxx_HAL_Driver/Src/stm32wlxx_hal_flash_ex.c ****   * @brief  Mass erase of FLASH memory.
 638:Drivers/STM32WLxx_HAL_Driver/Src/stm32wlxx_hal_flash_ex.c ****   * @retval None
 639:Drivers/STM32WLxx_HAL_Driver/Src/stm32wlxx_hal_flash_ex.c ****   */
 640:Drivers/STM32WLxx_HAL_Driver/Src/stm32wlxx_hal_flash_ex.c **** static void FLASH_MassErase(void)
 641:Drivers/STM32WLxx_HAL_Driver/Src/stm32wlxx_hal_flash_ex.c **** {
  26              		.loc 1 641 1 view -0
  27              		.cfi_startproc
  28              		@ args = 0, pretend = 0, frame = 0
  29              		@ frame_needed = 0, uses_anonymous_args = 0
  30              		@ link register save eliminated.
 642:Drivers/STM32WLxx_HAL_Driver/Src/stm32wlxx_hal_flash_ex.c ****   /* Set the Mass Erase Bit and start bit */
 643:Drivers/STM32WLxx_HAL_Driver/Src/stm32wlxx_hal_flash_ex.c **** #ifdef CORE_CM0PLUS
 644:Drivers/STM32WLxx_HAL_Driver/Src/stm32wlxx_hal_flash_ex.c ****   SET_BIT(FLASH->C2CR, (FLASH_CR_MER | FLASH_CR_STRT));
 645:Drivers/STM32WLxx_HAL_Driver/Src/stm32wlxx_hal_flash_ex.c **** #else
 646:Drivers/STM32WLxx_HAL_Driver/Src/stm32wlxx_hal_flash_ex.c ****   SET_BIT(FLASH->CR, (FLASH_CR_MER | FLASH_CR_STRT));
  31              		.loc 1 646 3 view .LVU1
  32 0000 034A     		ldr	r2, .L2
  33 0002 5369     		ldr	r3, [r2, #20]
  34 0004 43F48033 		orr	r3, r3, #65536
  35 0008 43F00403 		orr	r3, r3, #4
  36 000c 5361     		str	r3, [r2, #20]
 647:Drivers/STM32WLxx_HAL_Driver/Src/stm32wlxx_hal_flash_ex.c **** #endif
 648:Drivers/STM32WLxx_HAL_Driver/Src/stm32wlxx_hal_flash_ex.c **** }
  37              		.loc 1 648 1 is_stmt 0 view .LVU2
ARM GAS  /tmp/cclRXqpz.s 			page 13


  38 000e 7047     		bx	lr
  39              	.L3:
  40              		.align	2
  41              	.L2:
  42 0010 00400058 		.word	1476411392
  43              		.cfi_endproc
  44              	.LFE855:
  46              		.section	.text.FLASH_FlushCaches,"ax",%progbits
  47              		.align	1
  48              		.syntax unified
  49              		.thumb
  50              		.thumb_func
  52              	FLASH_FlushCaches:
  53              	.LFB857:
 649:Drivers/STM32WLxx_HAL_Driver/Src/stm32wlxx_hal_flash_ex.c **** 
 650:Drivers/STM32WLxx_HAL_Driver/Src/stm32wlxx_hal_flash_ex.c **** /**
 651:Drivers/STM32WLxx_HAL_Driver/Src/stm32wlxx_hal_flash_ex.c ****   * @brief  Erase the specified FLASH memory page.
 652:Drivers/STM32WLxx_HAL_Driver/Src/stm32wlxx_hal_flash_ex.c ****   * @param  Page FLASH page to erase
 653:Drivers/STM32WLxx_HAL_Driver/Src/stm32wlxx_hal_flash_ex.c ****   *         This parameter must be a value between 0 and (max number of pages in Flash - 1)
 654:Drivers/STM32WLxx_HAL_Driver/Src/stm32wlxx_hal_flash_ex.c ****   * @retval None
 655:Drivers/STM32WLxx_HAL_Driver/Src/stm32wlxx_hal_flash_ex.c ****   */
 656:Drivers/STM32WLxx_HAL_Driver/Src/stm32wlxx_hal_flash_ex.c **** void FLASH_PageErase(uint32_t Page)
 657:Drivers/STM32WLxx_HAL_Driver/Src/stm32wlxx_hal_flash_ex.c **** {
 658:Drivers/STM32WLxx_HAL_Driver/Src/stm32wlxx_hal_flash_ex.c ****   /* Check the parameters */
 659:Drivers/STM32WLxx_HAL_Driver/Src/stm32wlxx_hal_flash_ex.c ****   assert_param(IS_FLASH_PAGE(Page));
 660:Drivers/STM32WLxx_HAL_Driver/Src/stm32wlxx_hal_flash_ex.c **** 
 661:Drivers/STM32WLxx_HAL_Driver/Src/stm32wlxx_hal_flash_ex.c ****   /* Proceed to erase the page */
 662:Drivers/STM32WLxx_HAL_Driver/Src/stm32wlxx_hal_flash_ex.c **** #ifdef CORE_CM0PLUS
 663:Drivers/STM32WLxx_HAL_Driver/Src/stm32wlxx_hal_flash_ex.c ****   MODIFY_REG(FLASH->C2CR, FLASH_CR_PNB, ((Page << FLASH_CR_PNB_Pos) | FLASH_CR_PER | FLASH_CR_STRT)
 664:Drivers/STM32WLxx_HAL_Driver/Src/stm32wlxx_hal_flash_ex.c **** #else
 665:Drivers/STM32WLxx_HAL_Driver/Src/stm32wlxx_hal_flash_ex.c ****   MODIFY_REG(FLASH->CR, FLASH_CR_PNB, ((Page << FLASH_CR_PNB_Pos) | FLASH_CR_PER | FLASH_CR_STRT));
 666:Drivers/STM32WLxx_HAL_Driver/Src/stm32wlxx_hal_flash_ex.c **** #endif
 667:Drivers/STM32WLxx_HAL_Driver/Src/stm32wlxx_hal_flash_ex.c **** }
 668:Drivers/STM32WLxx_HAL_Driver/Src/stm32wlxx_hal_flash_ex.c **** 
 669:Drivers/STM32WLxx_HAL_Driver/Src/stm32wlxx_hal_flash_ex.c **** /**
 670:Drivers/STM32WLxx_HAL_Driver/Src/stm32wlxx_hal_flash_ex.c ****   * @brief  Flush the instruction and data caches.
 671:Drivers/STM32WLxx_HAL_Driver/Src/stm32wlxx_hal_flash_ex.c ****   * @retval None
 672:Drivers/STM32WLxx_HAL_Driver/Src/stm32wlxx_hal_flash_ex.c ****   */
 673:Drivers/STM32WLxx_HAL_Driver/Src/stm32wlxx_hal_flash_ex.c **** void FLASH_FlushCaches(void)
 674:Drivers/STM32WLxx_HAL_Driver/Src/stm32wlxx_hal_flash_ex.c **** {
  54              		.loc 1 674 1 is_stmt 1 view -0
  55              		.cfi_startproc
  56              		@ args = 0, pretend = 0, frame = 0
  57              		@ frame_needed = 0, uses_anonymous_args = 0
  58              		@ link register save eliminated.
 675:Drivers/STM32WLxx_HAL_Driver/Src/stm32wlxx_hal_flash_ex.c ****   /* Flush instruction cache  */
 676:Drivers/STM32WLxx_HAL_Driver/Src/stm32wlxx_hal_flash_ex.c ****   if (READ_BIT(FLASH->ACR, FLASH_ACR_ICEN) == FLASH_ACR_ICEN)
  59              		.loc 1 676 3 view .LVU4
  60              		.loc 1 676 7 is_stmt 0 view .LVU5
  61 0000 164B     		ldr	r3, .L7
  62 0002 1B68     		ldr	r3, [r3]
  63              		.loc 1 676 6 view .LVU6
  64 0004 13F4007F 		tst	r3, #512
  65 0008 10D0     		beq	.L5
 677:Drivers/STM32WLxx_HAL_Driver/Src/stm32wlxx_hal_flash_ex.c ****   {
 678:Drivers/STM32WLxx_HAL_Driver/Src/stm32wlxx_hal_flash_ex.c ****     /* Disable instruction cache  */
 679:Drivers/STM32WLxx_HAL_Driver/Src/stm32wlxx_hal_flash_ex.c ****     __HAL_FLASH_INSTRUCTION_CACHE_DISABLE();
ARM GAS  /tmp/cclRXqpz.s 			page 14


  66              		.loc 1 679 5 is_stmt 1 view .LVU7
  67 000a 144B     		ldr	r3, .L7
  68 000c 1A68     		ldr	r2, [r3]
  69 000e 22F40072 		bic	r2, r2, #512
  70 0012 1A60     		str	r2, [r3]
 680:Drivers/STM32WLxx_HAL_Driver/Src/stm32wlxx_hal_flash_ex.c ****     /* Reset instruction cache */
 681:Drivers/STM32WLxx_HAL_Driver/Src/stm32wlxx_hal_flash_ex.c ****     __HAL_FLASH_INSTRUCTION_CACHE_RESET();
  71              		.loc 1 681 5 view .LVU8
  72              		.loc 1 681 5 view .LVU9
  73 0014 1A68     		ldr	r2, [r3]
  74 0016 42F40062 		orr	r2, r2, #2048
  75 001a 1A60     		str	r2, [r3]
  76              		.loc 1 681 5 view .LVU10
  77 001c 1A68     		ldr	r2, [r3]
  78 001e 22F40062 		bic	r2, r2, #2048
  79 0022 1A60     		str	r2, [r3]
  80              		.loc 1 681 5 view .LVU11
 682:Drivers/STM32WLxx_HAL_Driver/Src/stm32wlxx_hal_flash_ex.c ****     /* Enable instruction cache */
 683:Drivers/STM32WLxx_HAL_Driver/Src/stm32wlxx_hal_flash_ex.c ****     __HAL_FLASH_INSTRUCTION_CACHE_ENABLE();
  81              		.loc 1 683 5 view .LVU12
  82 0024 1A68     		ldr	r2, [r3]
  83 0026 42F40072 		orr	r2, r2, #512
  84 002a 1A60     		str	r2, [r3]
  85              	.L5:
 684:Drivers/STM32WLxx_HAL_Driver/Src/stm32wlxx_hal_flash_ex.c ****   }
 685:Drivers/STM32WLxx_HAL_Driver/Src/stm32wlxx_hal_flash_ex.c **** 
 686:Drivers/STM32WLxx_HAL_Driver/Src/stm32wlxx_hal_flash_ex.c **** #ifdef CORE_CM0PLUS
 687:Drivers/STM32WLxx_HAL_Driver/Src/stm32wlxx_hal_flash_ex.c **** #else
 688:Drivers/STM32WLxx_HAL_Driver/Src/stm32wlxx_hal_flash_ex.c ****   /* Flush data cache */
 689:Drivers/STM32WLxx_HAL_Driver/Src/stm32wlxx_hal_flash_ex.c ****   if (READ_BIT(FLASH->ACR, FLASH_ACR_DCEN) == FLASH_ACR_DCEN)
  86              		.loc 1 689 3 view .LVU13
  87              		.loc 1 689 7 is_stmt 0 view .LVU14
  88 002c 0B4B     		ldr	r3, .L7
  89 002e 1B68     		ldr	r3, [r3]
  90              		.loc 1 689 6 view .LVU15
  91 0030 13F4806F 		tst	r3, #1024
  92 0034 10D0     		beq	.L4
 690:Drivers/STM32WLxx_HAL_Driver/Src/stm32wlxx_hal_flash_ex.c ****   {
 691:Drivers/STM32WLxx_HAL_Driver/Src/stm32wlxx_hal_flash_ex.c ****     /* Disable data cache  */
 692:Drivers/STM32WLxx_HAL_Driver/Src/stm32wlxx_hal_flash_ex.c ****     __HAL_FLASH_DATA_CACHE_DISABLE();
  93              		.loc 1 692 5 is_stmt 1 view .LVU16
  94 0036 094B     		ldr	r3, .L7
  95 0038 1A68     		ldr	r2, [r3]
  96 003a 22F48062 		bic	r2, r2, #1024
  97 003e 1A60     		str	r2, [r3]
 693:Drivers/STM32WLxx_HAL_Driver/Src/stm32wlxx_hal_flash_ex.c ****     /* Reset data cache */
 694:Drivers/STM32WLxx_HAL_Driver/Src/stm32wlxx_hal_flash_ex.c ****     __HAL_FLASH_DATA_CACHE_RESET();
  98              		.loc 1 694 5 view .LVU17
  99              		.loc 1 694 5 view .LVU18
 100 0040 1A68     		ldr	r2, [r3]
 101 0042 42F48052 		orr	r2, r2, #4096
 102 0046 1A60     		str	r2, [r3]
 103              		.loc 1 694 5 view .LVU19
 104 0048 1A68     		ldr	r2, [r3]
 105 004a 22F48052 		bic	r2, r2, #4096
 106 004e 1A60     		str	r2, [r3]
 107              		.loc 1 694 5 view .LVU20
ARM GAS  /tmp/cclRXqpz.s 			page 15


 695:Drivers/STM32WLxx_HAL_Driver/Src/stm32wlxx_hal_flash_ex.c ****     /* Enable data cache */
 696:Drivers/STM32WLxx_HAL_Driver/Src/stm32wlxx_hal_flash_ex.c ****     __HAL_FLASH_DATA_CACHE_ENABLE();
 108              		.loc 1 696 5 view .LVU21
 109 0050 1A68     		ldr	r2, [r3]
 110 0052 42F48062 		orr	r2, r2, #1024
 111 0056 1A60     		str	r2, [r3]
 112              	.L4:
 697:Drivers/STM32WLxx_HAL_Driver/Src/stm32wlxx_hal_flash_ex.c ****   }
 698:Drivers/STM32WLxx_HAL_Driver/Src/stm32wlxx_hal_flash_ex.c **** #endif
 699:Drivers/STM32WLxx_HAL_Driver/Src/stm32wlxx_hal_flash_ex.c **** }
 113              		.loc 1 699 1 is_stmt 0 view .LVU22
 114 0058 7047     		bx	lr
 115              	.L8:
 116 005a 00BF     		.align	2
 117              	.L7:
 118 005c 00400058 		.word	1476411392
 119              		.cfi_endproc
 120              	.LFE857:
 122              		.section	.text.FLASH_AcknowledgePageErase,"ax",%progbits
 123              		.align	1
 124              		.syntax unified
 125              		.thumb
 126              		.thumb_func
 128              	FLASH_AcknowledgePageErase:
 129              	.LFB858:
 700:Drivers/STM32WLxx_HAL_Driver/Src/stm32wlxx_hal_flash_ex.c **** 
 701:Drivers/STM32WLxx_HAL_Driver/Src/stm32wlxx_hal_flash_ex.c **** /**
 702:Drivers/STM32WLxx_HAL_Driver/Src/stm32wlxx_hal_flash_ex.c ****   * @brief  Acknlowldge the page erase operation.
 703:Drivers/STM32WLxx_HAL_Driver/Src/stm32wlxx_hal_flash_ex.c ****   * @retval None
 704:Drivers/STM32WLxx_HAL_Driver/Src/stm32wlxx_hal_flash_ex.c ****   */
 705:Drivers/STM32WLxx_HAL_Driver/Src/stm32wlxx_hal_flash_ex.c **** static void FLASH_AcknowledgePageErase(void)
 706:Drivers/STM32WLxx_HAL_Driver/Src/stm32wlxx_hal_flash_ex.c **** {
 130              		.loc 1 706 1 is_stmt 1 view -0
 131              		.cfi_startproc
 132              		@ args = 0, pretend = 0, frame = 0
 133              		@ frame_needed = 0, uses_anonymous_args = 0
 134              		@ link register save eliminated.
 707:Drivers/STM32WLxx_HAL_Driver/Src/stm32wlxx_hal_flash_ex.c **** #ifdef CORE_CM0PLUS
 708:Drivers/STM32WLxx_HAL_Driver/Src/stm32wlxx_hal_flash_ex.c ****   CLEAR_BIT(FLASH->C2CR, (FLASH_CR_PER | FLASH_CR_PNB));
 709:Drivers/STM32WLxx_HAL_Driver/Src/stm32wlxx_hal_flash_ex.c **** #else
 710:Drivers/STM32WLxx_HAL_Driver/Src/stm32wlxx_hal_flash_ex.c ****   CLEAR_BIT(FLASH->CR, (FLASH_CR_PER | FLASH_CR_PNB));
 135              		.loc 1 710 3 view .LVU24
 136 0000 034A     		ldr	r2, .L10
 137 0002 5369     		ldr	r3, [r2, #20]
 138 0004 23F47E73 		bic	r3, r3, #1016
 139 0008 23F00203 		bic	r3, r3, #2
 140 000c 5361     		str	r3, [r2, #20]
 711:Drivers/STM32WLxx_HAL_Driver/Src/stm32wlxx_hal_flash_ex.c **** #endif
 712:Drivers/STM32WLxx_HAL_Driver/Src/stm32wlxx_hal_flash_ex.c **** }
 141              		.loc 1 712 1 is_stmt 0 view .LVU25
 142 000e 7047     		bx	lr
 143              	.L11:
 144              		.align	2
 145              	.L10:
 146 0010 00400058 		.word	1476411392
 147              		.cfi_endproc
 148              	.LFE858:
ARM GAS  /tmp/cclRXqpz.s 			page 16


 150              		.section	.text.FLASH_OB_WRPConfig,"ax",%progbits
 151              		.align	1
 152              		.syntax unified
 153              		.thumb
 154              		.thumb_func
 156              	FLASH_OB_WRPConfig:
 157              	.LVL0:
 158              	.LFB859:
 713:Drivers/STM32WLxx_HAL_Driver/Src/stm32wlxx_hal_flash_ex.c **** 
 714:Drivers/STM32WLxx_HAL_Driver/Src/stm32wlxx_hal_flash_ex.c **** /**
 715:Drivers/STM32WLxx_HAL_Driver/Src/stm32wlxx_hal_flash_ex.c ****   * @brief  Configure the write protection of the desired pages.
 716:Drivers/STM32WLxx_HAL_Driver/Src/stm32wlxx_hal_flash_ex.c ****   * @note   When WRP is active in a zone, it cannot be erased or programmed.
 717:Drivers/STM32WLxx_HAL_Driver/Src/stm32wlxx_hal_flash_ex.c ****   *         Consequently, a software mass erase cannot be performed if one zone
 718:Drivers/STM32WLxx_HAL_Driver/Src/stm32wlxx_hal_flash_ex.c ****   *         is write-protected.
 719:Drivers/STM32WLxx_HAL_Driver/Src/stm32wlxx_hal_flash_ex.c ****   * @note   When the memory read protection level is selected (RDP level = 1),
 720:Drivers/STM32WLxx_HAL_Driver/Src/stm32wlxx_hal_flash_ex.c ****   *         it is not possible to program or erase Flash memory if the CPU debug
 721:Drivers/STM32WLxx_HAL_Driver/Src/stm32wlxx_hal_flash_ex.c ****   *         features are connected (JTAG or single wire) or boot code is being
 722:Drivers/STM32WLxx_HAL_Driver/Src/stm32wlxx_hal_flash_ex.c ****   *         executed from RAM or System flash, even if WRP is not activated.
 723:Drivers/STM32WLxx_HAL_Driver/Src/stm32wlxx_hal_flash_ex.c ****   * @note   To configure the WRP options, the option lock bit OPTLOCK must be
 724:Drivers/STM32WLxx_HAL_Driver/Src/stm32wlxx_hal_flash_ex.c ****   *         cleared with the call of the @ref HAL_FLASH_OB_Unlock() function.
 725:Drivers/STM32WLxx_HAL_Driver/Src/stm32wlxx_hal_flash_ex.c ****   * @note   To validate the WRP options, the option bytes must be reloaded
 726:Drivers/STM32WLxx_HAL_Driver/Src/stm32wlxx_hal_flash_ex.c ****   *         through the call of the @ref HAL_FLASH_OB_Launch() function.
 727:Drivers/STM32WLxx_HAL_Driver/Src/stm32wlxx_hal_flash_ex.c ****   * @param  WRPArea Specifies the area to be configured.
 728:Drivers/STM32WLxx_HAL_Driver/Src/stm32wlxx_hal_flash_ex.c ****   *          This parameter can be one of the following values:
 729:Drivers/STM32WLxx_HAL_Driver/Src/stm32wlxx_hal_flash_ex.c ****   *            @arg @ref OB_WRPAREA_BANK1_AREAA Flash Bank 1 Area A
 730:Drivers/STM32WLxx_HAL_Driver/Src/stm32wlxx_hal_flash_ex.c ****   *            @arg @ref OB_WRPAREA_BANK1_AREAB Flash Bank 1 Area B
 731:Drivers/STM32WLxx_HAL_Driver/Src/stm32wlxx_hal_flash_ex.c ****   * @param  WRPStartOffset Specifies the start page of the write protected area
 732:Drivers/STM32WLxx_HAL_Driver/Src/stm32wlxx_hal_flash_ex.c ****   *          This parameter can be page number between 0 and (max number of pages in the Flash - 1)
 733:Drivers/STM32WLxx_HAL_Driver/Src/stm32wlxx_hal_flash_ex.c ****   * @param  WRDPEndOffset Specifies the end page of the write protected area
 734:Drivers/STM32WLxx_HAL_Driver/Src/stm32wlxx_hal_flash_ex.c ****   *          This parameter can be page number between WRPStartOffset and (max number of pages in t
 735:Drivers/STM32WLxx_HAL_Driver/Src/stm32wlxx_hal_flash_ex.c ****   * @retval None
 736:Drivers/STM32WLxx_HAL_Driver/Src/stm32wlxx_hal_flash_ex.c ****   */
 737:Drivers/STM32WLxx_HAL_Driver/Src/stm32wlxx_hal_flash_ex.c **** static void FLASH_OB_WRPConfig(uint32_t WRPArea, uint32_t WRPStartOffset, uint32_t WRDPEndOffset)
 738:Drivers/STM32WLxx_HAL_Driver/Src/stm32wlxx_hal_flash_ex.c **** {
 159              		.loc 1 738 1 is_stmt 1 view -0
 160              		.cfi_startproc
 161              		@ args = 0, pretend = 0, frame = 0
 162              		@ frame_needed = 0, uses_anonymous_args = 0
 163              		@ link register save eliminated.
 739:Drivers/STM32WLxx_HAL_Driver/Src/stm32wlxx_hal_flash_ex.c ****   /* Check the parameters */
 740:Drivers/STM32WLxx_HAL_Driver/Src/stm32wlxx_hal_flash_ex.c ****   assert_param(IS_OB_WRPAREA(WRPArea));
 164              		.loc 1 740 3 view .LVU27
 741:Drivers/STM32WLxx_HAL_Driver/Src/stm32wlxx_hal_flash_ex.c ****   assert_param(IS_FLASH_PAGE(WRPStartOffset));
 165              		.loc 1 741 3 view .LVU28
 742:Drivers/STM32WLxx_HAL_Driver/Src/stm32wlxx_hal_flash_ex.c ****   assert_param(IS_FLASH_PAGE(WRDPEndOffset));
 166              		.loc 1 742 3 view .LVU29
 743:Drivers/STM32WLxx_HAL_Driver/Src/stm32wlxx_hal_flash_ex.c **** 
 744:Drivers/STM32WLxx_HAL_Driver/Src/stm32wlxx_hal_flash_ex.c ****   /* Configure the write protected area */
 745:Drivers/STM32WLxx_HAL_Driver/Src/stm32wlxx_hal_flash_ex.c ****   if (WRPArea == OB_WRPAREA_BANK1_AREAA)
 167              		.loc 1 745 3 view .LVU30
 168              		.loc 1 745 6 is_stmt 0 view .LVU31
 169 0000 40B9     		cbnz	r0, .L13
 746:Drivers/STM32WLxx_HAL_Driver/Src/stm32wlxx_hal_flash_ex.c ****   {
 747:Drivers/STM32WLxx_HAL_Driver/Src/stm32wlxx_hal_flash_ex.c ****     MODIFY_REG(FLASH->WRP1AR, (FLASH_WRP1AR_WRP1A_STRT | FLASH_WRP1AR_WRP1A_END),
 170              		.loc 1 747 5 is_stmt 1 view .LVU32
 171 0002 0948     		ldr	r0, .L15
 172              	.LVL1:
ARM GAS  /tmp/cclRXqpz.s 			page 17


 173              		.loc 1 747 5 is_stmt 0 view .LVU33
 174 0004 C36A     		ldr	r3, [r0, #44]
 175 0006 23F07F13 		bic	r3, r3, #8323199
 176 000a 41EA0241 		orr	r1, r1, r2, lsl #16
 177              	.LVL2:
 178              		.loc 1 747 5 view .LVU34
 179 000e 0B43     		orrs	r3, r3, r1
 180 0010 C362     		str	r3, [r0, #44]
 181 0012 7047     		bx	lr
 182              	.LVL3:
 183              	.L13:
 748:Drivers/STM32WLxx_HAL_Driver/Src/stm32wlxx_hal_flash_ex.c ****                (WRPStartOffset | (WRDPEndOffset << FLASH_WRP1AR_WRP1A_END_Pos)));
 749:Drivers/STM32WLxx_HAL_Driver/Src/stm32wlxx_hal_flash_ex.c ****   }
 750:Drivers/STM32WLxx_HAL_Driver/Src/stm32wlxx_hal_flash_ex.c ****   else /* OB_WRPAREA_BANK1_AREAB */
 751:Drivers/STM32WLxx_HAL_Driver/Src/stm32wlxx_hal_flash_ex.c ****   {
 752:Drivers/STM32WLxx_HAL_Driver/Src/stm32wlxx_hal_flash_ex.c ****     MODIFY_REG(FLASH->WRP1BR, (FLASH_WRP1BR_WRP1B_STRT | FLASH_WRP1BR_WRP1B_END),
 184              		.loc 1 752 5 is_stmt 1 view .LVU35
 185 0014 0448     		ldr	r0, .L15
 186              	.LVL4:
 187              		.loc 1 752 5 is_stmt 0 view .LVU36
 188 0016 036B     		ldr	r3, [r0, #48]
 189 0018 23F07F13 		bic	r3, r3, #8323199
 190 001c 41EA0241 		orr	r1, r1, r2, lsl #16
 191              	.LVL5:
 192              		.loc 1 752 5 view .LVU37
 193 0020 0B43     		orrs	r3, r3, r1
 194 0022 0363     		str	r3, [r0, #48]
 753:Drivers/STM32WLxx_HAL_Driver/Src/stm32wlxx_hal_flash_ex.c ****                (WRPStartOffset | (WRDPEndOffset << FLASH_WRP1AR_WRP1A_END_Pos)));
 754:Drivers/STM32WLxx_HAL_Driver/Src/stm32wlxx_hal_flash_ex.c ****   }
 755:Drivers/STM32WLxx_HAL_Driver/Src/stm32wlxx_hal_flash_ex.c **** }
 195              		.loc 1 755 1 view .LVU38
 196 0024 7047     		bx	lr
 197              	.L16:
 198 0026 00BF     		.align	2
 199              	.L15:
 200 0028 00400058 		.word	1476411392
 201              		.cfi_endproc
 202              	.LFE859:
 204              		.section	.text.FLASH_OB_OptrConfig,"ax",%progbits
 205              		.align	1
 206              		.syntax unified
 207              		.thumb
 208              		.thumb_func
 210              	FLASH_OB_OptrConfig:
 211              	.LVL6:
 212              	.LFB860:
 756:Drivers/STM32WLxx_HAL_Driver/Src/stm32wlxx_hal_flash_ex.c **** 
 757:Drivers/STM32WLxx_HAL_Driver/Src/stm32wlxx_hal_flash_ex.c **** #if defined(DUAL_CORE) /* Comment duplicated for Document generation */
 758:Drivers/STM32WLxx_HAL_Driver/Src/stm32wlxx_hal_flash_ex.c **** /**
 759:Drivers/STM32WLxx_HAL_Driver/Src/stm32wlxx_hal_flash_ex.c ****   * @brief  Set user & RDP configuration
 760:Drivers/STM32WLxx_HAL_Driver/Src/stm32wlxx_hal_flash_ex.c ****   * @note   !!! Warning : When enabling OB_RDP level 2 it's no more possible
 761:Drivers/STM32WLxx_HAL_Driver/Src/stm32wlxx_hal_flash_ex.c ****   *         to go back to level 1 or 0 !!!
 762:Drivers/STM32WLxx_HAL_Driver/Src/stm32wlxx_hal_flash_ex.c ****   * @param  UserType The FLASH User Option Bytes to be modified
 763:Drivers/STM32WLxx_HAL_Driver/Src/stm32wlxx_hal_flash_ex.c ****   *         This parameter can be a combination of all the following values:
 764:Drivers/STM32WLxx_HAL_Driver/Src/stm32wlxx_hal_flash_ex.c ****   *         @arg @ref OB_USER_BOR_LEV or @ref OB_USER_nRST_STOP or @ref OB_USER_nRST_STDBY or
 765:Drivers/STM32WLxx_HAL_Driver/Src/stm32wlxx_hal_flash_ex.c ****   *         @arg @ref OB_USER_nRST_SHDW or @ref OB_USER_IWDG_SW or @ref OB_USER_IWDG_STOP or
 766:Drivers/STM32WLxx_HAL_Driver/Src/stm32wlxx_hal_flash_ex.c ****   *         @arg @ref OB_USER_IWDG_STDBY or @ref OB_USER_WWDG_SW or @ref OB_USER_nBOOT1 or
ARM GAS  /tmp/cclRXqpz.s 			page 18


 767:Drivers/STM32WLxx_HAL_Driver/Src/stm32wlxx_hal_flash_ex.c ****   *         @arg @ref OB_USER_SRAM2_PE or @ref OB_USER_SRAM_RST or @ref OB_USER_nSWBOOT0 or
 768:Drivers/STM32WLxx_HAL_Driver/Src/stm32wlxx_hal_flash_ex.c ****   *         @arg @ref OB_USER_nBOOT0 or @ref OB_USER_BOOT_LOCK or @ref OB_USER_BOOT_LOCK or @ref OB
 769:Drivers/STM32WLxx_HAL_Driver/Src/stm32wlxx_hal_flash_ex.c ****   * @param  UserConfig The FLASH User Option Bytes values.
 770:Drivers/STM32WLxx_HAL_Driver/Src/stm32wlxx_hal_flash_ex.c ****   *         This parameter can be a combination of all the following values:
 771:Drivers/STM32WLxx_HAL_Driver/Src/stm32wlxx_hal_flash_ex.c ****   *         @arg @ref OB_BOR_LEVEL_0 or @ref OB_BOR_LEVEL_1 or ... or @ref OB_BOR_LEVEL_4
 772:Drivers/STM32WLxx_HAL_Driver/Src/stm32wlxx_hal_flash_ex.c ****   *         @arg @ref OB_STOP_RST or @ref OB_STOP_NORST
 773:Drivers/STM32WLxx_HAL_Driver/Src/stm32wlxx_hal_flash_ex.c ****   *         @arg @ref OB_STANDBY_RST or @ref OB_STANDBY_NORST
 774:Drivers/STM32WLxx_HAL_Driver/Src/stm32wlxx_hal_flash_ex.c ****   *         @arg @ref OB_SHUTDOWN_RST or @ref OB_SHUTDOWN_NORST
 775:Drivers/STM32WLxx_HAL_Driver/Src/stm32wlxx_hal_flash_ex.c ****   *         @arg @ref OB_IWDG_SW or @ref OB_IWDG_HW
 776:Drivers/STM32WLxx_HAL_Driver/Src/stm32wlxx_hal_flash_ex.c ****   *         @arg @ref OB_IWDG_STOP_FREEZE or @ref OB_IWDG_STOP_RUN
 777:Drivers/STM32WLxx_HAL_Driver/Src/stm32wlxx_hal_flash_ex.c ****   *         @arg @ref OB_IWDG_STDBY_FREEZE or @ref OB_IWDG_STDBY_RUN
 778:Drivers/STM32WLxx_HAL_Driver/Src/stm32wlxx_hal_flash_ex.c ****   *         @arg @ref OB_WWDG_SW or @ref OB_WWDG_HW
 779:Drivers/STM32WLxx_HAL_Driver/Src/stm32wlxx_hal_flash_ex.c ****   *         @arg @ref OB_BOOT1_RESET or @ref OB_BOOT1_SET
 780:Drivers/STM32WLxx_HAL_Driver/Src/stm32wlxx_hal_flash_ex.c ****   *         @arg @ref OB_SRAM2_PARITY_ENABLE or @ref OB_SRAM2_PARITY_DISABLE
 781:Drivers/STM32WLxx_HAL_Driver/Src/stm32wlxx_hal_flash_ex.c ****   *         @arg @ref OB_SRAM_RST_ERASE or @ref OB_SRAM_RST_NOT_ERASE
 782:Drivers/STM32WLxx_HAL_Driver/Src/stm32wlxx_hal_flash_ex.c ****   *         @arg @ref OB_BOOT0_FROM_OB or @ref OB_BOOT0_FROM_PIN
 783:Drivers/STM32WLxx_HAL_Driver/Src/stm32wlxx_hal_flash_ex.c ****   *         @arg @ref OB_BOOT0_RESET or @ref OB_BOOT0_SET
 784:Drivers/STM32WLxx_HAL_Driver/Src/stm32wlxx_hal_flash_ex.c ****   *         @arg @ref OB_BOOT_LOCK_DISABLE or @ref OB_BOOT_LOCK_ENABLE
 785:Drivers/STM32WLxx_HAL_Driver/Src/stm32wlxx_hal_flash_ex.c ****   *         @arg @ref OB_C2BOOT_LOCK_DISABLE or @ref OB_C2BOOT_LOCK_ENABLE
 786:Drivers/STM32WLxx_HAL_Driver/Src/stm32wlxx_hal_flash_ex.c ****   * @param  RDPLevel: specifies the read protection level.
 787:Drivers/STM32WLxx_HAL_Driver/Src/stm32wlxx_hal_flash_ex.c ****   *         This parameter can be one of the following values:
 788:Drivers/STM32WLxx_HAL_Driver/Src/stm32wlxx_hal_flash_ex.c ****   *            @arg @ref OB_RDP_LEVEL_0 No protection
 789:Drivers/STM32WLxx_HAL_Driver/Src/stm32wlxx_hal_flash_ex.c ****   *            @arg @ref OB_RDP_LEVEL_1 Read protection of the memory
 790:Drivers/STM32WLxx_HAL_Driver/Src/stm32wlxx_hal_flash_ex.c ****   *            @arg @ref OB_RDP_LEVEL_2 Full chip protection
 791:Drivers/STM32WLxx_HAL_Driver/Src/stm32wlxx_hal_flash_ex.c ****   * @retval None
 792:Drivers/STM32WLxx_HAL_Driver/Src/stm32wlxx_hal_flash_ex.c ****   */
 793:Drivers/STM32WLxx_HAL_Driver/Src/stm32wlxx_hal_flash_ex.c **** #else
 794:Drivers/STM32WLxx_HAL_Driver/Src/stm32wlxx_hal_flash_ex.c **** /**
 795:Drivers/STM32WLxx_HAL_Driver/Src/stm32wlxx_hal_flash_ex.c ****   * @brief  Set user & RDP configuration
 796:Drivers/STM32WLxx_HAL_Driver/Src/stm32wlxx_hal_flash_ex.c ****   * @note   !!! Warning : When enabling OB_RDP level 2 it's no more possible
 797:Drivers/STM32WLxx_HAL_Driver/Src/stm32wlxx_hal_flash_ex.c ****   *         to go back to level 1 or 0 !!!
 798:Drivers/STM32WLxx_HAL_Driver/Src/stm32wlxx_hal_flash_ex.c ****   * @param  UserType The FLASH User Option Bytes to be modified
 799:Drivers/STM32WLxx_HAL_Driver/Src/stm32wlxx_hal_flash_ex.c ****   *         This parameter can be a combination of all the following values:
 800:Drivers/STM32WLxx_HAL_Driver/Src/stm32wlxx_hal_flash_ex.c ****   *         @arg @ref OB_USER_BOR_LEV or @ref OB_USER_nRST_STOP or @ref OB_USER_nRST_STDBY or
 801:Drivers/STM32WLxx_HAL_Driver/Src/stm32wlxx_hal_flash_ex.c ****   *         @arg @ref OB_USER_nRST_SHDW or @ref OB_USER_IWDG_SW or @ref OB_USER_IWDG_STOP or
 802:Drivers/STM32WLxx_HAL_Driver/Src/stm32wlxx_hal_flash_ex.c ****   *         @arg @ref OB_USER_IWDG_STDBY or @ref OB_USER_WWDG_SW or @ref OB_USER_nBOOT1 or
 803:Drivers/STM32WLxx_HAL_Driver/Src/stm32wlxx_hal_flash_ex.c ****   *         @arg @ref OB_USER_SRAM2_PE or @ref OB_USER_SRAM_RST or @ref OB_USER_nSWBOOT0 or
 804:Drivers/STM32WLxx_HAL_Driver/Src/stm32wlxx_hal_flash_ex.c ****   *         @arg @ref OB_USER_nBOOT0 or @ref OB_USER_BOOT_LOCK or @ref OB_USER_BOOT_LOCK or @ref OB
 805:Drivers/STM32WLxx_HAL_Driver/Src/stm32wlxx_hal_flash_ex.c ****   * @param  UserConfig The FLASH User Option Bytes values.
 806:Drivers/STM32WLxx_HAL_Driver/Src/stm32wlxx_hal_flash_ex.c ****   *         This parameter can be a combination of all the following values:
 807:Drivers/STM32WLxx_HAL_Driver/Src/stm32wlxx_hal_flash_ex.c ****   *         @arg @ref OB_BOR_LEVEL_0 or @ref OB_BOR_LEVEL_1 or ... or @ref OB_BOR_LEVEL_4
 808:Drivers/STM32WLxx_HAL_Driver/Src/stm32wlxx_hal_flash_ex.c ****   *         @arg @ref OB_STOP_RST or @ref OB_STOP_NORST
 809:Drivers/STM32WLxx_HAL_Driver/Src/stm32wlxx_hal_flash_ex.c ****   *         @arg @ref OB_STANDBY_RST or @ref OB_STANDBY_NORST
 810:Drivers/STM32WLxx_HAL_Driver/Src/stm32wlxx_hal_flash_ex.c ****   *         @arg @ref OB_SHUTDOWN_RST or @ref OB_SHUTDOWN_NORST
 811:Drivers/STM32WLxx_HAL_Driver/Src/stm32wlxx_hal_flash_ex.c ****   *         @arg @ref OB_IWDG_SW or @ref OB_IWDG_HW
 812:Drivers/STM32WLxx_HAL_Driver/Src/stm32wlxx_hal_flash_ex.c ****   *         @arg @ref OB_IWDG_STOP_FREEZE or @ref OB_IWDG_STOP_RUN
 813:Drivers/STM32WLxx_HAL_Driver/Src/stm32wlxx_hal_flash_ex.c ****   *         @arg @ref OB_IWDG_STDBY_FREEZE or @ref OB_IWDG_STDBY_RUN
 814:Drivers/STM32WLxx_HAL_Driver/Src/stm32wlxx_hal_flash_ex.c ****   *         @arg @ref OB_WWDG_SW or @ref OB_WWDG_HW
 815:Drivers/STM32WLxx_HAL_Driver/Src/stm32wlxx_hal_flash_ex.c ****   *         @arg @ref OB_BOOT1_RESET or @ref OB_BOOT1_SET
 816:Drivers/STM32WLxx_HAL_Driver/Src/stm32wlxx_hal_flash_ex.c ****   *         @arg @ref OB_SRAM2_PARITY_ENABLE or @ref OB_SRAM2_PARITY_DISABLE
 817:Drivers/STM32WLxx_HAL_Driver/Src/stm32wlxx_hal_flash_ex.c ****   *         @arg @ref OB_SRAM_RST_ERASE or @ref OB_SRAM_RST_NOT_ERASE
 818:Drivers/STM32WLxx_HAL_Driver/Src/stm32wlxx_hal_flash_ex.c ****   *         @arg @ref OB_BOOT0_FROM_OB or @ref OB_BOOT0_FROM_PIN
 819:Drivers/STM32WLxx_HAL_Driver/Src/stm32wlxx_hal_flash_ex.c ****   *         @arg @ref OB_BOOT0_RESET or @ref OB_BOOT0_SET
 820:Drivers/STM32WLxx_HAL_Driver/Src/stm32wlxx_hal_flash_ex.c ****   *         @arg @ref OB_BOOT_LOCK_DISABLE or @ref OB_BOOT_LOCK_ENABLE
 821:Drivers/STM32WLxx_HAL_Driver/Src/stm32wlxx_hal_flash_ex.c ****   * @param  RDPLevel: specifies the read protection level.
 822:Drivers/STM32WLxx_HAL_Driver/Src/stm32wlxx_hal_flash_ex.c ****   *         This parameter can be one of the following values:
 823:Drivers/STM32WLxx_HAL_Driver/Src/stm32wlxx_hal_flash_ex.c ****   *            @arg @ref OB_RDP_LEVEL_0 No protection
ARM GAS  /tmp/cclRXqpz.s 			page 19


 824:Drivers/STM32WLxx_HAL_Driver/Src/stm32wlxx_hal_flash_ex.c ****   *            @arg @ref OB_RDP_LEVEL_1 Read protection of the memory
 825:Drivers/STM32WLxx_HAL_Driver/Src/stm32wlxx_hal_flash_ex.c ****   *            @arg @ref OB_RDP_LEVEL_2 Full chip protection
 826:Drivers/STM32WLxx_HAL_Driver/Src/stm32wlxx_hal_flash_ex.c ****   * @retval None
 827:Drivers/STM32WLxx_HAL_Driver/Src/stm32wlxx_hal_flash_ex.c ****   */
 828:Drivers/STM32WLxx_HAL_Driver/Src/stm32wlxx_hal_flash_ex.c **** #endif
 829:Drivers/STM32WLxx_HAL_Driver/Src/stm32wlxx_hal_flash_ex.c **** static void FLASH_OB_OptrConfig(uint32_t UserType, uint32_t UserConfig, uint32_t RDPLevel)
 830:Drivers/STM32WLxx_HAL_Driver/Src/stm32wlxx_hal_flash_ex.c **** {
 213              		.loc 1 830 1 is_stmt 1 view -0
 214              		.cfi_startproc
 215              		@ args = 0, pretend = 0, frame = 0
 216              		@ frame_needed = 0, uses_anonymous_args = 0
 217              		@ link register save eliminated.
 218              		.loc 1 830 1 is_stmt 0 view .LVU40
 219 0000 10B4     		push	{r4}
 220              		.cfi_def_cfa_offset 4
 221              		.cfi_offset 4, -4
 831:Drivers/STM32WLxx_HAL_Driver/Src/stm32wlxx_hal_flash_ex.c ****   uint32_t optr;
 222              		.loc 1 831 3 is_stmt 1 view .LVU41
 832:Drivers/STM32WLxx_HAL_Driver/Src/stm32wlxx_hal_flash_ex.c **** 
 833:Drivers/STM32WLxx_HAL_Driver/Src/stm32wlxx_hal_flash_ex.c ****   /* Check the parameters */
 834:Drivers/STM32WLxx_HAL_Driver/Src/stm32wlxx_hal_flash_ex.c ****   assert_param(IS_OB_USER_TYPE(UserType));
 223              		.loc 1 834 3 view .LVU42
 835:Drivers/STM32WLxx_HAL_Driver/Src/stm32wlxx_hal_flash_ex.c ****   assert_param(IS_OB_USER_CONFIG(UserType, UserConfig));
 224              		.loc 1 835 3 view .LVU43
 836:Drivers/STM32WLxx_HAL_Driver/Src/stm32wlxx_hal_flash_ex.c ****   assert_param(IS_OB_RDP_LEVEL(RDPLevel));
 225              		.loc 1 836 3 view .LVU44
 837:Drivers/STM32WLxx_HAL_Driver/Src/stm32wlxx_hal_flash_ex.c **** 
 838:Drivers/STM32WLxx_HAL_Driver/Src/stm32wlxx_hal_flash_ex.c ****   /* Configure the RDP level in the option bytes register */
 839:Drivers/STM32WLxx_HAL_Driver/Src/stm32wlxx_hal_flash_ex.c ****   optr = FLASH->OPTR;
 226              		.loc 1 839 3 view .LVU45
 227              		.loc 1 839 8 is_stmt 0 view .LVU46
 228 0002 054C     		ldr	r4, .L19
 229 0004 236A     		ldr	r3, [r4, #32]
 230              	.LVL7:
 840:Drivers/STM32WLxx_HAL_Driver/Src/stm32wlxx_hal_flash_ex.c ****   optr &= ~(UserType | FLASH_OPTR_RDP);
 231              		.loc 1 840 3 is_stmt 1 view .LVU47
 232              		.loc 1 840 22 is_stmt 0 view .LVU48
 233 0006 40F0FF00 		orr	r0, r0, #255
 234              	.LVL8:
 235              		.loc 1 840 8 view .LVU49
 236 000a 23EA0003 		bic	r3, r3, r0
 237              	.LVL9:
 841:Drivers/STM32WLxx_HAL_Driver/Src/stm32wlxx_hal_flash_ex.c ****   FLASH->OPTR = (optr | UserConfig | RDPLevel);
 238              		.loc 1 841 3 is_stmt 1 view .LVU50
 239              		.loc 1 841 23 is_stmt 0 view .LVU51
 240 000e 0B43     		orrs	r3, r3, r1
 241              	.LVL10:
 242              		.loc 1 841 36 view .LVU52
 243 0010 1343     		orrs	r3, r3, r2
 244              		.loc 1 841 15 view .LVU53
 245 0012 2362     		str	r3, [r4, #32]
 842:Drivers/STM32WLxx_HAL_Driver/Src/stm32wlxx_hal_flash_ex.c **** }
 246              		.loc 1 842 1 view .LVU54
 247 0014 10BC     		pop	{r4}
 248              		.cfi_restore 4
 249              		.cfi_def_cfa_offset 0
 250 0016 7047     		bx	lr
ARM GAS  /tmp/cclRXqpz.s 			page 20


 251              	.L20:
 252              		.align	2
 253              	.L19:
 254 0018 00400058 		.word	1476411392
 255              		.cfi_endproc
 256              	.LFE860:
 258              		.section	.text.FLASH_OB_PCROP1AConfig,"ax",%progbits
 259              		.align	1
 260              		.syntax unified
 261              		.thumb
 262              		.thumb_func
 264              	FLASH_OB_PCROP1AConfig:
 265              	.LVL11:
 266              	.LFB861:
 843:Drivers/STM32WLxx_HAL_Driver/Src/stm32wlxx_hal_flash_ex.c **** 
 844:Drivers/STM32WLxx_HAL_Driver/Src/stm32wlxx_hal_flash_ex.c **** /**
 845:Drivers/STM32WLxx_HAL_Driver/Src/stm32wlxx_hal_flash_ex.c ****   * @brief  Configure the Zone 1A Proprietary code readout protection of the desired addresses,
 846:Drivers/STM32WLxx_HAL_Driver/Src/stm32wlxx_hal_flash_ex.c ****   *         and erase configuration on RDP regression.
 847:Drivers/STM32WLxx_HAL_Driver/Src/stm32wlxx_hal_flash_ex.c ****   * @note   To configure the PCROP options, the option lock bit OPTLOCK must be
 848:Drivers/STM32WLxx_HAL_Driver/Src/stm32wlxx_hal_flash_ex.c ****   *         cleared with the call of the @ref HAL_FLASH_OB_Unlock() function.
 849:Drivers/STM32WLxx_HAL_Driver/Src/stm32wlxx_hal_flash_ex.c ****   * @note   To validate the PCROP options, the option bytes must be reloaded
 850:Drivers/STM32WLxx_HAL_Driver/Src/stm32wlxx_hal_flash_ex.c ****   *         through the call of the @ref HAL_FLASH_OB_Launch() function.
 851:Drivers/STM32WLxx_HAL_Driver/Src/stm32wlxx_hal_flash_ex.c ****   * @param  PCROPConfig: specifies the erase configuration (OB_PCROP_RDP_NOT_ERASE or OB_PCROP_RDP_
 852:Drivers/STM32WLxx_HAL_Driver/Src/stm32wlxx_hal_flash_ex.c ****   *         on RDP level 1 regression.
 853:Drivers/STM32WLxx_HAL_Driver/Src/stm32wlxx_hal_flash_ex.c ****   * @param  PCROP1AStartAddr Specifies the Zone 1A Start address of the Proprietary code readout pr
 854:Drivers/STM32WLxx_HAL_Driver/Src/stm32wlxx_hal_flash_ex.c ****   *         This parameter can be an address between begin and end of the flash
 855:Drivers/STM32WLxx_HAL_Driver/Src/stm32wlxx_hal_flash_ex.c ****   * @param  PCROP1AEndAddr Specifies the Zone 1A end address of the Proprietary code readout protec
 856:Drivers/STM32WLxx_HAL_Driver/Src/stm32wlxx_hal_flash_ex.c ****   *         This parameter can be an address between PCROP1AStartAddr and end of the flash
 857:Drivers/STM32WLxx_HAL_Driver/Src/stm32wlxx_hal_flash_ex.c ****   * @retval None
 858:Drivers/STM32WLxx_HAL_Driver/Src/stm32wlxx_hal_flash_ex.c ****   */
 859:Drivers/STM32WLxx_HAL_Driver/Src/stm32wlxx_hal_flash_ex.c **** static void FLASH_OB_PCROP1AConfig(uint32_t PCROPConfig, uint32_t PCROP1AStartAddr, uint32_t PCROP1
 860:Drivers/STM32WLxx_HAL_Driver/Src/stm32wlxx_hal_flash_ex.c **** {
 267              		.loc 1 860 1 is_stmt 1 view -0
 268              		.cfi_startproc
 269              		@ args = 0, pretend = 0, frame = 0
 270              		@ frame_needed = 0, uses_anonymous_args = 0
 271              		@ link register save eliminated.
 861:Drivers/STM32WLxx_HAL_Driver/Src/stm32wlxx_hal_flash_ex.c ****   uint32_t startoffset;
 272              		.loc 1 861 3 view .LVU56
 862:Drivers/STM32WLxx_HAL_Driver/Src/stm32wlxx_hal_flash_ex.c ****   uint32_t endoffset;
 273              		.loc 1 862 3 view .LVU57
 863:Drivers/STM32WLxx_HAL_Driver/Src/stm32wlxx_hal_flash_ex.c ****   uint32_t pcrop1aend;
 274              		.loc 1 863 3 view .LVU58
 864:Drivers/STM32WLxx_HAL_Driver/Src/stm32wlxx_hal_flash_ex.c **** 
 865:Drivers/STM32WLxx_HAL_Driver/Src/stm32wlxx_hal_flash_ex.c ****   /* Check the parameters */
 866:Drivers/STM32WLxx_HAL_Driver/Src/stm32wlxx_hal_flash_ex.c ****   assert_param(IS_OB_PCROP_CONFIG(PCROPConfig));
 275              		.loc 1 866 3 view .LVU59
 867:Drivers/STM32WLxx_HAL_Driver/Src/stm32wlxx_hal_flash_ex.c ****   assert_param(IS_FLASH_MAIN_MEM_ADDRESS(PCROP1AStartAddr));
 276              		.loc 1 867 3 view .LVU60
 868:Drivers/STM32WLxx_HAL_Driver/Src/stm32wlxx_hal_flash_ex.c ****   assert_param(IS_FLASH_MAIN_MEM_ADDRESS(PCROP1AEndAddr));
 277              		.loc 1 868 3 view .LVU61
 869:Drivers/STM32WLxx_HAL_Driver/Src/stm32wlxx_hal_flash_ex.c **** 
 870:Drivers/STM32WLxx_HAL_Driver/Src/stm32wlxx_hal_flash_ex.c ****   /* get pcrop 1A end register */
 871:Drivers/STM32WLxx_HAL_Driver/Src/stm32wlxx_hal_flash_ex.c ****   pcrop1aend = FLASH->PCROP1AER;
 278              		.loc 1 871 3 view .LVU62
 279              		.loc 1 871 14 is_stmt 0 view .LVU63
 280 0000 104B     		ldr	r3, .L32
ARM GAS  /tmp/cclRXqpz.s 			page 21


 281 0002 9B6A     		ldr	r3, [r3, #40]
 282              	.LVL12:
 872:Drivers/STM32WLxx_HAL_Driver/Src/stm32wlxx_hal_flash_ex.c **** 
 873:Drivers/STM32WLxx_HAL_Driver/Src/stm32wlxx_hal_flash_ex.c ****   /* Configure the Proprietary code readout protection offset */
 874:Drivers/STM32WLxx_HAL_Driver/Src/stm32wlxx_hal_flash_ex.c ****   if ((PCROPConfig & OB_PCROP_ZONE_A) != 0U)
 283              		.loc 1 874 3 is_stmt 1 view .LVU64
 284              		.loc 1 874 6 is_stmt 0 view .LVU65
 285 0004 10F0010F 		tst	r0, #1
 286 0008 14D0     		beq	.L25
 860:Drivers/STM32WLxx_HAL_Driver/Src/stm32wlxx_hal_flash_ex.c ****   uint32_t startoffset;
 287              		.loc 1 860 1 view .LVU66
 288 000a 10B4     		push	{r4}
 289              		.cfi_def_cfa_offset 4
 290              		.cfi_offset 4, -4
 875:Drivers/STM32WLxx_HAL_Driver/Src/stm32wlxx_hal_flash_ex.c ****   {
 876:Drivers/STM32WLxx_HAL_Driver/Src/stm32wlxx_hal_flash_ex.c ****     /* Compute offset depending on pcrop granularity */
 877:Drivers/STM32WLxx_HAL_Driver/Src/stm32wlxx_hal_flash_ex.c ****     startoffset = ((PCROP1AStartAddr - FLASH_BASE) >> FLASH_PCROP_GRANULARITY_OFFSET); /* 2K pages 
 291              		.loc 1 877 5 is_stmt 1 view .LVU67
 292              		.loc 1 877 38 is_stmt 0 view .LVU68
 293 000c 01F17841 		add	r1, r1, #-134217728
 294              	.LVL13:
 295              		.loc 1 877 17 view .LVU69
 296 0010 890A     		lsrs	r1, r1, #10
 297              	.LVL14:
 878:Drivers/STM32WLxx_HAL_Driver/Src/stm32wlxx_hal_flash_ex.c ****     endoffset = ((PCROP1AEndAddr - FLASH_BASE) >> FLASH_PCROP_GRANULARITY_OFFSET); /* 2K pages */
 298              		.loc 1 878 5 is_stmt 1 view .LVU70
 299              		.loc 1 878 34 is_stmt 0 view .LVU71
 300 0012 02F17842 		add	r2, r2, #-134217728
 301              	.LVL15:
 879:Drivers/STM32WLxx_HAL_Driver/Src/stm32wlxx_hal_flash_ex.c **** 
 880:Drivers/STM32WLxx_HAL_Driver/Src/stm32wlxx_hal_flash_ex.c ****     /* Set Zone A start offset */
 881:Drivers/STM32WLxx_HAL_Driver/Src/stm32wlxx_hal_flash_ex.c ****     WRITE_REG(FLASH->PCROP1ASR, startoffset);
 302              		.loc 1 881 5 is_stmt 1 view .LVU72
 303 0016 0B4C     		ldr	r4, .L32
 304 0018 6162     		str	r1, [r4, #36]
 882:Drivers/STM32WLxx_HAL_Driver/Src/stm32wlxx_hal_flash_ex.c **** 
 883:Drivers/STM32WLxx_HAL_Driver/Src/stm32wlxx_hal_flash_ex.c ****     /* Set Zone A end offset */
 884:Drivers/STM32WLxx_HAL_Driver/Src/stm32wlxx_hal_flash_ex.c ****     pcrop1aend &= ~FLASH_PCROP1AER_PCROP1A_END;
 305              		.loc 1 884 5 view .LVU73
 306              		.loc 1 884 16 is_stmt 0 view .LVU74
 307 001a 23F0FF03 		bic	r3, r3, #255
 308              	.LVL16:
 885:Drivers/STM32WLxx_HAL_Driver/Src/stm32wlxx_hal_flash_ex.c ****     pcrop1aend |= endoffset;
 309              		.loc 1 885 5 is_stmt 1 view .LVU75
 310              		.loc 1 885 16 is_stmt 0 view .LVU76
 311 001e 43EA9223 		orr	r3, r3, r2, lsr #10
 312              	.LVL17:
 886:Drivers/STM32WLxx_HAL_Driver/Src/stm32wlxx_hal_flash_ex.c ****   }
 887:Drivers/STM32WLxx_HAL_Driver/Src/stm32wlxx_hal_flash_ex.c **** 
 888:Drivers/STM32WLxx_HAL_Driver/Src/stm32wlxx_hal_flash_ex.c ****   /* Set RDP erase protection if needed. This bit is only set & will be reset by mass erase */
 889:Drivers/STM32WLxx_HAL_Driver/Src/stm32wlxx_hal_flash_ex.c ****   if ((PCROPConfig & OB_PCROP_RDP_ERASE) != 0U)
 313              		.loc 1 889 3 is_stmt 1 view .LVU77
 314              		.loc 1 889 6 is_stmt 0 view .LVU78
 315 0022 0028     		cmp	r0, #0
 316 0024 03DB     		blt	.L30
 317              	.LVL18:
 318              	.L23:
ARM GAS  /tmp/cclRXqpz.s 			page 22


 890:Drivers/STM32WLxx_HAL_Driver/Src/stm32wlxx_hal_flash_ex.c ****   {
 891:Drivers/STM32WLxx_HAL_Driver/Src/stm32wlxx_hal_flash_ex.c ****     pcrop1aend |= FLASH_PCROP1AER_PCROP_RDP;
 892:Drivers/STM32WLxx_HAL_Driver/Src/stm32wlxx_hal_flash_ex.c ****   }
 893:Drivers/STM32WLxx_HAL_Driver/Src/stm32wlxx_hal_flash_ex.c **** 
 894:Drivers/STM32WLxx_HAL_Driver/Src/stm32wlxx_hal_flash_ex.c ****   /* set 1A End register */
 895:Drivers/STM32WLxx_HAL_Driver/Src/stm32wlxx_hal_flash_ex.c ****   WRITE_REG(FLASH->PCROP1AER, pcrop1aend);
 319              		.loc 1 895 3 is_stmt 1 view .LVU79
 320 0026 074A     		ldr	r2, .L32
 321              	.LVL19:
 322              		.loc 1 895 3 is_stmt 0 view .LVU80
 323 0028 9362     		str	r3, [r2, #40]
 896:Drivers/STM32WLxx_HAL_Driver/Src/stm32wlxx_hal_flash_ex.c **** }
 324              		.loc 1 896 1 view .LVU81
 325 002a 10BC     		pop	{r4}
 326              		.cfi_remember_state
 327              		.cfi_restore 4
 328              		.cfi_def_cfa_offset 0
 329 002c 7047     		bx	lr
 330              	.LVL20:
 331              	.L30:
 332              		.cfi_restore_state
 891:Drivers/STM32WLxx_HAL_Driver/Src/stm32wlxx_hal_flash_ex.c ****   }
 333              		.loc 1 891 5 is_stmt 1 view .LVU82
 891:Drivers/STM32WLxx_HAL_Driver/Src/stm32wlxx_hal_flash_ex.c ****   }
 334              		.loc 1 891 16 is_stmt 0 view .LVU83
 335 002e 43F00043 		orr	r3, r3, #-2147483648
 336              	.LVL21:
 891:Drivers/STM32WLxx_HAL_Driver/Src/stm32wlxx_hal_flash_ex.c ****   }
 337              		.loc 1 891 16 view .LVU84
 338 0032 F8E7     		b	.L23
 339              	.LVL22:
 340              	.L25:
 341              		.cfi_def_cfa_offset 0
 342              		.cfi_restore 4
 889:Drivers/STM32WLxx_HAL_Driver/Src/stm32wlxx_hal_flash_ex.c ****   {
 343              		.loc 1 889 3 is_stmt 1 view .LVU85
 889:Drivers/STM32WLxx_HAL_Driver/Src/stm32wlxx_hal_flash_ex.c ****   {
 344              		.loc 1 889 6 is_stmt 0 view .LVU86
 345 0034 0028     		cmp	r0, #0
 346 0036 02DB     		blt	.L31
 347              	.LVL23:
 348              	.L27:
 895:Drivers/STM32WLxx_HAL_Driver/Src/stm32wlxx_hal_flash_ex.c **** }
 349              		.loc 1 895 3 is_stmt 1 view .LVU87
 350 0038 024A     		ldr	r2, .L32
 351              	.LVL24:
 895:Drivers/STM32WLxx_HAL_Driver/Src/stm32wlxx_hal_flash_ex.c **** }
 352              		.loc 1 895 3 is_stmt 0 view .LVU88
 353 003a 9362     		str	r3, [r2, #40]
 354 003c 7047     		bx	lr
 355              	.LVL25:
 356              	.L31:
 891:Drivers/STM32WLxx_HAL_Driver/Src/stm32wlxx_hal_flash_ex.c ****   }
 357              		.loc 1 891 5 is_stmt 1 view .LVU89
 891:Drivers/STM32WLxx_HAL_Driver/Src/stm32wlxx_hal_flash_ex.c ****   }
 358              		.loc 1 891 16 is_stmt 0 view .LVU90
 359 003e 43F00043 		orr	r3, r3, #-2147483648
ARM GAS  /tmp/cclRXqpz.s 			page 23


 360              	.LVL26:
 891:Drivers/STM32WLxx_HAL_Driver/Src/stm32wlxx_hal_flash_ex.c ****   }
 361              		.loc 1 891 16 view .LVU91
 362 0042 F9E7     		b	.L27
 363              	.L33:
 364              		.align	2
 365              	.L32:
 366 0044 00400058 		.word	1476411392
 367              		.cfi_endproc
 368              	.LFE861:
 370              		.section	.text.FLASH_OB_PCROP1BConfig,"ax",%progbits
 371              		.align	1
 372              		.syntax unified
 373              		.thumb
 374              		.thumb_func
 376              	FLASH_OB_PCROP1BConfig:
 377              	.LVL27:
 378              	.LFB862:
 897:Drivers/STM32WLxx_HAL_Driver/Src/stm32wlxx_hal_flash_ex.c **** 
 898:Drivers/STM32WLxx_HAL_Driver/Src/stm32wlxx_hal_flash_ex.c **** /**
 899:Drivers/STM32WLxx_HAL_Driver/Src/stm32wlxx_hal_flash_ex.c ****   * @brief  Configure the Zone 1B Proprietary code readout protection of the desired addresses.
 900:Drivers/STM32WLxx_HAL_Driver/Src/stm32wlxx_hal_flash_ex.c ****   * @note   To configure the PCROP options, the option lock bit OPTLOCK must be
 901:Drivers/STM32WLxx_HAL_Driver/Src/stm32wlxx_hal_flash_ex.c ****   *         cleared with the call of the @ref HAL_FLASH_OB_Unlock() function.
 902:Drivers/STM32WLxx_HAL_Driver/Src/stm32wlxx_hal_flash_ex.c ****   * @note   To validate the PCROP options, the option bytes must be reloaded
 903:Drivers/STM32WLxx_HAL_Driver/Src/stm32wlxx_hal_flash_ex.c ****   *         through the call of the @ref HAL_FLASH_OB_Launch() function.
 904:Drivers/STM32WLxx_HAL_Driver/Src/stm32wlxx_hal_flash_ex.c ****   * @param  PCROP1BStartAddr Specifies the Zone 1B Start address of the Proprietary code readout pr
 905:Drivers/STM32WLxx_HAL_Driver/Src/stm32wlxx_hal_flash_ex.c ****   *         This parameter can be an address between begin and end of the flash
 906:Drivers/STM32WLxx_HAL_Driver/Src/stm32wlxx_hal_flash_ex.c ****   * @param  PCROP1BEndAddr Specifies the Zone 1B end address of the Proprietary code readout protec
 907:Drivers/STM32WLxx_HAL_Driver/Src/stm32wlxx_hal_flash_ex.c ****   *         This parameter can be an address between PCROP1BStartAddr and end of the flash
 908:Drivers/STM32WLxx_HAL_Driver/Src/stm32wlxx_hal_flash_ex.c ****   * @retval None
 909:Drivers/STM32WLxx_HAL_Driver/Src/stm32wlxx_hal_flash_ex.c ****   */
 910:Drivers/STM32WLxx_HAL_Driver/Src/stm32wlxx_hal_flash_ex.c **** static void FLASH_OB_PCROP1BConfig(uint32_t PCROP1BStartAddr, uint32_t PCROP1BEndAddr)
 911:Drivers/STM32WLxx_HAL_Driver/Src/stm32wlxx_hal_flash_ex.c **** {
 379              		.loc 1 911 1 is_stmt 1 view -0
 380              		.cfi_startproc
 381              		@ args = 0, pretend = 0, frame = 0
 382              		@ frame_needed = 0, uses_anonymous_args = 0
 383              		@ link register save eliminated.
 912:Drivers/STM32WLxx_HAL_Driver/Src/stm32wlxx_hal_flash_ex.c ****   uint32_t startoffset;
 384              		.loc 1 912 3 view .LVU93
 913:Drivers/STM32WLxx_HAL_Driver/Src/stm32wlxx_hal_flash_ex.c ****   uint32_t endoffset;
 385              		.loc 1 913 3 view .LVU94
 914:Drivers/STM32WLxx_HAL_Driver/Src/stm32wlxx_hal_flash_ex.c **** 
 915:Drivers/STM32WLxx_HAL_Driver/Src/stm32wlxx_hal_flash_ex.c ****   /* Check the parameters */
 916:Drivers/STM32WLxx_HAL_Driver/Src/stm32wlxx_hal_flash_ex.c ****   assert_param(IS_FLASH_MAIN_MEM_ADDRESS(PCROP1BStartAddr));
 386              		.loc 1 916 3 view .LVU95
 917:Drivers/STM32WLxx_HAL_Driver/Src/stm32wlxx_hal_flash_ex.c ****   assert_param(IS_FLASH_MAIN_MEM_ADDRESS(PCROP1BEndAddr));
 387              		.loc 1 917 3 view .LVU96
 918:Drivers/STM32WLxx_HAL_Driver/Src/stm32wlxx_hal_flash_ex.c **** 
 919:Drivers/STM32WLxx_HAL_Driver/Src/stm32wlxx_hal_flash_ex.c ****   /* Compute offset depending on pcrop granularity */
 920:Drivers/STM32WLxx_HAL_Driver/Src/stm32wlxx_hal_flash_ex.c ****   startoffset = ((PCROP1BStartAddr - FLASH_BASE) >> FLASH_PCROP_GRANULARITY_OFFSET); /* 2K pages */
 388              		.loc 1 920 3 view .LVU97
 389              		.loc 1 920 36 is_stmt 0 view .LVU98
 390 0000 00F17840 		add	r0, r0, #-134217728
 391              	.LVL28:
 392              		.loc 1 920 15 view .LVU99
 393 0004 800A     		lsrs	r0, r0, #10
ARM GAS  /tmp/cclRXqpz.s 			page 24


 394              	.LVL29:
 921:Drivers/STM32WLxx_HAL_Driver/Src/stm32wlxx_hal_flash_ex.c ****   endoffset = ((PCROP1BEndAddr - FLASH_BASE) >> FLASH_PCROP_GRANULARITY_OFFSET); /* 2K pages */
 395              		.loc 1 921 3 is_stmt 1 view .LVU100
 396              		.loc 1 921 32 is_stmt 0 view .LVU101
 397 0006 01F17841 		add	r1, r1, #-134217728
 398              	.LVL30:
 399              		.loc 1 921 13 view .LVU102
 400 000a 890A     		lsrs	r1, r1, #10
 401              	.LVL31:
 922:Drivers/STM32WLxx_HAL_Driver/Src/stm32wlxx_hal_flash_ex.c **** 
 923:Drivers/STM32WLxx_HAL_Driver/Src/stm32wlxx_hal_flash_ex.c ****   /* Configure the Proprietary code readout protection start address */
 924:Drivers/STM32WLxx_HAL_Driver/Src/stm32wlxx_hal_flash_ex.c ****   WRITE_REG(FLASH->PCROP1BSR, startoffset);
 402              		.loc 1 924 3 is_stmt 1 view .LVU103
 403 000c 014B     		ldr	r3, .L35
 404 000e 5863     		str	r0, [r3, #52]
 925:Drivers/STM32WLxx_HAL_Driver/Src/stm32wlxx_hal_flash_ex.c **** 
 926:Drivers/STM32WLxx_HAL_Driver/Src/stm32wlxx_hal_flash_ex.c ****   /* Configure the Proprietary code readout protection end address */
 927:Drivers/STM32WLxx_HAL_Driver/Src/stm32wlxx_hal_flash_ex.c ****   WRITE_REG(FLASH->PCROP1BER, endoffset);
 405              		.loc 1 927 3 view .LVU104
 406 0010 9963     		str	r1, [r3, #56]
 928:Drivers/STM32WLxx_HAL_Driver/Src/stm32wlxx_hal_flash_ex.c **** }
 407              		.loc 1 928 1 is_stmt 0 view .LVU105
 408 0012 7047     		bx	lr
 409              	.L36:
 410              		.align	2
 411              	.L35:
 412 0014 00400058 		.word	1476411392
 413              		.cfi_endproc
 414              	.LFE862:
 416              		.section	.text.FLASH_OB_GetWRP,"ax",%progbits
 417              		.align	1
 418              		.syntax unified
 419              		.thumb
 420              		.thumb_func
 422              	FLASH_OB_GetWRP:
 423              	.LVL32:
 424              	.LFB863:
 929:Drivers/STM32WLxx_HAL_Driver/Src/stm32wlxx_hal_flash_ex.c **** 
 930:Drivers/STM32WLxx_HAL_Driver/Src/stm32wlxx_hal_flash_ex.c **** #if defined(DUAL_CORE)
 931:Drivers/STM32WLxx_HAL_Driver/Src/stm32wlxx_hal_flash_ex.c **** /**
 932:Drivers/STM32WLxx_HAL_Driver/Src/stm32wlxx_hal_flash_ex.c ****   * @brief  Program the FLASH IPCC data buffer address.
 933:Drivers/STM32WLxx_HAL_Driver/Src/stm32wlxx_hal_flash_ex.c ****   * @note   To configure the extra user option bytes, the option lock bit OPTLOCK must
 934:Drivers/STM32WLxx_HAL_Driver/Src/stm32wlxx_hal_flash_ex.c ****   *         be cleared with the call of the @ref HAL_FLASH_OB_Unlock() function.
 935:Drivers/STM32WLxx_HAL_Driver/Src/stm32wlxx_hal_flash_ex.c ****   * @note   To validate the extra user option bytes, the option bytes must be reloaded
 936:Drivers/STM32WLxx_HAL_Driver/Src/stm32wlxx_hal_flash_ex.c ****   *         through the call of the @ref HAL_FLASH_OB_Launch() function.
 937:Drivers/STM32WLxx_HAL_Driver/Src/stm32wlxx_hal_flash_ex.c ****   * @param  IPCCDataBufAddr IPCC data buffer start address area in SRAM1 or SRAM2
 938:Drivers/STM32WLxx_HAL_Driver/Src/stm32wlxx_hal_flash_ex.c ****   *         This parameter must be the double-word aligned
 939:Drivers/STM32WLxx_HAL_Driver/Src/stm32wlxx_hal_flash_ex.c ****   * @retval None
 940:Drivers/STM32WLxx_HAL_Driver/Src/stm32wlxx_hal_flash_ex.c ****   */
 941:Drivers/STM32WLxx_HAL_Driver/Src/stm32wlxx_hal_flash_ex.c **** static void FLASH_OB_IPCCBufferAddrConfig(uint32_t IPCCDataBufAddr)
 942:Drivers/STM32WLxx_HAL_Driver/Src/stm32wlxx_hal_flash_ex.c **** {
 943:Drivers/STM32WLxx_HAL_Driver/Src/stm32wlxx_hal_flash_ex.c ****   assert_param(IS_OB_IPCC_BUF_ADDR(IPCCDataBufAddr));
 944:Drivers/STM32WLxx_HAL_Driver/Src/stm32wlxx_hal_flash_ex.c **** 
 945:Drivers/STM32WLxx_HAL_Driver/Src/stm32wlxx_hal_flash_ex.c ****   /* Configure the option bytes register */
 946:Drivers/STM32WLxx_HAL_Driver/Src/stm32wlxx_hal_flash_ex.c ****   WRITE_REG(FLASH->IPCCBR, (uint32_t)((IPCCDataBufAddr - SRAM1_BASE) >> 4));
 947:Drivers/STM32WLxx_HAL_Driver/Src/stm32wlxx_hal_flash_ex.c **** }
 948:Drivers/STM32WLxx_HAL_Driver/Src/stm32wlxx_hal_flash_ex.c **** 
ARM GAS  /tmp/cclRXqpz.s 			page 25


 949:Drivers/STM32WLxx_HAL_Driver/Src/stm32wlxx_hal_flash_ex.c **** /**
 950:Drivers/STM32WLxx_HAL_Driver/Src/stm32wlxx_hal_flash_ex.c ****   * @brief  Configure the secure start address of the different memories,
 951:Drivers/STM32WLxx_HAL_Driver/Src/stm32wlxx_hal_flash_ex.c ****   *         the secure mode, the CPU2 Secure Boot reset vector and the CPU2 debug access
 952:Drivers/STM32WLxx_HAL_Driver/Src/stm32wlxx_hal_flash_ex.c ****   * @note   To configure the PCROP options, the option lock bit OPTLOCK must be
 953:Drivers/STM32WLxx_HAL_Driver/Src/stm32wlxx_hal_flash_ex.c ****   *         cleared with the call of the @ref HAL_FLASH_OB_Unlock() function.
 954:Drivers/STM32WLxx_HAL_Driver/Src/stm32wlxx_hal_flash_ex.c ****   * @param  pOBParam Pointer to an @ref FLASH_OBProgramInitTypeDef structure that
 955:Drivers/STM32WLxx_HAL_Driver/Src/stm32wlxx_hal_flash_ex.c ****   *         contains the configuration information for the programming
 956:Drivers/STM32WLxx_HAL_Driver/Src/stm32wlxx_hal_flash_ex.c ****   * @retval void
 957:Drivers/STM32WLxx_HAL_Driver/Src/stm32wlxx_hal_flash_ex.c ****   */
 958:Drivers/STM32WLxx_HAL_Driver/Src/stm32wlxx_hal_flash_ex.c **** static void FLASH_OB_SecureConfig(FLASH_OBProgramInitTypeDef *pOBParam)
 959:Drivers/STM32WLxx_HAL_Driver/Src/stm32wlxx_hal_flash_ex.c **** {
 960:Drivers/STM32WLxx_HAL_Driver/Src/stm32wlxx_hal_flash_ex.c ****   uint32_t sfr_reg_val = READ_REG(FLASH->SFR);
 961:Drivers/STM32WLxx_HAL_Driver/Src/stm32wlxx_hal_flash_ex.c ****   uint32_t srrvr_reg_val = READ_REG(FLASH->SRRVR);
 962:Drivers/STM32WLxx_HAL_Driver/Src/stm32wlxx_hal_flash_ex.c **** 
 963:Drivers/STM32WLxx_HAL_Driver/Src/stm32wlxx_hal_flash_ex.c ****   if ((pOBParam->OptionType & OPTIONBYTE_SECURE_MODE) != 0U)
 964:Drivers/STM32WLxx_HAL_Driver/Src/stm32wlxx_hal_flash_ex.c ****   {
 965:Drivers/STM32WLxx_HAL_Driver/Src/stm32wlxx_hal_flash_ex.c ****     assert_param(IS_OB_SFSA_START_ADDR(pOBParam->SecureFlashStartAddr));
 966:Drivers/STM32WLxx_HAL_Driver/Src/stm32wlxx_hal_flash_ex.c ****     assert_param(IS_OB_SBRSA_START_ADDR(pOBParam->SecureSRAM2StartAddr));
 967:Drivers/STM32WLxx_HAL_Driver/Src/stm32wlxx_hal_flash_ex.c ****     assert_param(IS_OB_SNBRSA_START_ADDR(pOBParam->SecureSRAM1StartAddr));
 968:Drivers/STM32WLxx_HAL_Driver/Src/stm32wlxx_hal_flash_ex.c ****     assert_param(IS_OB_HDPSA_START_ADDR(pOBParam->HideProtectionStartAddr));
 969:Drivers/STM32WLxx_HAL_Driver/Src/stm32wlxx_hal_flash_ex.c ****     assert_param(IS_OB_SECURE_MODE(pOBParam->SecureMode));
 970:Drivers/STM32WLxx_HAL_Driver/Src/stm32wlxx_hal_flash_ex.c **** 
 971:Drivers/STM32WLxx_HAL_Driver/Src/stm32wlxx_hal_flash_ex.c ****     /* Configure SFR register content with start FLASH PAGE index to secure and start FLASH PAGE in
 972:Drivers/STM32WLxx_HAL_Driver/Src/stm32wlxx_hal_flash_ex.c ****     MODIFY_REG(sfr_reg_val, (FLASH_SFR_SFSA | FLASH_SFR_HDPSA), \
 973:Drivers/STM32WLxx_HAL_Driver/Src/stm32wlxx_hal_flash_ex.c ****                ((((pOBParam->SecureFlashStartAddr - FLASH_BASE) / FLASH_PAGE_SIZE) << FLASH_SFR_SFS
 974:Drivers/STM32WLxx_HAL_Driver/Src/stm32wlxx_hal_flash_ex.c ****                 (((pOBParam->HideProtectionStartAddr - FLASH_BASE) / FLASH_PAGE_SIZE) << FLASH_SFR_
 975:Drivers/STM32WLxx_HAL_Driver/Src/stm32wlxx_hal_flash_ex.c **** 
 976:Drivers/STM32WLxx_HAL_Driver/Src/stm32wlxx_hal_flash_ex.c ****     /* Configure SRRVR register */
 977:Drivers/STM32WLxx_HAL_Driver/Src/stm32wlxx_hal_flash_ex.c ****     MODIFY_REG(srrvr_reg_val, (FLASH_SRRVR_SBRSA | FLASH_SRRVR_SNBRSA), \
 978:Drivers/STM32WLxx_HAL_Driver/Src/stm32wlxx_hal_flash_ex.c ****                (((((pOBParam->SecureSRAM2StartAddr - SRAM2_BASE) >> SRAM_SECURE_PAGE_GRANULARITY_OF
 979:Drivers/STM32WLxx_HAL_Driver/Src/stm32wlxx_hal_flash_ex.c ****                 ((((pOBParam->SecureSRAM1StartAddr - SRAM1_BASE) >> SRAM_SECURE_PAGE_GRANULARITY_OF
 980:Drivers/STM32WLxx_HAL_Driver/Src/stm32wlxx_hal_flash_ex.c **** 
 981:Drivers/STM32WLxx_HAL_Driver/Src/stm32wlxx_hal_flash_ex.c ****     /* If Full System Secure mode is requested, clear all the corresponding bit */
 982:Drivers/STM32WLxx_HAL_Driver/Src/stm32wlxx_hal_flash_ex.c ****     /* Else set the corresponding bit */
 983:Drivers/STM32WLxx_HAL_Driver/Src/stm32wlxx_hal_flash_ex.c ****     if (pOBParam->SecureMode == OB_SECURE_SYSTEM_AND_ALL_AREAS_ENABLE)
 984:Drivers/STM32WLxx_HAL_Driver/Src/stm32wlxx_hal_flash_ex.c ****     {
 985:Drivers/STM32WLxx_HAL_Driver/Src/stm32wlxx_hal_flash_ex.c ****       CLEAR_BIT(sfr_reg_val, (FLASH_SFR_FSD | FLASH_SFR_HDPAD));
 986:Drivers/STM32WLxx_HAL_Driver/Src/stm32wlxx_hal_flash_ex.c ****       CLEAR_BIT(srrvr_reg_val, (FLASH_SRRVR_BRSD | FLASH_SRRVR_NBRSD));
 987:Drivers/STM32WLxx_HAL_Driver/Src/stm32wlxx_hal_flash_ex.c ****     }
 988:Drivers/STM32WLxx_HAL_Driver/Src/stm32wlxx_hal_flash_ex.c ****     else if (pOBParam->SecureMode == OB_SECURE_SYSTEM_AND_ALL_AREAS_DISABLE)
 989:Drivers/STM32WLxx_HAL_Driver/Src/stm32wlxx_hal_flash_ex.c ****     {
 990:Drivers/STM32WLxx_HAL_Driver/Src/stm32wlxx_hal_flash_ex.c ****       SET_BIT(sfr_reg_val, (FLASH_SFR_FSD | FLASH_SFR_HDPAD));
 991:Drivers/STM32WLxx_HAL_Driver/Src/stm32wlxx_hal_flash_ex.c ****       SET_BIT(srrvr_reg_val, (FLASH_SRRVR_BRSD | FLASH_SRRVR_NBRSD));
 992:Drivers/STM32WLxx_HAL_Driver/Src/stm32wlxx_hal_flash_ex.c ****     }
 993:Drivers/STM32WLxx_HAL_Driver/Src/stm32wlxx_hal_flash_ex.c ****     else /* Enable Secure Area bit per bit */
 994:Drivers/STM32WLxx_HAL_Driver/Src/stm32wlxx_hal_flash_ex.c ****     {
 995:Drivers/STM32WLxx_HAL_Driver/Src/stm32wlxx_hal_flash_ex.c ****       /* Set Flash Area in secure if requested */
 996:Drivers/STM32WLxx_HAL_Driver/Src/stm32wlxx_hal_flash_ex.c ****       FLASH_OB_ConfigSecureMode(pOBParam->SecureMode, &sfr_reg_val, FLASH_SFR_FSD, OB_SECURE_SYSTEM
 997:Drivers/STM32WLxx_HAL_Driver/Src/stm32wlxx_hal_flash_ex.c **** 
 998:Drivers/STM32WLxx_HAL_Driver/Src/stm32wlxx_hal_flash_ex.c ****       /* Set Hide Protection Area in secure if requested */
 999:Drivers/STM32WLxx_HAL_Driver/Src/stm32wlxx_hal_flash_ex.c ****       FLASH_OB_ConfigSecureMode(pOBParam->SecureMode, &sfr_reg_val, FLASH_SFR_HDPAD, OB_SECURE_HIDE
1000:Drivers/STM32WLxx_HAL_Driver/Src/stm32wlxx_hal_flash_ex.c **** 
1001:Drivers/STM32WLxx_HAL_Driver/Src/stm32wlxx_hal_flash_ex.c ****       /* Set SRAM1 Area in secure if requested */
1002:Drivers/STM32WLxx_HAL_Driver/Src/stm32wlxx_hal_flash_ex.c ****       FLASH_OB_ConfigSecureMode(pOBParam->SecureMode, &srrvr_reg_val, FLASH_SRRVR_NBRSD, OB_SECURE_
1003:Drivers/STM32WLxx_HAL_Driver/Src/stm32wlxx_hal_flash_ex.c **** 
1004:Drivers/STM32WLxx_HAL_Driver/Src/stm32wlxx_hal_flash_ex.c ****       /* Set SRAM2 Area in secure if requested */
1005:Drivers/STM32WLxx_HAL_Driver/Src/stm32wlxx_hal_flash_ex.c ****       FLASH_OB_ConfigSecureMode(pOBParam->SecureMode, &srrvr_reg_val, FLASH_SRRVR_BRSD, OB_SECURE_S
ARM GAS  /tmp/cclRXqpz.s 			page 26


1006:Drivers/STM32WLxx_HAL_Driver/Src/stm32wlxx_hal_flash_ex.c ****     }
1007:Drivers/STM32WLxx_HAL_Driver/Src/stm32wlxx_hal_flash_ex.c ****   }
1008:Drivers/STM32WLxx_HAL_Driver/Src/stm32wlxx_hal_flash_ex.c **** 
1009:Drivers/STM32WLxx_HAL_Driver/Src/stm32wlxx_hal_flash_ex.c ****   /* Boot vector */
1010:Drivers/STM32WLxx_HAL_Driver/Src/stm32wlxx_hal_flash_ex.c ****   if ((pOBParam->OptionType & OPTIONBYTE_C2_BOOT_VECT) != 0U)
1011:Drivers/STM32WLxx_HAL_Driver/Src/stm32wlxx_hal_flash_ex.c ****   {
1012:Drivers/STM32WLxx_HAL_Driver/Src/stm32wlxx_hal_flash_ex.c ****     /* Check the parameters */
1013:Drivers/STM32WLxx_HAL_Driver/Src/stm32wlxx_hal_flash_ex.c ****     assert_param(IS_OB_BOOT_VECTOR_ADDR(pOBParam->C2SecureBootVectAddr));
1014:Drivers/STM32WLxx_HAL_Driver/Src/stm32wlxx_hal_flash_ex.c ****     assert_param(IS_OB_BOOT_REGION(pOBParam->C2BootRegion));
1015:Drivers/STM32WLxx_HAL_Driver/Src/stm32wlxx_hal_flash_ex.c **** 
1016:Drivers/STM32WLxx_HAL_Driver/Src/stm32wlxx_hal_flash_ex.c ****     /* Set the boot vector */
1017:Drivers/STM32WLxx_HAL_Driver/Src/stm32wlxx_hal_flash_ex.c ****     if (pOBParam->C2BootRegion == OB_C2_BOOT_FROM_FLASH)
1018:Drivers/STM32WLxx_HAL_Driver/Src/stm32wlxx_hal_flash_ex.c ****     {
1019:Drivers/STM32WLxx_HAL_Driver/Src/stm32wlxx_hal_flash_ex.c ****       MODIFY_REG(srrvr_reg_val, (FLASH_SRRVR_SBRV | FLASH_SRRVR_C2OPT),
1020:Drivers/STM32WLxx_HAL_Driver/Src/stm32wlxx_hal_flash_ex.c ****                  (((pOBParam->C2SecureBootVectAddr - FLASH_BASE) >> 2) | pOBParam->C2BootRegion));
1021:Drivers/STM32WLxx_HAL_Driver/Src/stm32wlxx_hal_flash_ex.c ****     }
1022:Drivers/STM32WLxx_HAL_Driver/Src/stm32wlxx_hal_flash_ex.c ****     else
1023:Drivers/STM32WLxx_HAL_Driver/Src/stm32wlxx_hal_flash_ex.c ****     {
1024:Drivers/STM32WLxx_HAL_Driver/Src/stm32wlxx_hal_flash_ex.c ****       MODIFY_REG(srrvr_reg_val, (FLASH_SRRVR_SBRV | FLASH_SRRVR_C2OPT),
1025:Drivers/STM32WLxx_HAL_Driver/Src/stm32wlxx_hal_flash_ex.c ****                  (((pOBParam->C2SecureBootVectAddr - SRAM1_BASE) >> 2) | pOBParam->C2BootRegion));
1026:Drivers/STM32WLxx_HAL_Driver/Src/stm32wlxx_hal_flash_ex.c ****     }
1027:Drivers/STM32WLxx_HAL_Driver/Src/stm32wlxx_hal_flash_ex.c ****   }
1028:Drivers/STM32WLxx_HAL_Driver/Src/stm32wlxx_hal_flash_ex.c **** 
1029:Drivers/STM32WLxx_HAL_Driver/Src/stm32wlxx_hal_flash_ex.c ****   /* CPU2 Debug Access */
1030:Drivers/STM32WLxx_HAL_Driver/Src/stm32wlxx_hal_flash_ex.c ****   if ((pOBParam->OptionType & OPTIONBYTE_C2_DEBUG_ACCESS) != 0U)
1031:Drivers/STM32WLxx_HAL_Driver/Src/stm32wlxx_hal_flash_ex.c ****   {
1032:Drivers/STM32WLxx_HAL_Driver/Src/stm32wlxx_hal_flash_ex.c ****     /* Check the parameters */
1033:Drivers/STM32WLxx_HAL_Driver/Src/stm32wlxx_hal_flash_ex.c ****     assert_param(IS_OB_C2_DEBUG_MODE(pOBParam->C2DebugAccessMode));
1034:Drivers/STM32WLxx_HAL_Driver/Src/stm32wlxx_hal_flash_ex.c **** 
1035:Drivers/STM32WLxx_HAL_Driver/Src/stm32wlxx_hal_flash_ex.c ****     /* Set the CPU2 Debug Access */
1036:Drivers/STM32WLxx_HAL_Driver/Src/stm32wlxx_hal_flash_ex.c ****     MODIFY_REG(sfr_reg_val, FLASH_SFR_DDS, (uint32_t)pOBParam->C2DebugAccessMode);
1037:Drivers/STM32WLxx_HAL_Driver/Src/stm32wlxx_hal_flash_ex.c ****   }
1038:Drivers/STM32WLxx_HAL_Driver/Src/stm32wlxx_hal_flash_ex.c **** 
1039:Drivers/STM32WLxx_HAL_Driver/Src/stm32wlxx_hal_flash_ex.c ****   /* Sub-GHz radio SPI Access */
1040:Drivers/STM32WLxx_HAL_Driver/Src/stm32wlxx_hal_flash_ex.c ****   if ((pOBParam->OptionType & OPTIONBYTE_SUBGHZSPI_SECURE_ACCESS) != 0U)
1041:Drivers/STM32WLxx_HAL_Driver/Src/stm32wlxx_hal_flash_ex.c ****   {
1042:Drivers/STM32WLxx_HAL_Driver/Src/stm32wlxx_hal_flash_ex.c ****     /* Check the parameters */
1043:Drivers/STM32WLxx_HAL_Driver/Src/stm32wlxx_hal_flash_ex.c ****     assert_param(IS_OB_SUBGHZSPI_SECURE_ACCESS(pOBParam->SUBGHZSPISecureAccess));
1044:Drivers/STM32WLxx_HAL_Driver/Src/stm32wlxx_hal_flash_ex.c **** 
1045:Drivers/STM32WLxx_HAL_Driver/Src/stm32wlxx_hal_flash_ex.c ****     /* Set the Sub-GHz radio SPI Secure Access */
1046:Drivers/STM32WLxx_HAL_Driver/Src/stm32wlxx_hal_flash_ex.c ****     MODIFY_REG(sfr_reg_val, FLASH_SFR_SUBGHZSPISD, (uint32_t)pOBParam->SUBGHZSPISecureAccess);
1047:Drivers/STM32WLxx_HAL_Driver/Src/stm32wlxx_hal_flash_ex.c ****   }
1048:Drivers/STM32WLxx_HAL_Driver/Src/stm32wlxx_hal_flash_ex.c **** 
1049:Drivers/STM32WLxx_HAL_Driver/Src/stm32wlxx_hal_flash_ex.c ****   /* Update Flash registers */
1050:Drivers/STM32WLxx_HAL_Driver/Src/stm32wlxx_hal_flash_ex.c ****   WRITE_REG(FLASH->SFR, sfr_reg_val);
1051:Drivers/STM32WLxx_HAL_Driver/Src/stm32wlxx_hal_flash_ex.c ****   WRITE_REG(FLASH->SRRVR, srrvr_reg_val);
1052:Drivers/STM32WLxx_HAL_Driver/Src/stm32wlxx_hal_flash_ex.c **** }
1053:Drivers/STM32WLxx_HAL_Driver/Src/stm32wlxx_hal_flash_ex.c **** #endif /* DUAL_CORE */
1054:Drivers/STM32WLxx_HAL_Driver/Src/stm32wlxx_hal_flash_ex.c **** 
1055:Drivers/STM32WLxx_HAL_Driver/Src/stm32wlxx_hal_flash_ex.c **** /**
1056:Drivers/STM32WLxx_HAL_Driver/Src/stm32wlxx_hal_flash_ex.c ****   * @brief  Return the FLASH Write Protection Option Bytes value.
1057:Drivers/STM32WLxx_HAL_Driver/Src/stm32wlxx_hal_flash_ex.c ****   * @param[in]   WRPArea Specifies the area to be returned.
1058:Drivers/STM32WLxx_HAL_Driver/Src/stm32wlxx_hal_flash_ex.c ****   *              This parameter can be one of the following values:
1059:Drivers/STM32WLxx_HAL_Driver/Src/stm32wlxx_hal_flash_ex.c ****   *              @arg @ref OB_WRPAREA_BANK1_AREAA Flash Bank 1 Area A
1060:Drivers/STM32WLxx_HAL_Driver/Src/stm32wlxx_hal_flash_ex.c ****   *              @arg @ref OB_WRPAREA_BANK1_AREAB Flash Bank 1 Area B
1061:Drivers/STM32WLxx_HAL_Driver/Src/stm32wlxx_hal_flash_ex.c ****   * @param[out]  WRPStartOffset Specifies the address where to copied the start page
1062:Drivers/STM32WLxx_HAL_Driver/Src/stm32wlxx_hal_flash_ex.c ****   *                             of the write protected area
ARM GAS  /tmp/cclRXqpz.s 			page 27


1063:Drivers/STM32WLxx_HAL_Driver/Src/stm32wlxx_hal_flash_ex.c ****   * @param[out]  WRDPEndOffset Specifies the address where to copied the end page of
1064:Drivers/STM32WLxx_HAL_Driver/Src/stm32wlxx_hal_flash_ex.c ****   *                            the write protected area
1065:Drivers/STM32WLxx_HAL_Driver/Src/stm32wlxx_hal_flash_ex.c ****   * @retval None
1066:Drivers/STM32WLxx_HAL_Driver/Src/stm32wlxx_hal_flash_ex.c ****   */
1067:Drivers/STM32WLxx_HAL_Driver/Src/stm32wlxx_hal_flash_ex.c **** static void FLASH_OB_GetWRP(uint32_t WRPArea, uint32_t *WRPStartOffset, uint32_t *WRDPEndOffset)
1068:Drivers/STM32WLxx_HAL_Driver/Src/stm32wlxx_hal_flash_ex.c **** {
 425              		.loc 1 1068 1 is_stmt 1 view -0
 426              		.cfi_startproc
 427              		@ args = 0, pretend = 0, frame = 0
 428              		@ frame_needed = 0, uses_anonymous_args = 0
 429              		@ link register save eliminated.
1069:Drivers/STM32WLxx_HAL_Driver/Src/stm32wlxx_hal_flash_ex.c ****   /* Check the parameters */
1070:Drivers/STM32WLxx_HAL_Driver/Src/stm32wlxx_hal_flash_ex.c ****   assert_param(IS_OB_WRPAREA(WRPArea));
 430              		.loc 1 1070 3 view .LVU107
1071:Drivers/STM32WLxx_HAL_Driver/Src/stm32wlxx_hal_flash_ex.c **** 
1072:Drivers/STM32WLxx_HAL_Driver/Src/stm32wlxx_hal_flash_ex.c ****   /* Get the configuration of the write protected area */
1073:Drivers/STM32WLxx_HAL_Driver/Src/stm32wlxx_hal_flash_ex.c ****   if (WRPArea == OB_WRPAREA_BANK1_AREAA)
 431              		.loc 1 1073 3 view .LVU108
 432              		.loc 1 1073 6 is_stmt 0 view .LVU109
 433 0000 48B9     		cbnz	r0, .L38
1074:Drivers/STM32WLxx_HAL_Driver/Src/stm32wlxx_hal_flash_ex.c ****   {
1075:Drivers/STM32WLxx_HAL_Driver/Src/stm32wlxx_hal_flash_ex.c ****     *WRPStartOffset = READ_BIT(FLASH->WRP1AR, FLASH_WRP1AR_WRP1A_STRT);
 434              		.loc 1 1075 5 is_stmt 1 view .LVU110
 435              		.loc 1 1075 23 is_stmt 0 view .LVU111
 436 0002 0A48     		ldr	r0, .L40
 437              	.LVL33:
 438              		.loc 1 1075 23 view .LVU112
 439 0004 C36A     		ldr	r3, [r0, #44]
 440 0006 03F07F03 		and	r3, r3, #127
 441              		.loc 1 1075 21 view .LVU113
 442 000a 0B60     		str	r3, [r1]
1076:Drivers/STM32WLxx_HAL_Driver/Src/stm32wlxx_hal_flash_ex.c ****     *WRDPEndOffset = (READ_BIT(FLASH->WRP1AR, FLASH_WRP1AR_WRP1A_END) >> FLASH_WRP1AR_WRP1A_END_Pos
 443              		.loc 1 1076 5 is_stmt 1 view .LVU114
 444              		.loc 1 1076 23 is_stmt 0 view .LVU115
 445 000c C36A     		ldr	r3, [r0, #44]
 446              		.loc 1 1076 71 view .LVU116
 447 000e C3F30643 		ubfx	r3, r3, #16, #7
 448              		.loc 1 1076 20 view .LVU117
 449 0012 1360     		str	r3, [r2]
 450 0014 7047     		bx	lr
 451              	.LVL34:
 452              	.L38:
1077:Drivers/STM32WLxx_HAL_Driver/Src/stm32wlxx_hal_flash_ex.c ****   }
1078:Drivers/STM32WLxx_HAL_Driver/Src/stm32wlxx_hal_flash_ex.c ****   else /* OB_WRPAREA_BANK1_AREAB */
1079:Drivers/STM32WLxx_HAL_Driver/Src/stm32wlxx_hal_flash_ex.c ****   {
1080:Drivers/STM32WLxx_HAL_Driver/Src/stm32wlxx_hal_flash_ex.c ****     *WRPStartOffset = READ_BIT(FLASH->WRP1BR, FLASH_WRP1BR_WRP1B_STRT);
 453              		.loc 1 1080 5 is_stmt 1 view .LVU118
 454              		.loc 1 1080 23 is_stmt 0 view .LVU119
 455 0016 0548     		ldr	r0, .L40
 456              	.LVL35:
 457              		.loc 1 1080 23 view .LVU120
 458 0018 036B     		ldr	r3, [r0, #48]
 459 001a 03F07F03 		and	r3, r3, #127
 460              		.loc 1 1080 21 view .LVU121
 461 001e 0B60     		str	r3, [r1]
1081:Drivers/STM32WLxx_HAL_Driver/Src/stm32wlxx_hal_flash_ex.c ****     *WRDPEndOffset = (READ_BIT(FLASH->WRP1BR, FLASH_WRP1BR_WRP1B_END) >> FLASH_WRP1BR_WRP1B_END_Pos
 462              		.loc 1 1081 5 is_stmt 1 view .LVU122
ARM GAS  /tmp/cclRXqpz.s 			page 28


 463              		.loc 1 1081 23 is_stmt 0 view .LVU123
 464 0020 036B     		ldr	r3, [r0, #48]
 465              		.loc 1 1081 71 view .LVU124
 466 0022 C3F30643 		ubfx	r3, r3, #16, #7
 467              		.loc 1 1081 20 view .LVU125
 468 0026 1360     		str	r3, [r2]
1082:Drivers/STM32WLxx_HAL_Driver/Src/stm32wlxx_hal_flash_ex.c ****   }
1083:Drivers/STM32WLxx_HAL_Driver/Src/stm32wlxx_hal_flash_ex.c **** }
 469              		.loc 1 1083 1 view .LVU126
 470 0028 7047     		bx	lr
 471              	.L41:
 472 002a 00BF     		.align	2
 473              	.L40:
 474 002c 00400058 		.word	1476411392
 475              		.cfi_endproc
 476              	.LFE863:
 478              		.section	.text.FLASH_OB_GetRDP,"ax",%progbits
 479              		.align	1
 480              		.syntax unified
 481              		.thumb
 482              		.thumb_func
 484              	FLASH_OB_GetRDP:
 485              	.LFB864:
1084:Drivers/STM32WLxx_HAL_Driver/Src/stm32wlxx_hal_flash_ex.c **** 
1085:Drivers/STM32WLxx_HAL_Driver/Src/stm32wlxx_hal_flash_ex.c **** /**
1086:Drivers/STM32WLxx_HAL_Driver/Src/stm32wlxx_hal_flash_ex.c ****   * @brief  Return the FLASH Read Protection level.
1087:Drivers/STM32WLxx_HAL_Driver/Src/stm32wlxx_hal_flash_ex.c ****   * @retval FLASH ReadOut Protection Status:
1088:Drivers/STM32WLxx_HAL_Driver/Src/stm32wlxx_hal_flash_ex.c ****   *         This return value can be one of the following values:
1089:Drivers/STM32WLxx_HAL_Driver/Src/stm32wlxx_hal_flash_ex.c ****   *            @arg @ref OB_RDP_LEVEL_0 No protection
1090:Drivers/STM32WLxx_HAL_Driver/Src/stm32wlxx_hal_flash_ex.c ****   *            @arg @ref OB_RDP_LEVEL_1 Read protection of the memory
1091:Drivers/STM32WLxx_HAL_Driver/Src/stm32wlxx_hal_flash_ex.c ****   *            @arg @ref OB_RDP_LEVEL_2 Full chip protection
1092:Drivers/STM32WLxx_HAL_Driver/Src/stm32wlxx_hal_flash_ex.c ****   */
1093:Drivers/STM32WLxx_HAL_Driver/Src/stm32wlxx_hal_flash_ex.c **** static uint32_t FLASH_OB_GetRDP(void)
1094:Drivers/STM32WLxx_HAL_Driver/Src/stm32wlxx_hal_flash_ex.c **** {
 486              		.loc 1 1094 1 is_stmt 1 view -0
 487              		.cfi_startproc
 488              		@ args = 0, pretend = 0, frame = 0
 489              		@ frame_needed = 0, uses_anonymous_args = 0
 490              		@ link register save eliminated.
1095:Drivers/STM32WLxx_HAL_Driver/Src/stm32wlxx_hal_flash_ex.c ****   uint32_t rdplvl = READ_BIT(FLASH->OPTR, FLASH_OPTR_RDP);
 491              		.loc 1 1095 3 view .LVU128
 492              		.loc 1 1095 21 is_stmt 0 view .LVU129
 493 0000 044B     		ldr	r3, .L45
 494 0002 186A     		ldr	r0, [r3, #32]
 495              		.loc 1 1095 12 view .LVU130
 496 0004 C0B2     		uxtb	r0, r0
 497              	.LVL36:
1096:Drivers/STM32WLxx_HAL_Driver/Src/stm32wlxx_hal_flash_ex.c **** 
1097:Drivers/STM32WLxx_HAL_Driver/Src/stm32wlxx_hal_flash_ex.c ****   if ((rdplvl != OB_RDP_LEVEL_0) && (rdplvl != OB_RDP_LEVEL_2))
 498              		.loc 1 1097 3 is_stmt 1 view .LVU131
 499              		.loc 1 1097 6 is_stmt 0 view .LVU132
 500 0006 AA28     		cmp	r0, #170
 501 0008 02D0     		beq	.L42
 502              		.loc 1 1097 34 discriminator 1 view .LVU133
 503 000a CC28     		cmp	r0, #204
 504 000c 00D0     		beq	.L42
1098:Drivers/STM32WLxx_HAL_Driver/Src/stm32wlxx_hal_flash_ex.c ****   {
ARM GAS  /tmp/cclRXqpz.s 			page 29


1099:Drivers/STM32WLxx_HAL_Driver/Src/stm32wlxx_hal_flash_ex.c ****     return (OB_RDP_LEVEL_1);
 505              		.loc 1 1099 12 view .LVU134
 506 000e BB20     		movs	r0, #187
 507              	.LVL37:
 508              	.L42:
1100:Drivers/STM32WLxx_HAL_Driver/Src/stm32wlxx_hal_flash_ex.c ****   }
1101:Drivers/STM32WLxx_HAL_Driver/Src/stm32wlxx_hal_flash_ex.c ****   else
1102:Drivers/STM32WLxx_HAL_Driver/Src/stm32wlxx_hal_flash_ex.c ****   {
1103:Drivers/STM32WLxx_HAL_Driver/Src/stm32wlxx_hal_flash_ex.c ****     return rdplvl;
1104:Drivers/STM32WLxx_HAL_Driver/Src/stm32wlxx_hal_flash_ex.c ****   }
1105:Drivers/STM32WLxx_HAL_Driver/Src/stm32wlxx_hal_flash_ex.c **** }
 509              		.loc 1 1105 1 view .LVU135
 510 0010 7047     		bx	lr
 511              	.L46:
 512 0012 00BF     		.align	2
 513              	.L45:
 514 0014 00400058 		.word	1476411392
 515              		.cfi_endproc
 516              	.LFE864:
 518              		.section	.text.FLASH_OB_GetUser,"ax",%progbits
 519              		.align	1
 520              		.syntax unified
 521              		.thumb
 522              		.thumb_func
 524              	FLASH_OB_GetUser:
 525              	.LFB865:
1106:Drivers/STM32WLxx_HAL_Driver/Src/stm32wlxx_hal_flash_ex.c **** 
1107:Drivers/STM32WLxx_HAL_Driver/Src/stm32wlxx_hal_flash_ex.c **** #if defined(DUAL_CORE) /* Comment duplicated for Document generation */
1108:Drivers/STM32WLxx_HAL_Driver/Src/stm32wlxx_hal_flash_ex.c **** /**
1109:Drivers/STM32WLxx_HAL_Driver/Src/stm32wlxx_hal_flash_ex.c ****   * @brief  Return the FLASH User Option Byte value.
1110:Drivers/STM32WLxx_HAL_Driver/Src/stm32wlxx_hal_flash_ex.c ****   * @retval This return value can be a combination of all the following values:
1111:Drivers/STM32WLxx_HAL_Driver/Src/stm32wlxx_hal_flash_ex.c ****   *         @arg @ref OB_BOR_LEVEL_0 or @ref OB_BOR_LEVEL_1 or ... or @ref OB_BOR_LEVEL_4
1112:Drivers/STM32WLxx_HAL_Driver/Src/stm32wlxx_hal_flash_ex.c ****   *         @arg @ref OB_STOP_RST or @ref OB_STOP_RST
1113:Drivers/STM32WLxx_HAL_Driver/Src/stm32wlxx_hal_flash_ex.c ****   *         @arg @ref OB_STANDBY_RST or @ref OB_STANDBY_NORST
1114:Drivers/STM32WLxx_HAL_Driver/Src/stm32wlxx_hal_flash_ex.c ****   *         @arg @ref OB_SHUTDOWN_RST or @ref OB_SHUTDOWN_NORST
1115:Drivers/STM32WLxx_HAL_Driver/Src/stm32wlxx_hal_flash_ex.c ****   *         @arg @ref OB_IWDG_SW or @ref OB_IWDG_HW
1116:Drivers/STM32WLxx_HAL_Driver/Src/stm32wlxx_hal_flash_ex.c ****   *         @arg @ref OB_IWDG_STOP_FREEZE or @ref OB_IWDG_STOP_RUN
1117:Drivers/STM32WLxx_HAL_Driver/Src/stm32wlxx_hal_flash_ex.c ****   *         @arg @ref OB_IWDG_STDBY_FREEZE or @ref OB_IWDG_STDBY_RUN
1118:Drivers/STM32WLxx_HAL_Driver/Src/stm32wlxx_hal_flash_ex.c ****   *         @arg @ref OB_WWDG_SW or @ref OB_WWDG_HW
1119:Drivers/STM32WLxx_HAL_Driver/Src/stm32wlxx_hal_flash_ex.c ****   *         @arg @ref OB_BOOT1_RESET or @ref OB_BOOT1_SET
1120:Drivers/STM32WLxx_HAL_Driver/Src/stm32wlxx_hal_flash_ex.c ****   *         @arg @ref OB_SRAM2_PARITY_ENABLE or @ref OB_SRAM2_PARITY_DISABLE
1121:Drivers/STM32WLxx_HAL_Driver/Src/stm32wlxx_hal_flash_ex.c ****   *         @arg @ref OB_SRAM_RST_ERASE or @ref OB_SRAM_RST_NOT_ERASE
1122:Drivers/STM32WLxx_HAL_Driver/Src/stm32wlxx_hal_flash_ex.c ****   *         @arg @ref OB_BOOT0_FROM_OB or @ref OB_BOOT0_FROM_PIN
1123:Drivers/STM32WLxx_HAL_Driver/Src/stm32wlxx_hal_flash_ex.c ****   *         @arg @ref OB_BOOT0_RESET or @ref OB_BOOT0_SET
1124:Drivers/STM32WLxx_HAL_Driver/Src/stm32wlxx_hal_flash_ex.c ****   *         @arg @ref OB_BOOT_LOCK_DISABLE or @ref OB_BOOT_LOCK_ENABLE
1125:Drivers/STM32WLxx_HAL_Driver/Src/stm32wlxx_hal_flash_ex.c ****   *         @arg @ref OB_C2BOOT_LOCK_DISABLE or @ref OB_C2BOOT_LOCK_ENABLE
1126:Drivers/STM32WLxx_HAL_Driver/Src/stm32wlxx_hal_flash_ex.c ****   */
1127:Drivers/STM32WLxx_HAL_Driver/Src/stm32wlxx_hal_flash_ex.c **** #else
1128:Drivers/STM32WLxx_HAL_Driver/Src/stm32wlxx_hal_flash_ex.c **** /**
1129:Drivers/STM32WLxx_HAL_Driver/Src/stm32wlxx_hal_flash_ex.c ****   * @brief  Return the FLASH User Option Byte value.
1130:Drivers/STM32WLxx_HAL_Driver/Src/stm32wlxx_hal_flash_ex.c ****   * @retval This return value can be a combination of all the following values:
1131:Drivers/STM32WLxx_HAL_Driver/Src/stm32wlxx_hal_flash_ex.c ****   *         @arg @ref OB_BOR_LEVEL_0 or @ref OB_BOR_LEVEL_1 or ... or @ref OB_BOR_LEVEL_4
1132:Drivers/STM32WLxx_HAL_Driver/Src/stm32wlxx_hal_flash_ex.c ****   *         @arg @ref OB_STOP_RST or @ref OB_STOP_RST
1133:Drivers/STM32WLxx_HAL_Driver/Src/stm32wlxx_hal_flash_ex.c ****   *         @arg @ref OB_STANDBY_RST or @ref OB_STANDBY_NORST
1134:Drivers/STM32WLxx_HAL_Driver/Src/stm32wlxx_hal_flash_ex.c ****   *         @arg @ref OB_SHUTDOWN_RST or @ref OB_SHUTDOWN_NORST
1135:Drivers/STM32WLxx_HAL_Driver/Src/stm32wlxx_hal_flash_ex.c ****   *         @arg @ref OB_IWDG_SW or @ref OB_IWDG_HW
1136:Drivers/STM32WLxx_HAL_Driver/Src/stm32wlxx_hal_flash_ex.c ****   *         @arg @ref OB_IWDG_STOP_FREEZE or @ref OB_IWDG_STOP_RUN
ARM GAS  /tmp/cclRXqpz.s 			page 30


1137:Drivers/STM32WLxx_HAL_Driver/Src/stm32wlxx_hal_flash_ex.c ****   *         @arg @ref OB_IWDG_STDBY_FREEZE or @ref OB_IWDG_STDBY_RUN
1138:Drivers/STM32WLxx_HAL_Driver/Src/stm32wlxx_hal_flash_ex.c ****   *         @arg @ref OB_WWDG_SW or @ref OB_WWDG_HW
1139:Drivers/STM32WLxx_HAL_Driver/Src/stm32wlxx_hal_flash_ex.c ****   *         @arg @ref OB_BOOT1_RESET or @ref OB_BOOT1_SET
1140:Drivers/STM32WLxx_HAL_Driver/Src/stm32wlxx_hal_flash_ex.c ****   *         @arg @ref OB_SRAM2_PARITY_ENABLE or @ref OB_SRAM2_PARITY_DISABLE
1141:Drivers/STM32WLxx_HAL_Driver/Src/stm32wlxx_hal_flash_ex.c ****   *         @arg @ref OB_SRAM_RST_ERASE or @ref OB_SRAM_RST_NOT_ERASE
1142:Drivers/STM32WLxx_HAL_Driver/Src/stm32wlxx_hal_flash_ex.c ****   *         @arg @ref OB_BOOT0_FROM_OB or @ref OB_BOOT0_FROM_PIN
1143:Drivers/STM32WLxx_HAL_Driver/Src/stm32wlxx_hal_flash_ex.c ****   *         @arg @ref OB_BOOT0_RESET or @ref OB_BOOT0_SET
1144:Drivers/STM32WLxx_HAL_Driver/Src/stm32wlxx_hal_flash_ex.c ****   *         @arg @ref OB_BOOT_LOCK_DISABLE or @ref OB_BOOT_LOCK_ENABLE
1145:Drivers/STM32WLxx_HAL_Driver/Src/stm32wlxx_hal_flash_ex.c ****   */
1146:Drivers/STM32WLxx_HAL_Driver/Src/stm32wlxx_hal_flash_ex.c **** #endif
1147:Drivers/STM32WLxx_HAL_Driver/Src/stm32wlxx_hal_flash_ex.c **** static uint32_t FLASH_OB_GetUser(void)
1148:Drivers/STM32WLxx_HAL_Driver/Src/stm32wlxx_hal_flash_ex.c **** {
 526              		.loc 1 1148 1 is_stmt 1 view -0
 527              		.cfi_startproc
 528              		@ args = 0, pretend = 0, frame = 0
 529              		@ frame_needed = 0, uses_anonymous_args = 0
 530              		@ link register save eliminated.
1149:Drivers/STM32WLxx_HAL_Driver/Src/stm32wlxx_hal_flash_ex.c ****   uint32_t user_config = (READ_REG(FLASH->OPTR) & OB_USER_ALL);
 531              		.loc 1 1149 3 view .LVU137
 532              		.loc 1 1149 27 is_stmt 0 view .LVU138
 533 0000 024B     		ldr	r3, .L48
 534 0002 1B6A     		ldr	r3, [r3, #32]
 535              	.LVL38:
1150:Drivers/STM32WLxx_HAL_Driver/Src/stm32wlxx_hal_flash_ex.c ****   CLEAR_BIT(user_config, (FLASH_OPTR_RDP | FLASH_OPTR_ESE));
 536              		.loc 1 1150 3 is_stmt 1 view .LVU139
1151:Drivers/STM32WLxx_HAL_Driver/Src/stm32wlxx_hal_flash_ex.c **** 
1152:Drivers/STM32WLxx_HAL_Driver/Src/stm32wlxx_hal_flash_ex.c ****   return user_config;
 537              		.loc 1 1152 3 view .LVU140
1153:Drivers/STM32WLxx_HAL_Driver/Src/stm32wlxx_hal_flash_ex.c **** }
 538              		.loc 1 1153 1 is_stmt 0 view .LVU141
 539 0004 0248     		ldr	r0, .L48+4
 540 0006 1840     		ands	r0, r0, r3
 541              	.LVL39:
 542              		.loc 1 1153 1 view .LVU142
 543 0008 7047     		bx	lr
 544              	.L49:
 545 000a 00BF     		.align	2
 546              	.L48:
 547 000c 00400058 		.word	1476411392
 548 0010 007E8F4F 		.word	1334803968
 549              		.cfi_endproc
 550              	.LFE865:
 552              		.section	.text.FLASH_OB_GetPCROP,"ax",%progbits
 553              		.align	1
 554              		.syntax unified
 555              		.thumb
 556              		.thumb_func
 558              	FLASH_OB_GetPCROP:
 559              	.LVL40:
 560              	.LFB866:
1154:Drivers/STM32WLxx_HAL_Driver/Src/stm32wlxx_hal_flash_ex.c **** 
1155:Drivers/STM32WLxx_HAL_Driver/Src/stm32wlxx_hal_flash_ex.c **** /**
1156:Drivers/STM32WLxx_HAL_Driver/Src/stm32wlxx_hal_flash_ex.c ****   * @brief  Return the FLASH Write Protection Option Bytes value.
1157:Drivers/STM32WLxx_HAL_Driver/Src/stm32wlxx_hal_flash_ex.c ****   * @param PCROPConfig [out] Specifies the address where to copied the configuration of PCROP_RDP o
1158:Drivers/STM32WLxx_HAL_Driver/Src/stm32wlxx_hal_flash_ex.c ****   * @param PCROP1AStartAddr [out] Specifies the address where to copied the start address
1159:Drivers/STM32WLxx_HAL_Driver/Src/stm32wlxx_hal_flash_ex.c ****   *                         of the Zone 1A Proprietary code readout protection
1160:Drivers/STM32WLxx_HAL_Driver/Src/stm32wlxx_hal_flash_ex.c ****   * @param PCROP1AEndAddr [out] Specifies the address where to copied the end address of
ARM GAS  /tmp/cclRXqpz.s 			page 31


1161:Drivers/STM32WLxx_HAL_Driver/Src/stm32wlxx_hal_flash_ex.c ****   *                       the Zone 1A Proprietary code readout protection
1162:Drivers/STM32WLxx_HAL_Driver/Src/stm32wlxx_hal_flash_ex.c ****   * @param PCROP1BStartAddr [out] Specifies the address where to copied the start address
1163:Drivers/STM32WLxx_HAL_Driver/Src/stm32wlxx_hal_flash_ex.c ****   *                         of the Zone 1B Proprietary code readout protection
1164:Drivers/STM32WLxx_HAL_Driver/Src/stm32wlxx_hal_flash_ex.c ****   * @param PCROP1BEndAddr [out] Specifies the address where to copied the end address of
1165:Drivers/STM32WLxx_HAL_Driver/Src/stm32wlxx_hal_flash_ex.c ****   *                       the Zone 1B Proprietary code readout protection
1166:Drivers/STM32WLxx_HAL_Driver/Src/stm32wlxx_hal_flash_ex.c ****   * @retval None
1167:Drivers/STM32WLxx_HAL_Driver/Src/stm32wlxx_hal_flash_ex.c ****   */
1168:Drivers/STM32WLxx_HAL_Driver/Src/stm32wlxx_hal_flash_ex.c **** static void FLASH_OB_GetPCROP(uint32_t *PCROPConfig, uint32_t *PCROP1AStartAddr, uint32_t *PCROP1AE
1169:Drivers/STM32WLxx_HAL_Driver/Src/stm32wlxx_hal_flash_ex.c ****                               uint32_t *PCROP1BStartAddr, uint32_t *PCROP1BEndAddr)
1170:Drivers/STM32WLxx_HAL_Driver/Src/stm32wlxx_hal_flash_ex.c **** {
 561              		.loc 1 1170 1 is_stmt 1 view -0
 562              		.cfi_startproc
 563              		@ args = 4, pretend = 0, frame = 0
 564              		@ frame_needed = 0, uses_anonymous_args = 0
 565              		@ link register save eliminated.
 566              		.loc 1 1170 1 is_stmt 0 view .LVU144
 567 0000 30B4     		push	{r4, r5}
 568              		.cfi_def_cfa_offset 8
 569              		.cfi_offset 4, -8
 570              		.cfi_offset 5, -4
1171:Drivers/STM32WLxx_HAL_Driver/Src/stm32wlxx_hal_flash_ex.c ****   uint32_t pcrop;
 571              		.loc 1 1171 3 is_stmt 1 view .LVU145
1172:Drivers/STM32WLxx_HAL_Driver/Src/stm32wlxx_hal_flash_ex.c **** 
1173:Drivers/STM32WLxx_HAL_Driver/Src/stm32wlxx_hal_flash_ex.c ****   pcrop             = (READ_BIT(FLASH->PCROP1BSR, FLASH_PCROP1BSR_PCROP1B_STRT));
 572              		.loc 1 1173 3 view .LVU146
 573              		.loc 1 1173 24 is_stmt 0 view .LVU147
 574 0002 124C     		ldr	r4, .L52
 575 0004 656B     		ldr	r5, [r4, #52]
 576              	.LVL41:
1174:Drivers/STM32WLxx_HAL_Driver/Src/stm32wlxx_hal_flash_ex.c ****   *PCROP1BStartAddr = ((pcrop << FLASH_PCROP_GRANULARITY_OFFSET) + FLASH_BASE);
 577              		.loc 1 1174 3 is_stmt 1 view .LVU148
 578              		.loc 1 1174 31 is_stmt 0 view .LVU149
 579 0006 AD02     		lsls	r5, r5, #10
 580              	.LVL42:
 581              		.loc 1 1174 31 view .LVU150
 582 0008 05F47F35 		and	r5, r5, #261120
 583              		.loc 1 1174 66 view .LVU151
 584 000c 05F10065 		add	r5, r5, #134217728
 585              		.loc 1 1174 21 view .LVU152
 586 0010 1D60     		str	r5, [r3]
1175:Drivers/STM32WLxx_HAL_Driver/Src/stm32wlxx_hal_flash_ex.c **** 
1176:Drivers/STM32WLxx_HAL_Driver/Src/stm32wlxx_hal_flash_ex.c ****   pcrop             = (READ_BIT(FLASH->PCROP1BER, FLASH_PCROP1BER_PCROP1B_END));
 587              		.loc 1 1176 3 is_stmt 1 view .LVU153
 588              		.loc 1 1176 24 is_stmt 0 view .LVU154
 589 0012 A36B     		ldr	r3, [r4, #56]
 590              	.LVL43:
1177:Drivers/STM32WLxx_HAL_Driver/Src/stm32wlxx_hal_flash_ex.c ****   *PCROP1BEndAddr   = ((pcrop << FLASH_PCROP_GRANULARITY_OFFSET) + FLASH_BASE);
 591              		.loc 1 1177 3 is_stmt 1 view .LVU155
 592              		.loc 1 1177 31 is_stmt 0 view .LVU156
 593 0014 9B02     		lsls	r3, r3, #10
 594              	.LVL44:
 595              		.loc 1 1177 31 view .LVU157
 596 0016 03F47F33 		and	r3, r3, #261120
 597              		.loc 1 1177 66 view .LVU158
 598 001a 03F10063 		add	r3, r3, #134217728
 599              		.loc 1 1177 21 view .LVU159
 600 001e 029D     		ldr	r5, [sp, #8]
ARM GAS  /tmp/cclRXqpz.s 			page 32


 601 0020 2B60     		str	r3, [r5]
1178:Drivers/STM32WLxx_HAL_Driver/Src/stm32wlxx_hal_flash_ex.c **** 
1179:Drivers/STM32WLxx_HAL_Driver/Src/stm32wlxx_hal_flash_ex.c ****   pcrop             = (READ_BIT(FLASH->PCROP1ASR, FLASH_PCROP1ASR_PCROP1A_STRT));
 602              		.loc 1 1179 3 is_stmt 1 view .LVU160
 603              		.loc 1 1179 24 is_stmt 0 view .LVU161
 604 0022 636A     		ldr	r3, [r4, #36]
 605              	.LVL45:
1180:Drivers/STM32WLxx_HAL_Driver/Src/stm32wlxx_hal_flash_ex.c ****   *PCROP1AStartAddr = ((pcrop << FLASH_PCROP_GRANULARITY_OFFSET) + FLASH_BASE);
 606              		.loc 1 1180 3 is_stmt 1 view .LVU162
 607              		.loc 1 1180 31 is_stmt 0 view .LVU163
 608 0024 9B02     		lsls	r3, r3, #10
 609              	.LVL46:
 610              		.loc 1 1180 31 view .LVU164
 611 0026 03F47F33 		and	r3, r3, #261120
 612              		.loc 1 1180 66 view .LVU165
 613 002a 03F10063 		add	r3, r3, #134217728
 614              		.loc 1 1180 21 view .LVU166
 615 002e 0B60     		str	r3, [r1]
1181:Drivers/STM32WLxx_HAL_Driver/Src/stm32wlxx_hal_flash_ex.c **** 
1182:Drivers/STM32WLxx_HAL_Driver/Src/stm32wlxx_hal_flash_ex.c ****   pcrop             = (READ_BIT(FLASH->PCROP1AER, FLASH_PCROP1AER_PCROP1A_END));
 616              		.loc 1 1182 3 is_stmt 1 view .LVU167
 617              		.loc 1 1182 24 is_stmt 0 view .LVU168
 618 0030 A36A     		ldr	r3, [r4, #40]
 619              	.LVL47:
1183:Drivers/STM32WLxx_HAL_Driver/Src/stm32wlxx_hal_flash_ex.c ****   *PCROP1AEndAddr   = ((pcrop << FLASH_PCROP_GRANULARITY_OFFSET) + FLASH_BASE);
 620              		.loc 1 1183 3 is_stmt 1 view .LVU169
 621              		.loc 1 1183 31 is_stmt 0 view .LVU170
 622 0032 9B02     		lsls	r3, r3, #10
 623              	.LVL48:
 624              		.loc 1 1183 31 view .LVU171
 625 0034 03F47F33 		and	r3, r3, #261120
 626              		.loc 1 1183 66 view .LVU172
 627 0038 03F10063 		add	r3, r3, #134217728
 628              		.loc 1 1183 21 view .LVU173
 629 003c 1360     		str	r3, [r2]
1184:Drivers/STM32WLxx_HAL_Driver/Src/stm32wlxx_hal_flash_ex.c **** 
1185:Drivers/STM32WLxx_HAL_Driver/Src/stm32wlxx_hal_flash_ex.c ****   *PCROPConfig      = (READ_REG(FLASH->PCROP1AER) & FLASH_PCROP1AER_PCROP_RDP);
 630              		.loc 1 1185 3 is_stmt 1 view .LVU174
 631              		.loc 1 1185 24 is_stmt 0 view .LVU175
 632 003e A36A     		ldr	r3, [r4, #40]
 633              		.loc 1 1185 51 view .LVU176
 634 0040 03F00043 		and	r3, r3, #-2147483648
 635              		.loc 1 1185 21 view .LVU177
 636 0044 0360     		str	r3, [r0]
1186:Drivers/STM32WLxx_HAL_Driver/Src/stm32wlxx_hal_flash_ex.c **** }
 637              		.loc 1 1186 1 view .LVU178
 638 0046 30BC     		pop	{r4, r5}
 639              		.cfi_restore 5
 640              		.cfi_restore 4
 641              		.cfi_def_cfa_offset 0
 642              	.LVL49:
 643              		.loc 1 1186 1 view .LVU179
 644 0048 7047     		bx	lr
 645              	.L53:
 646 004a 00BF     		.align	2
 647              	.L52:
 648 004c 00400058 		.word	1476411392
ARM GAS  /tmp/cclRXqpz.s 			page 33


 649              		.cfi_endproc
 650              	.LFE866:
 652              		.section	.text.FLASH_OB_ProceedWriteOperation,"ax",%progbits
 653              		.align	1
 654              		.syntax unified
 655              		.thumb
 656              		.thumb_func
 658              	FLASH_OB_ProceedWriteOperation:
 659              	.LFB867:
1187:Drivers/STM32WLxx_HAL_Driver/Src/stm32wlxx_hal_flash_ex.c **** 
1188:Drivers/STM32WLxx_HAL_Driver/Src/stm32wlxx_hal_flash_ex.c **** #if defined(DUAL_CORE)
1189:Drivers/STM32WLxx_HAL_Driver/Src/stm32wlxx_hal_flash_ex.c **** /**
1190:Drivers/STM32WLxx_HAL_Driver/Src/stm32wlxx_hal_flash_ex.c ****   * @brief  Return the FLASH IPCC data buffer base address Option Byte value.
1191:Drivers/STM32WLxx_HAL_Driver/Src/stm32wlxx_hal_flash_ex.c ****   * @retval Returned value is the address where to copied the IPCC data buffer address.
1192:Drivers/STM32WLxx_HAL_Driver/Src/stm32wlxx_hal_flash_ex.c ****   *           Value return between Min_Data = 0x0 and Max_Data = 0x3FFF
1193:Drivers/STM32WLxx_HAL_Driver/Src/stm32wlxx_hal_flash_ex.c ****   *           This value correspond to the first double-word of the IPCC mailbox data buffer area
1194:Drivers/STM32WLxx_HAL_Driver/Src/stm32wlxx_hal_flash_ex.c ****   *           in SRAM starting from 0x20000000 (SRAM1 start address to SRAM2 end address).
1195:Drivers/STM32WLxx_HAL_Driver/Src/stm32wlxx_hal_flash_ex.c ****   */
1196:Drivers/STM32WLxx_HAL_Driver/Src/stm32wlxx_hal_flash_ex.c **** static uint32_t FLASH_OB_GetIPCCBufferAddr(void)
1197:Drivers/STM32WLxx_HAL_Driver/Src/stm32wlxx_hal_flash_ex.c **** {
1198:Drivers/STM32WLxx_HAL_Driver/Src/stm32wlxx_hal_flash_ex.c ****   return (uint32_t)((READ_BIT(FLASH->IPCCBR, FLASH_IPCCBR_IPCCDBA) << 4) + SRAM1_BASE);
1199:Drivers/STM32WLxx_HAL_Driver/Src/stm32wlxx_hal_flash_ex.c **** }
1200:Drivers/STM32WLxx_HAL_Driver/Src/stm32wlxx_hal_flash_ex.c **** 
1201:Drivers/STM32WLxx_HAL_Driver/Src/stm32wlxx_hal_flash_ex.c **** /**
1202:Drivers/STM32WLxx_HAL_Driver/Src/stm32wlxx_hal_flash_ex.c ****   * @brief  Return the Secure Flash start address, Secure Hide Protection Area start address, Secur
1203:Drivers/STM32WLxx_HAL_Driver/Src/stm32wlxx_hal_flash_ex.c ****   *                     Secure non-Backup SRAM1 start address and the SecureMode
1204:Drivers/STM32WLxx_HAL_Driver/Src/stm32wlxx_hal_flash_ex.c ****   * @param  SecureFlashStartAddr  Specifies the address where to copied the Secure Flash start addr
1205:Drivers/STM32WLxx_HAL_Driver/Src/stm32wlxx_hal_flash_ex.c ****   * @param  HideProtectionStartAddr Specifies the address where to copied the Secure Hide Protectio
1206:Drivers/STM32WLxx_HAL_Driver/Src/stm32wlxx_hal_flash_ex.c ****   * @param  SecureSRAM2StartAddr  Specifies the address where to copied the Secure Backup SRAM2 sta
1207:Drivers/STM32WLxx_HAL_Driver/Src/stm32wlxx_hal_flash_ex.c ****   * @param  SecureSRAM1StartAddr  Specifies the address where to copied the Secure non-Backup SRAM1
1208:Drivers/STM32WLxx_HAL_Driver/Src/stm32wlxx_hal_flash_ex.c ****   * @param  SecureMode            Specifies the Secure area enabled or disabled.
1209:Drivers/STM32WLxx_HAL_Driver/Src/stm32wlxx_hal_flash_ex.c ****   *                               This return value can be one of the following values:
1210:Drivers/STM32WLxx_HAL_Driver/Src/stm32wlxx_hal_flash_ex.c ****   *                               @arg @ref OB_SECURE_SYSTEM_AND_ALL_AREAS_DISABLE : All System Sec
1211:Drivers/STM32WLxx_HAL_Driver/Src/stm32wlxx_hal_flash_ex.c ****   *                               @arg @ref OB_SECURE_SYSTEM_AND_FLASH_ENABLE : Flash Security enab
1212:Drivers/STM32WLxx_HAL_Driver/Src/stm32wlxx_hal_flash_ex.c ****   *                               @arg @ref OB_SECURE_HIDE_PROTECTION_ENABLE : Hide Protection Secu
1213:Drivers/STM32WLxx_HAL_Driver/Src/stm32wlxx_hal_flash_ex.c ****   *                               @arg @ref OB_SECURE_SRAM1_ENABLE : SRAM1 Security enabled
1214:Drivers/STM32WLxx_HAL_Driver/Src/stm32wlxx_hal_flash_ex.c ****   *                               @arg @ref OB_SECURE_SRAM2_ENABLE : SRAM2 Security enabled
1215:Drivers/STM32WLxx_HAL_Driver/Src/stm32wlxx_hal_flash_ex.c ****   *                               @arg @ref OB_SECURE_SYSTEM_AND_FLASH_DISABLE : Flash Security dis
1216:Drivers/STM32WLxx_HAL_Driver/Src/stm32wlxx_hal_flash_ex.c ****   *                               @arg @ref OB_SECURE_HIDE_PROTECTION_DISABLE : Hide Protection Sec
1217:Drivers/STM32WLxx_HAL_Driver/Src/stm32wlxx_hal_flash_ex.c ****   *                               @arg @ref OB_SECURE_SRAM1_DISABLE : SRAM1 Security disabled
1218:Drivers/STM32WLxx_HAL_Driver/Src/stm32wlxx_hal_flash_ex.c ****   *                               @arg @ref OB_SECURE_SRAM2_DISABLE : SRAM2 Security disabled
1219:Drivers/STM32WLxx_HAL_Driver/Src/stm32wlxx_hal_flash_ex.c ****   *                               @arg @ref OB_SECURE_SYSTEM_AND_ALL_AREAS_ENABLE : All System Secu
1220:Drivers/STM32WLxx_HAL_Driver/Src/stm32wlxx_hal_flash_ex.c ****   * @retval None
1221:Drivers/STM32WLxx_HAL_Driver/Src/stm32wlxx_hal_flash_ex.c ****   */
1222:Drivers/STM32WLxx_HAL_Driver/Src/stm32wlxx_hal_flash_ex.c **** static void FLASH_OB_GetSecureMemoryConfig(uint32_t *SecureFlashStartAddr, uint32_t *HideProtection
1223:Drivers/STM32WLxx_HAL_Driver/Src/stm32wlxx_hal_flash_ex.c ****                                            uint32_t *SecureSRAM2StartAddr, uint32_t *SecureSRAM1Sta
1224:Drivers/STM32WLxx_HAL_Driver/Src/stm32wlxx_hal_flash_ex.c **** {
1225:Drivers/STM32WLxx_HAL_Driver/Src/stm32wlxx_hal_flash_ex.c ****   uint32_t sfr_reg_val = READ_REG(FLASH->SFR);
1226:Drivers/STM32WLxx_HAL_Driver/Src/stm32wlxx_hal_flash_ex.c ****   uint32_t srrvr_reg_val = READ_REG(FLASH->SRRVR);
1227:Drivers/STM32WLxx_HAL_Driver/Src/stm32wlxx_hal_flash_ex.c **** 
1228:Drivers/STM32WLxx_HAL_Driver/Src/stm32wlxx_hal_flash_ex.c ****   /* Get Secure Flash start address */
1229:Drivers/STM32WLxx_HAL_Driver/Src/stm32wlxx_hal_flash_ex.c ****   uint32_t user_config = (READ_BIT(sfr_reg_val, FLASH_SFR_SFSA) >> FLASH_SFR_SFSA_Pos);
1230:Drivers/STM32WLxx_HAL_Driver/Src/stm32wlxx_hal_flash_ex.c **** 
1231:Drivers/STM32WLxx_HAL_Driver/Src/stm32wlxx_hal_flash_ex.c ****   *SecureFlashStartAddr = ((user_config * FLASH_PAGE_SIZE) + FLASH_BASE);
1232:Drivers/STM32WLxx_HAL_Driver/Src/stm32wlxx_hal_flash_ex.c **** 
1233:Drivers/STM32WLxx_HAL_Driver/Src/stm32wlxx_hal_flash_ex.c ****   /* Get Hide Protection Area start address */
1234:Drivers/STM32WLxx_HAL_Driver/Src/stm32wlxx_hal_flash_ex.c ****   user_config = (READ_BIT(sfr_reg_val, FLASH_SFR_HDPSA) >> FLASH_SFR_HDPSA_Pos);
ARM GAS  /tmp/cclRXqpz.s 			page 34


1235:Drivers/STM32WLxx_HAL_Driver/Src/stm32wlxx_hal_flash_ex.c **** 
1236:Drivers/STM32WLxx_HAL_Driver/Src/stm32wlxx_hal_flash_ex.c ****   *HideProtectionStartAddr = ((user_config * FLASH_PAGE_SIZE) + FLASH_BASE);
1237:Drivers/STM32WLxx_HAL_Driver/Src/stm32wlxx_hal_flash_ex.c **** 
1238:Drivers/STM32WLxx_HAL_Driver/Src/stm32wlxx_hal_flash_ex.c ****   /* Get Secure SRAM2 start address */
1239:Drivers/STM32WLxx_HAL_Driver/Src/stm32wlxx_hal_flash_ex.c ****   user_config = (READ_BIT(srrvr_reg_val, FLASH_SRRVR_SBRSA) >> FLASH_SRRVR_SBRSA_Pos);
1240:Drivers/STM32WLxx_HAL_Driver/Src/stm32wlxx_hal_flash_ex.c **** 
1241:Drivers/STM32WLxx_HAL_Driver/Src/stm32wlxx_hal_flash_ex.c ****   *SecureSRAM2StartAddr = ((user_config << SRAM_SECURE_PAGE_GRANULARITY_OFFSET) + SRAM2_BASE);
1242:Drivers/STM32WLxx_HAL_Driver/Src/stm32wlxx_hal_flash_ex.c **** 
1243:Drivers/STM32WLxx_HAL_Driver/Src/stm32wlxx_hal_flash_ex.c ****   /* Get Secure SRAM1 start address */
1244:Drivers/STM32WLxx_HAL_Driver/Src/stm32wlxx_hal_flash_ex.c ****   user_config = (READ_BIT(srrvr_reg_val, FLASH_SRRVR_SNBRSA) >> FLASH_SRRVR_SNBRSA_Pos);
1245:Drivers/STM32WLxx_HAL_Driver/Src/stm32wlxx_hal_flash_ex.c **** 
1246:Drivers/STM32WLxx_HAL_Driver/Src/stm32wlxx_hal_flash_ex.c ****   *SecureSRAM1StartAddr = ((user_config << SRAM_SECURE_PAGE_GRANULARITY_OFFSET) + SRAM1_BASE);
1247:Drivers/STM32WLxx_HAL_Driver/Src/stm32wlxx_hal_flash_ex.c **** 
1248:Drivers/STM32WLxx_HAL_Driver/Src/stm32wlxx_hal_flash_ex.c ****   /* Get Secure Area mode */
1249:Drivers/STM32WLxx_HAL_Driver/Src/stm32wlxx_hal_flash_ex.c ****   *SecureMode = (FLASH_OB_GetSecureMode(sfr_reg_val, FLASH_SFR_FSD, OB_SECURE_SYSTEM_AND_FLASH_ENAB
1250:Drivers/STM32WLxx_HAL_Driver/Src/stm32wlxx_hal_flash_ex.c ****                  FLASH_OB_GetSecureMode(sfr_reg_val, FLASH_SFR_HDPAD, OB_SECURE_HIDE_PROTECTION_ENA
1251:Drivers/STM32WLxx_HAL_Driver/Src/stm32wlxx_hal_flash_ex.c ****                                         OB_SECURE_HIDE_PROTECTION_DISABLE) | \
1252:Drivers/STM32WLxx_HAL_Driver/Src/stm32wlxx_hal_flash_ex.c ****                  FLASH_OB_GetSecureMode(srrvr_reg_val, FLASH_SRRVR_NBRSD, OB_SECURE_SRAM1_ENABLE,
1253:Drivers/STM32WLxx_HAL_Driver/Src/stm32wlxx_hal_flash_ex.c ****                                         OB_SECURE_SRAM1_DISABLE)                 | \
1254:Drivers/STM32WLxx_HAL_Driver/Src/stm32wlxx_hal_flash_ex.c ****                  FLASH_OB_GetSecureMode(srrvr_reg_val, FLASH_SRRVR_BRSD, OB_SECURE_SRAM2_ENABLE, OB
1255:Drivers/STM32WLxx_HAL_Driver/Src/stm32wlxx_hal_flash_ex.c **** }
1256:Drivers/STM32WLxx_HAL_Driver/Src/stm32wlxx_hal_flash_ex.c **** 
1257:Drivers/STM32WLxx_HAL_Driver/Src/stm32wlxx_hal_flash_ex.c **** /**
1258:Drivers/STM32WLxx_HAL_Driver/Src/stm32wlxx_hal_flash_ex.c ****   * @brief  Return the CPU2 Secure Boot reset vector address and the CPU2 Secure Boot Region
1259:Drivers/STM32WLxx_HAL_Driver/Src/stm32wlxx_hal_flash_ex.c ****   * @param  C2BootResetVectAddr Specifies the address where to copied the CPU2 Secure Boot reset ve
1260:Drivers/STM32WLxx_HAL_Driver/Src/stm32wlxx_hal_flash_ex.c ****   * @param  C2BootResetRegion   Specifies the Secure Boot reset memory region
1261:Drivers/STM32WLxx_HAL_Driver/Src/stm32wlxx_hal_flash_ex.c ****   * @retval None
1262:Drivers/STM32WLxx_HAL_Driver/Src/stm32wlxx_hal_flash_ex.c ****   */
1263:Drivers/STM32WLxx_HAL_Driver/Src/stm32wlxx_hal_flash_ex.c **** static void FLASH_OB_GetC2BootResetConfig(uint32_t *C2BootResetVectAddr, uint32_t *C2BootResetRegio
1264:Drivers/STM32WLxx_HAL_Driver/Src/stm32wlxx_hal_flash_ex.c **** {
1265:Drivers/STM32WLxx_HAL_Driver/Src/stm32wlxx_hal_flash_ex.c ****   *C2BootResetRegion = (READ_BIT(FLASH->SRRVR, FLASH_SRRVR_C2OPT));
1266:Drivers/STM32WLxx_HAL_Driver/Src/stm32wlxx_hal_flash_ex.c **** 
1267:Drivers/STM32WLxx_HAL_Driver/Src/stm32wlxx_hal_flash_ex.c ****   if (*C2BootResetRegion == OB_C2_BOOT_FROM_FLASH)
1268:Drivers/STM32WLxx_HAL_Driver/Src/stm32wlxx_hal_flash_ex.c ****   {
1269:Drivers/STM32WLxx_HAL_Driver/Src/stm32wlxx_hal_flash_ex.c ****     *C2BootResetVectAddr = (uint32_t)((READ_BIT(FLASH->SRRVR, FLASH_SRRVR_SBRV) << 2) + FLASH_BASE)
1270:Drivers/STM32WLxx_HAL_Driver/Src/stm32wlxx_hal_flash_ex.c ****   }
1271:Drivers/STM32WLxx_HAL_Driver/Src/stm32wlxx_hal_flash_ex.c ****   else
1272:Drivers/STM32WLxx_HAL_Driver/Src/stm32wlxx_hal_flash_ex.c ****   {
1273:Drivers/STM32WLxx_HAL_Driver/Src/stm32wlxx_hal_flash_ex.c ****     *C2BootResetVectAddr = (uint32_t)((READ_BIT(FLASH->SRRVR, FLASH_SRRVR_SBRV) << 2) + SRAM1_BASE)
1274:Drivers/STM32WLxx_HAL_Driver/Src/stm32wlxx_hal_flash_ex.c ****   }
1275:Drivers/STM32WLxx_HAL_Driver/Src/stm32wlxx_hal_flash_ex.c **** }
1276:Drivers/STM32WLxx_HAL_Driver/Src/stm32wlxx_hal_flash_ex.c **** 
1277:Drivers/STM32WLxx_HAL_Driver/Src/stm32wlxx_hal_flash_ex.c **** /**
1278:Drivers/STM32WLxx_HAL_Driver/Src/stm32wlxx_hal_flash_ex.c ****   * @brief  Return the Sub-GHz radio SPI Secure Access mode
1279:Drivers/STM32WLxx_HAL_Driver/Src/stm32wlxx_hal_flash_ex.c ****   * @retval Returned value can be one of the following values:
1280:Drivers/STM32WLxx_HAL_Driver/Src/stm32wlxx_hal_flash_ex.c ****   *           @arg @ref OB_SUBGHZSPI_SECURE_ACCESS_DISABLE : Sub-GHz radio SPI Secure access disabl
1281:Drivers/STM32WLxx_HAL_Driver/Src/stm32wlxx_hal_flash_ex.c ****   *           @arg @ref OB_SUBGHZSPI_SECURE_ACCESS_ENABLE : Sub-GHz radio SPI Secure access enabled
1282:Drivers/STM32WLxx_HAL_Driver/Src/stm32wlxx_hal_flash_ex.c ****   */
1283:Drivers/STM32WLxx_HAL_Driver/Src/stm32wlxx_hal_flash_ex.c **** static uint32_t FLASH_OB_GetSUBGHZSPISecureAccess(void)
1284:Drivers/STM32WLxx_HAL_Driver/Src/stm32wlxx_hal_flash_ex.c **** {
1285:Drivers/STM32WLxx_HAL_Driver/Src/stm32wlxx_hal_flash_ex.c ****   return (READ_BIT(FLASH->SFR, FLASH_SFR_SUBGHZSPISD));
1286:Drivers/STM32WLxx_HAL_Driver/Src/stm32wlxx_hal_flash_ex.c **** }
1287:Drivers/STM32WLxx_HAL_Driver/Src/stm32wlxx_hal_flash_ex.c **** 
1288:Drivers/STM32WLxx_HAL_Driver/Src/stm32wlxx_hal_flash_ex.c **** /**
1289:Drivers/STM32WLxx_HAL_Driver/Src/stm32wlxx_hal_flash_ex.c ****   * @brief  Return the CPU2 Debug Access mode
1290:Drivers/STM32WLxx_HAL_Driver/Src/stm32wlxx_hal_flash_ex.c ****   * @retval Returned value can be one of the following values:
1291:Drivers/STM32WLxx_HAL_Driver/Src/stm32wlxx_hal_flash_ex.c ****   *           @arg @ref OB_C2_DEBUG_ACCESS_DISABLE : CPU2 debug access disabled
ARM GAS  /tmp/cclRXqpz.s 			page 35


1292:Drivers/STM32WLxx_HAL_Driver/Src/stm32wlxx_hal_flash_ex.c ****   *           @arg @ref OB_C2_DEBUG_ACCESS_ENABLE : CPU2 debug access enabled
1293:Drivers/STM32WLxx_HAL_Driver/Src/stm32wlxx_hal_flash_ex.c ****   */
1294:Drivers/STM32WLxx_HAL_Driver/Src/stm32wlxx_hal_flash_ex.c **** static uint32_t FLASH_OB_GetC2DebugAccessMode(void)
1295:Drivers/STM32WLxx_HAL_Driver/Src/stm32wlxx_hal_flash_ex.c **** {
1296:Drivers/STM32WLxx_HAL_Driver/Src/stm32wlxx_hal_flash_ex.c ****   return (READ_BIT(FLASH->SFR, FLASH_SFR_DDS));
1297:Drivers/STM32WLxx_HAL_Driver/Src/stm32wlxx_hal_flash_ex.c **** }
1298:Drivers/STM32WLxx_HAL_Driver/Src/stm32wlxx_hal_flash_ex.c **** #endif /* DUAL_CORE */
1299:Drivers/STM32WLxx_HAL_Driver/Src/stm32wlxx_hal_flash_ex.c **** 
1300:Drivers/STM32WLxx_HAL_Driver/Src/stm32wlxx_hal_flash_ex.c **** /**
1301:Drivers/STM32WLxx_HAL_Driver/Src/stm32wlxx_hal_flash_ex.c ****   * @brief  Proceed the OB Write Operation.
1302:Drivers/STM32WLxx_HAL_Driver/Src/stm32wlxx_hal_flash_ex.c ****   * @retval HAL Status
1303:Drivers/STM32WLxx_HAL_Driver/Src/stm32wlxx_hal_flash_ex.c ****   */
1304:Drivers/STM32WLxx_HAL_Driver/Src/stm32wlxx_hal_flash_ex.c **** static HAL_StatusTypeDef FLASH_OB_ProceedWriteOperation(void)
1305:Drivers/STM32WLxx_HAL_Driver/Src/stm32wlxx_hal_flash_ex.c **** {
 660              		.loc 1 1305 1 is_stmt 1 view -0
 661              		.cfi_startproc
 662              		@ args = 0, pretend = 0, frame = 0
 663              		@ frame_needed = 0, uses_anonymous_args = 0
 664 0000 08B5     		push	{r3, lr}
 665              		.cfi_def_cfa_offset 8
 666              		.cfi_offset 3, -8
 667              		.cfi_offset 14, -4
1306:Drivers/STM32WLxx_HAL_Driver/Src/stm32wlxx_hal_flash_ex.c ****   HAL_StatusTypeDef status;
 668              		.loc 1 1306 3 view .LVU181
1307:Drivers/STM32WLxx_HAL_Driver/Src/stm32wlxx_hal_flash_ex.c **** 
1308:Drivers/STM32WLxx_HAL_Driver/Src/stm32wlxx_hal_flash_ex.c ****   /* Verify that next operation can be proceed */
1309:Drivers/STM32WLxx_HAL_Driver/Src/stm32wlxx_hal_flash_ex.c ****   status = FLASH_WaitForLastOperation(FLASH_TIMEOUT_VALUE);
 669              		.loc 1 1309 3 view .LVU182
 670              		.loc 1 1309 12 is_stmt 0 view .LVU183
 671 0002 4FF47A70 		mov	r0, #1000
 672 0006 FFF7FEFF 		bl	FLASH_WaitForLastOperation
 673              	.LVL50:
1310:Drivers/STM32WLxx_HAL_Driver/Src/stm32wlxx_hal_flash_ex.c **** 
1311:Drivers/STM32WLxx_HAL_Driver/Src/stm32wlxx_hal_flash_ex.c ****   if (status == HAL_OK)
 674              		.loc 1 1311 3 is_stmt 1 view .LVU184
 675              		.loc 1 1311 6 is_stmt 0 view .LVU185
 676 000a 00B1     		cbz	r0, .L57
 677              	.L55:
 678              	.LVL51:
1312:Drivers/STM32WLxx_HAL_Driver/Src/stm32wlxx_hal_flash_ex.c ****   {
1313:Drivers/STM32WLxx_HAL_Driver/Src/stm32wlxx_hal_flash_ex.c ****     /* Set OPTSTRT Bit */
1314:Drivers/STM32WLxx_HAL_Driver/Src/stm32wlxx_hal_flash_ex.c ****     SET_BIT(FLASH->CR, FLASH_CR_OPTSTRT);
1315:Drivers/STM32WLxx_HAL_Driver/Src/stm32wlxx_hal_flash_ex.c **** 
1316:Drivers/STM32WLxx_HAL_Driver/Src/stm32wlxx_hal_flash_ex.c ****     /* Wait for last operation to be completed */
1317:Drivers/STM32WLxx_HAL_Driver/Src/stm32wlxx_hal_flash_ex.c ****     status = FLASH_WaitForLastOperation(FLASH_TIMEOUT_VALUE);
1318:Drivers/STM32WLxx_HAL_Driver/Src/stm32wlxx_hal_flash_ex.c ****   }
1319:Drivers/STM32WLxx_HAL_Driver/Src/stm32wlxx_hal_flash_ex.c **** 
1320:Drivers/STM32WLxx_HAL_Driver/Src/stm32wlxx_hal_flash_ex.c ****   return status;
 679              		.loc 1 1320 3 is_stmt 1 view .LVU186
1321:Drivers/STM32WLxx_HAL_Driver/Src/stm32wlxx_hal_flash_ex.c **** }
 680              		.loc 1 1321 1 is_stmt 0 view .LVU187
 681 000c 08BD     		pop	{r3, pc}
 682              	.LVL52:
 683              	.L57:
1314:Drivers/STM32WLxx_HAL_Driver/Src/stm32wlxx_hal_flash_ex.c **** 
 684              		.loc 1 1314 5 is_stmt 1 view .LVU188
 685 000e 054A     		ldr	r2, .L58
ARM GAS  /tmp/cclRXqpz.s 			page 36


 686 0010 5369     		ldr	r3, [r2, #20]
 687 0012 43F40033 		orr	r3, r3, #131072
 688 0016 5361     		str	r3, [r2, #20]
1317:Drivers/STM32WLxx_HAL_Driver/Src/stm32wlxx_hal_flash_ex.c ****   }
 689              		.loc 1 1317 5 view .LVU189
1317:Drivers/STM32WLxx_HAL_Driver/Src/stm32wlxx_hal_flash_ex.c ****   }
 690              		.loc 1 1317 14 is_stmt 0 view .LVU190
 691 0018 4FF47A70 		mov	r0, #1000
 692 001c FFF7FEFF 		bl	FLASH_WaitForLastOperation
 693              	.LVL53:
 694 0020 F4E7     		b	.L55
 695              	.L59:
 696 0022 00BF     		.align	2
 697              	.L58:
 698 0024 00400058 		.word	1476411392
 699              		.cfi_endproc
 700              	.LFE867:
 702              		.section	.text.HAL_FLASHEx_OBProgram,"ax",%progbits
 703              		.align	1
 704              		.global	HAL_FLASHEx_OBProgram
 705              		.syntax unified
 706              		.thumb
 707              		.thumb_func
 709              	HAL_FLASHEx_OBProgram:
 710              	.LVL54:
 711              	.LFB848:
 317:Drivers/STM32WLxx_HAL_Driver/Src/stm32wlxx_hal_flash_ex.c ****   uint32_t optr;
 712              		.loc 1 317 1 is_stmt 1 view -0
 713              		.cfi_startproc
 714              		@ args = 0, pretend = 0, frame = 0
 715              		@ frame_needed = 0, uses_anonymous_args = 0
 318:Drivers/STM32WLxx_HAL_Driver/Src/stm32wlxx_hal_flash_ex.c ****   HAL_StatusTypeDef status;
 716              		.loc 1 318 3 view .LVU192
 319:Drivers/STM32WLxx_HAL_Driver/Src/stm32wlxx_hal_flash_ex.c **** 
 717              		.loc 1 319 3 view .LVU193
 322:Drivers/STM32WLxx_HAL_Driver/Src/stm32wlxx_hal_flash_ex.c **** 
 718              		.loc 1 322 3 view .LVU194
 325:Drivers/STM32WLxx_HAL_Driver/Src/stm32wlxx_hal_flash_ex.c **** 
 719              		.loc 1 325 3 view .LVU195
 325:Drivers/STM32WLxx_HAL_Driver/Src/stm32wlxx_hal_flash_ex.c **** 
 720              		.loc 1 325 3 view .LVU196
 721 0000 2A4B     		ldr	r3, .L79
 722 0002 1B78     		ldrb	r3, [r3]	@ zero_extendqisi2
 723 0004 012B     		cmp	r3, #1
 724 0006 4ED0     		beq	.L68
 317:Drivers/STM32WLxx_HAL_Driver/Src/stm32wlxx_hal_flash_ex.c ****   uint32_t optr;
 725              		.loc 1 317 1 is_stmt 0 view .LVU197
 726 0008 10B5     		push	{r4, lr}
 727              		.cfi_def_cfa_offset 8
 728              		.cfi_offset 4, -8
 729              		.cfi_offset 14, -4
 730 000a 0446     		mov	r4, r0
 325:Drivers/STM32WLxx_HAL_Driver/Src/stm32wlxx_hal_flash_ex.c **** 
 731              		.loc 1 325 3 is_stmt 1 discriminator 2 view .LVU198
 732 000c 274B     		ldr	r3, .L79
 733 000e 0122     		movs	r2, #1
 734 0010 1A70     		strb	r2, [r3]
ARM GAS  /tmp/cclRXqpz.s 			page 37


 325:Drivers/STM32WLxx_HAL_Driver/Src/stm32wlxx_hal_flash_ex.c **** 
 735              		.loc 1 325 3 view .LVU199
 327:Drivers/STM32WLxx_HAL_Driver/Src/stm32wlxx_hal_flash_ex.c **** 
 736              		.loc 1 327 3 view .LVU200
 327:Drivers/STM32WLxx_HAL_Driver/Src/stm32wlxx_hal_flash_ex.c **** 
 737              		.loc 1 327 20 is_stmt 0 view .LVU201
 738 0012 0022     		movs	r2, #0
 739 0014 5A60     		str	r2, [r3, #4]
 330:Drivers/STM32WLxx_HAL_Driver/Src/stm32wlxx_hal_flash_ex.c ****   {
 740              		.loc 1 330 3 is_stmt 1 view .LVU202
 330:Drivers/STM32WLxx_HAL_Driver/Src/stm32wlxx_hal_flash_ex.c ****   {
 741              		.loc 1 330 15 is_stmt 0 view .LVU203
 742 0016 0368     		ldr	r3, [r0]
 330:Drivers/STM32WLxx_HAL_Driver/Src/stm32wlxx_hal_flash_ex.c ****   {
 743              		.loc 1 330 6 view .LVU204
 744 0018 13F0010F 		tst	r3, #1
 745 001c 1CD1     		bne	.L73
 746              	.LVL55:
 747              	.L62:
 337:Drivers/STM32WLxx_HAL_Driver/Src/stm32wlxx_hal_flash_ex.c ****   {
 748              		.loc 1 337 3 is_stmt 1 view .LVU205
 337:Drivers/STM32WLxx_HAL_Driver/Src/stm32wlxx_hal_flash_ex.c ****   {
 749              		.loc 1 337 15 is_stmt 0 view .LVU206
 750 001e 2368     		ldr	r3, [r4]
 337:Drivers/STM32WLxx_HAL_Driver/Src/stm32wlxx_hal_flash_ex.c ****   {
 751              		.loc 1 337 28 view .LVU207
 752 0020 03F00602 		and	r2, r3, #6
 337:Drivers/STM32WLxx_HAL_Driver/Src/stm32wlxx_hal_flash_ex.c ****   {
 753              		.loc 1 337 6 view .LVU208
 754 0024 062A     		cmp	r2, #6
 755 0026 1DD0     		beq	.L74
 342:Drivers/STM32WLxx_HAL_Driver/Src/stm32wlxx_hal_flash_ex.c ****   {
 756              		.loc 1 342 8 is_stmt 1 view .LVU209
 342:Drivers/STM32WLxx_HAL_Driver/Src/stm32wlxx_hal_flash_ex.c ****   {
 757              		.loc 1 342 11 is_stmt 0 view .LVU210
 758 0028 13F0020F 		tst	r3, #2
 759 002c 20D1     		bne	.L75
 352:Drivers/STM32WLxx_HAL_Driver/Src/stm32wlxx_hal_flash_ex.c ****   {
 760              		.loc 1 352 8 is_stmt 1 view .LVU211
 352:Drivers/STM32WLxx_HAL_Driver/Src/stm32wlxx_hal_flash_ex.c ****   {
 761              		.loc 1 352 11 is_stmt 0 view .LVU212
 762 002e 13F0040F 		tst	r3, #4
 763 0032 26D1     		bne	.L76
 764              	.L64:
 361:Drivers/STM32WLxx_HAL_Driver/Src/stm32wlxx_hal_flash_ex.c **** 
 765              		.loc 1 361 3 is_stmt 1 view .LVU213
 364:Drivers/STM32WLxx_HAL_Driver/Src/stm32wlxx_hal_flash_ex.c ****   {
 766              		.loc 1 364 3 view .LVU214
 364:Drivers/STM32WLxx_HAL_Driver/Src/stm32wlxx_hal_flash_ex.c ****   {
 767              		.loc 1 364 15 is_stmt 0 view .LVU215
 768 0034 2368     		ldr	r3, [r4]
 364:Drivers/STM32WLxx_HAL_Driver/Src/stm32wlxx_hal_flash_ex.c ****   {
 769              		.loc 1 364 6 view .LVU216
 770 0036 13F0080F 		tst	r3, #8
 771 003a 07D0     		beq	.L66
 367:Drivers/STM32WLxx_HAL_Driver/Src/stm32wlxx_hal_flash_ex.c **** 
 772              		.loc 1 367 5 is_stmt 1 view .LVU217
ARM GAS  /tmp/cclRXqpz.s 			page 38


 369:Drivers/STM32WLxx_HAL_Driver/Src/stm32wlxx_hal_flash_ex.c ****     {
 773              		.loc 1 369 5 view .LVU218
 369:Drivers/STM32WLxx_HAL_Driver/Src/stm32wlxx_hal_flash_ex.c ****     {
 774              		.loc 1 369 17 is_stmt 0 view .LVU219
 775 003c E069     		ldr	r0, [r4, #28]
 369:Drivers/STM32WLxx_HAL_Driver/Src/stm32wlxx_hal_flash_ex.c ****     {
 776              		.loc 1 369 8 view .LVU220
 777 003e 1C4B     		ldr	r3, .L79+4
 778 0040 1842     		tst	r0, r3
 779 0042 26D1     		bne	.L77
 780              	.L67:
 375:Drivers/STM32WLxx_HAL_Driver/Src/stm32wlxx_hal_flash_ex.c ****     {
 781              		.loc 1 375 5 is_stmt 1 view .LVU221
 375:Drivers/STM32WLxx_HAL_Driver/Src/stm32wlxx_hal_flash_ex.c ****     {
 782              		.loc 1 375 17 is_stmt 0 view .LVU222
 783 0044 E369     		ldr	r3, [r4, #28]
 375:Drivers/STM32WLxx_HAL_Driver/Src/stm32wlxx_hal_flash_ex.c ****     {
 784              		.loc 1 375 8 view .LVU223
 785 0046 13F0020F 		tst	r3, #2
 786 004a 27D1     		bne	.L78
 787              	.L66:
 400:Drivers/STM32WLxx_HAL_Driver/Src/stm32wlxx_hal_flash_ex.c **** 
 788              		.loc 1 400 3 is_stmt 1 view .LVU224
 400:Drivers/STM32WLxx_HAL_Driver/Src/stm32wlxx_hal_flash_ex.c **** 
 789              		.loc 1 400 12 is_stmt 0 view .LVU225
 790 004c FFF7FEFF 		bl	FLASH_OB_ProceedWriteOperation
 791              	.LVL56:
 403:Drivers/STM32WLxx_HAL_Driver/Src/stm32wlxx_hal_flash_ex.c **** 
 792              		.loc 1 403 3 is_stmt 1 view .LVU226
 403:Drivers/STM32WLxx_HAL_Driver/Src/stm32wlxx_hal_flash_ex.c **** 
 793              		.loc 1 403 3 view .LVU227
 794 0050 164B     		ldr	r3, .L79
 795 0052 0022     		movs	r2, #0
 796 0054 1A70     		strb	r2, [r3]
 403:Drivers/STM32WLxx_HAL_Driver/Src/stm32wlxx_hal_flash_ex.c **** 
 797              		.loc 1 403 3 view .LVU228
 406:Drivers/STM32WLxx_HAL_Driver/Src/stm32wlxx_hal_flash_ex.c **** }
 798              		.loc 1 406 3 view .LVU229
 407:Drivers/STM32WLxx_HAL_Driver/Src/stm32wlxx_hal_flash_ex.c **** 
 799              		.loc 1 407 1 is_stmt 0 view .LVU230
 800 0056 10BD     		pop	{r4, pc}
 801              	.LVL57:
 802              	.L73:
 333:Drivers/STM32WLxx_HAL_Driver/Src/stm32wlxx_hal_flash_ex.c ****   }
 803              		.loc 1 333 5 is_stmt 1 view .LVU231
 804 0058 C268     		ldr	r2, [r0, #12]
 805 005a 8168     		ldr	r1, [r0, #8]
 806 005c 4068     		ldr	r0, [r0, #4]
 807              	.LVL58:
 333:Drivers/STM32WLxx_HAL_Driver/Src/stm32wlxx_hal_flash_ex.c ****   }
 808              		.loc 1 333 5 is_stmt 0 view .LVU232
 809 005e FFF7FEFF 		bl	FLASH_OB_WRPConfig
 810              	.LVL59:
 811 0062 DCE7     		b	.L62
 812              	.L74:
 340:Drivers/STM32WLxx_HAL_Driver/Src/stm32wlxx_hal_flash_ex.c ****   }
 813              		.loc 1 340 5 is_stmt 1 view .LVU233
ARM GAS  /tmp/cclRXqpz.s 			page 39


 814 0064 2269     		ldr	r2, [r4, #16]
 815 0066 A169     		ldr	r1, [r4, #24]
 816 0068 6069     		ldr	r0, [r4, #20]
 817 006a FFF7FEFF 		bl	FLASH_OB_OptrConfig
 818              	.LVL60:
 819 006e E1E7     		b	.L64
 820              	.L75:
 345:Drivers/STM32WLxx_HAL_Driver/Src/stm32wlxx_hal_flash_ex.c **** 
 821              		.loc 1 345 5 view .LVU234
 345:Drivers/STM32WLxx_HAL_Driver/Src/stm32wlxx_hal_flash_ex.c **** 
 822              		.loc 1 345 12 is_stmt 0 view .LVU235
 823 0070 FFF7FEFF 		bl	FLASH_OB_GetUser
 824              	.LVL61:
 348:Drivers/STM32WLxx_HAL_Driver/Src/stm32wlxx_hal_flash_ex.c **** 
 825              		.loc 1 348 5 is_stmt 1 view .LVU236
 348:Drivers/STM32WLxx_HAL_Driver/Src/stm32wlxx_hal_flash_ex.c **** 
 826              		.loc 1 348 10 is_stmt 0 view .LVU237
 827 0074 20F46060 		bic	r0, r0, #3584
 828              	.LVL62:
 350:Drivers/STM32WLxx_HAL_Driver/Src/stm32wlxx_hal_flash_ex.c ****   }
 829              		.loc 1 350 5 is_stmt 1 view .LVU238
 830 0078 2269     		ldr	r2, [r4, #16]
 831 007a 0146     		mov	r1, r0
 832 007c FFF7FEFF 		bl	FLASH_OB_OptrConfig
 833              	.LVL63:
 350:Drivers/STM32WLxx_HAL_Driver/Src/stm32wlxx_hal_flash_ex.c ****   }
 834              		.loc 1 350 5 is_stmt 0 view .LVU239
 835 0080 D8E7     		b	.L64
 836              	.LVL64:
 837              	.L76:
 355:Drivers/STM32WLxx_HAL_Driver/Src/stm32wlxx_hal_flash_ex.c ****     FLASH_OB_OptrConfig(pOBInit->UserType, pOBInit->UserConfig, optr);
 838              		.loc 1 355 5 is_stmt 1 view .LVU240
 355:Drivers/STM32WLxx_HAL_Driver/Src/stm32wlxx_hal_flash_ex.c ****     FLASH_OB_OptrConfig(pOBInit->UserType, pOBInit->UserConfig, optr);
 839              		.loc 1 355 12 is_stmt 0 view .LVU241
 840 0082 FFF7FEFF 		bl	FLASH_OB_GetRDP
 841              	.LVL65:
 842 0086 0246     		mov	r2, r0
 843              	.LVL66:
 356:Drivers/STM32WLxx_HAL_Driver/Src/stm32wlxx_hal_flash_ex.c ****   }
 844              		.loc 1 356 5 is_stmt 1 view .LVU242
 845 0088 A169     		ldr	r1, [r4, #24]
 846 008a 6069     		ldr	r0, [r4, #20]
 847              	.LVL67:
 356:Drivers/STM32WLxx_HAL_Driver/Src/stm32wlxx_hal_flash_ex.c ****   }
 848              		.loc 1 356 5 is_stmt 0 view .LVU243
 849 008c FFF7FEFF 		bl	FLASH_OB_OptrConfig
 850              	.LVL68:
 356:Drivers/STM32WLxx_HAL_Driver/Src/stm32wlxx_hal_flash_ex.c ****   }
 851              		.loc 1 356 5 view .LVU244
 852 0090 D0E7     		b	.L64
 853              	.LVL69:
 854              	.L77:
 372:Drivers/STM32WLxx_HAL_Driver/Src/stm32wlxx_hal_flash_ex.c ****     }
 855              		.loc 1 372 7 is_stmt 1 view .LVU245
 856 0092 626A     		ldr	r2, [r4, #36]
 857 0094 216A     		ldr	r1, [r4, #32]
 858 0096 FFF7FEFF 		bl	FLASH_OB_PCROP1AConfig
ARM GAS  /tmp/cclRXqpz.s 			page 40


 859              	.LVL70:
 860 009a D3E7     		b	.L67
 861              	.L78:
 378:Drivers/STM32WLxx_HAL_Driver/Src/stm32wlxx_hal_flash_ex.c ****     }
 862              		.loc 1 378 7 view .LVU246
 863 009c E16A     		ldr	r1, [r4, #44]
 864 009e A06A     		ldr	r0, [r4, #40]
 865 00a0 FFF7FEFF 		bl	FLASH_OB_PCROP1BConfig
 866              	.LVL71:
 867 00a4 D2E7     		b	.L66
 868              	.LVL72:
 869              	.L68:
 870              		.cfi_def_cfa_offset 0
 871              		.cfi_restore 4
 872              		.cfi_restore 14
 325:Drivers/STM32WLxx_HAL_Driver/Src/stm32wlxx_hal_flash_ex.c **** 
 873              		.loc 1 325 3 is_stmt 0 discriminator 1 view .LVU247
 874 00a6 0220     		movs	r0, #2
 875              	.LVL73:
 407:Drivers/STM32WLxx_HAL_Driver/Src/stm32wlxx_hal_flash_ex.c **** 
 876              		.loc 1 407 1 view .LVU248
 877 00a8 7047     		bx	lr
 878              	.L80:
 879 00aa 00BF     		.align	2
 880              	.L79:
 881 00ac 00000000 		.word	pFlash
 882 00b0 01000080 		.word	-2147483647
 883              		.cfi_endproc
 884              	.LFE848:
 886              		.section	.text.HAL_FLASHEx_OBGetConfig,"ax",%progbits
 887              		.align	1
 888              		.global	HAL_FLASHEx_OBGetConfig
 889              		.syntax unified
 890              		.thumb
 891              		.thumb_func
 893              	HAL_FLASHEx_OBGetConfig:
 894              	.LVL74:
 895              	.LFB849:
 421:Drivers/STM32WLxx_HAL_Driver/Src/stm32wlxx_hal_flash_ex.c ****   pOBInit->OptionType = OPTIONBYTE_ALL;
 896              		.loc 1 421 1 is_stmt 1 view -0
 897              		.cfi_startproc
 898              		@ args = 0, pretend = 0, frame = 0
 899              		@ frame_needed = 0, uses_anonymous_args = 0
 421:Drivers/STM32WLxx_HAL_Driver/Src/stm32wlxx_hal_flash_ex.c ****   pOBInit->OptionType = OPTIONBYTE_ALL;
 900              		.loc 1 421 1 is_stmt 0 view .LVU250
 901 0000 10B5     		push	{r4, lr}
 902              		.cfi_def_cfa_offset 8
 903              		.cfi_offset 4, -8
 904              		.cfi_offset 14, -4
 905 0002 82B0     		sub	sp, sp, #8
 906              		.cfi_def_cfa_offset 16
 907 0004 0446     		mov	r4, r0
 422:Drivers/STM32WLxx_HAL_Driver/Src/stm32wlxx_hal_flash_ex.c **** 
 908              		.loc 1 422 3 is_stmt 1 view .LVU251
 422:Drivers/STM32WLxx_HAL_Driver/Src/stm32wlxx_hal_flash_ex.c **** 
 909              		.loc 1 422 23 is_stmt 0 view .LVU252
 910 0006 0F23     		movs	r3, #15
ARM GAS  /tmp/cclRXqpz.s 			page 41


 911 0008 0360     		str	r3, [r0]
 424:Drivers/STM32WLxx_HAL_Driver/Src/stm32wlxx_hal_flash_ex.c ****   {
 912              		.loc 1 424 3 is_stmt 1 view .LVU253
 424:Drivers/STM32WLxx_HAL_Driver/Src/stm32wlxx_hal_flash_ex.c ****   {
 913              		.loc 1 424 15 is_stmt 0 view .LVU254
 914 000a 4068     		ldr	r0, [r0, #4]
 915              	.LVL75:
 424:Drivers/STM32WLxx_HAL_Driver/Src/stm32wlxx_hal_flash_ex.c ****   {
 916              		.loc 1 424 6 view .LVU255
 917 000c 0128     		cmp	r0, #1
 918 000e 1AD9     		bls	.L84
 919              	.L82:
 431:Drivers/STM32WLxx_HAL_Driver/Src/stm32wlxx_hal_flash_ex.c **** 
 920              		.loc 1 431 3 is_stmt 1 view .LVU256
 431:Drivers/STM32WLxx_HAL_Driver/Src/stm32wlxx_hal_flash_ex.c **** 
 921              		.loc 1 431 23 is_stmt 0 view .LVU257
 922 0010 FFF7FEFF 		bl	FLASH_OB_GetRDP
 923              	.LVL76:
 431:Drivers/STM32WLxx_HAL_Driver/Src/stm32wlxx_hal_flash_ex.c **** 
 924              		.loc 1 431 21 discriminator 1 view .LVU258
 925 0014 2061     		str	r0, [r4, #16]
 434:Drivers/STM32WLxx_HAL_Driver/Src/stm32wlxx_hal_flash_ex.c ****   pOBInit->UserType = OB_USER_ALL;
 926              		.loc 1 434 3 is_stmt 1 view .LVU259
 434:Drivers/STM32WLxx_HAL_Driver/Src/stm32wlxx_hal_flash_ex.c ****   pOBInit->UserType = OB_USER_ALL;
 927              		.loc 1 434 25 is_stmt 0 view .LVU260
 928 0016 FFF7FEFF 		bl	FLASH_OB_GetUser
 929              	.LVL77:
 434:Drivers/STM32WLxx_HAL_Driver/Src/stm32wlxx_hal_flash_ex.c ****   pOBInit->UserType = OB_USER_ALL;
 930              		.loc 1 434 23 discriminator 1 view .LVU261
 931 001a A061     		str	r0, [r4, #24]
 435:Drivers/STM32WLxx_HAL_Driver/Src/stm32wlxx_hal_flash_ex.c **** 
 932              		.loc 1 435 3 is_stmt 1 view .LVU262
 435:Drivers/STM32WLxx_HAL_Driver/Src/stm32wlxx_hal_flash_ex.c **** 
 933              		.loc 1 435 21 is_stmt 0 view .LVU263
 934 001c 0D4B     		ldr	r3, .L85
 935 001e 6361     		str	r3, [r4, #20]
 438:Drivers/STM32WLxx_HAL_Driver/Src/stm32wlxx_hal_flash_ex.c ****                     &(pOBInit->PCROP1BStartAddr), &(pOBInit->PCROP1BEndAddr));
 936              		.loc 1 438 3 is_stmt 1 view .LVU264
 937 0020 04F12C03 		add	r3, r4, #44
 938 0024 0093     		str	r3, [sp]
 939 0026 04F12803 		add	r3, r4, #40
 940 002a 04F12402 		add	r2, r4, #36
 941 002e 04F12001 		add	r1, r4, #32
 942 0032 04F11C00 		add	r0, r4, #28
 943 0036 FFF7FEFF 		bl	FLASH_OB_GetPCROP
 944              	.LVL78:
 440:Drivers/STM32WLxx_HAL_Driver/Src/stm32wlxx_hal_flash_ex.c **** 
 945              		.loc 1 440 3 view .LVU265
 440:Drivers/STM32WLxx_HAL_Driver/Src/stm32wlxx_hal_flash_ex.c **** 
 946              		.loc 1 440 10 is_stmt 0 view .LVU266
 947 003a E369     		ldr	r3, [r4, #28]
 440:Drivers/STM32WLxx_HAL_Driver/Src/stm32wlxx_hal_flash_ex.c **** 
 948              		.loc 1 440 24 view .LVU267
 949 003c 43F00303 		orr	r3, r3, #3
 950 0040 E361     		str	r3, [r4, #28]
 459:Drivers/STM32WLxx_HAL_Driver/Src/stm32wlxx_hal_flash_ex.c **** 
 951              		.loc 1 459 1 view .LVU268
ARM GAS  /tmp/cclRXqpz.s 			page 42


 952 0042 02B0     		add	sp, sp, #8
 953              		.cfi_remember_state
 954              		.cfi_def_cfa_offset 8
 955              		@ sp needed
 956 0044 10BD     		pop	{r4, pc}
 957              	.LVL79:
 958              	.L84:
 959              		.cfi_restore_state
 427:Drivers/STM32WLxx_HAL_Driver/Src/stm32wlxx_hal_flash_ex.c ****   }
 960              		.loc 1 427 5 is_stmt 1 view .LVU269
 961 0046 04F10C02 		add	r2, r4, #12
 962 004a 04F10801 		add	r1, r4, #8
 963 004e FFF7FEFF 		bl	FLASH_OB_GetWRP
 964              	.LVL80:
 965 0052 DDE7     		b	.L82
 966              	.L86:
 967              		.align	2
 968              	.L85:
 969 0054 007E8F4F 		.word	1334803968
 970              		.cfi_endproc
 971              	.LFE849:
 973              		.section	.text.HAL_FLASHEx_FlashEmptyCheck,"ax",%progbits
 974              		.align	1
 975              		.global	HAL_FLASHEx_FlashEmptyCheck
 976              		.syntax unified
 977              		.thumb
 978              		.thumb_func
 980              	HAL_FLASHEx_FlashEmptyCheck:
 981              	.LFB850:
 470:Drivers/STM32WLxx_HAL_Driver/Src/stm32wlxx_hal_flash_ex.c ****   return (READ_BIT(FLASH->ACR, FLASH_ACR_EMPTY));
 982              		.loc 1 470 1 view -0
 983              		.cfi_startproc
 984              		@ args = 0, pretend = 0, frame = 0
 985              		@ frame_needed = 0, uses_anonymous_args = 0
 986              		@ link register save eliminated.
 471:Drivers/STM32WLxx_HAL_Driver/Src/stm32wlxx_hal_flash_ex.c **** }
 987              		.loc 1 471 3 view .LVU271
 471:Drivers/STM32WLxx_HAL_Driver/Src/stm32wlxx_hal_flash_ex.c **** }
 988              		.loc 1 471 11 is_stmt 0 view .LVU272
 989 0000 024B     		ldr	r3, .L88
 990 0002 1868     		ldr	r0, [r3]
 472:Drivers/STM32WLxx_HAL_Driver/Src/stm32wlxx_hal_flash_ex.c **** 
 991              		.loc 1 472 1 view .LVU273
 992 0004 00F48030 		and	r0, r0, #65536
 993 0008 7047     		bx	lr
 994              	.L89:
 995 000a 00BF     		.align	2
 996              	.L88:
 997 000c 00400058 		.word	1476411392
 998              		.cfi_endproc
 999              	.LFE850:
 1001              		.section	.text.HAL_FLASHEx_ForceFlashEmpty,"ax",%progbits
 1002              		.align	1
 1003              		.global	HAL_FLASHEx_ForceFlashEmpty
 1004              		.syntax unified
 1005              		.thumb
 1006              		.thumb_func
ARM GAS  /tmp/cclRXqpz.s 			page 43


 1008              	HAL_FLASHEx_ForceFlashEmpty:
 1009              	.LVL81:
 1010              	.LFB851:
 487:Drivers/STM32WLxx_HAL_Driver/Src/stm32wlxx_hal_flash_ex.c ****   assert_param(IS_FLASH_EMPTY_CHECK(FlashEmpty));
 1011              		.loc 1 487 1 is_stmt 1 view -0
 1012              		.cfi_startproc
 1013              		@ args = 0, pretend = 0, frame = 0
 1014              		@ frame_needed = 0, uses_anonymous_args = 0
 1015              		@ link register save eliminated.
 488:Drivers/STM32WLxx_HAL_Driver/Src/stm32wlxx_hal_flash_ex.c **** 
 1016              		.loc 1 488 3 view .LVU275
 490:Drivers/STM32WLxx_HAL_Driver/Src/stm32wlxx_hal_flash_ex.c **** }
 1017              		.loc 1 490 3 view .LVU276
 1018 0000 034A     		ldr	r2, .L91
 1019 0002 1368     		ldr	r3, [r2]
 1020 0004 23F48033 		bic	r3, r3, #65536
 1021 0008 0343     		orrs	r3, r3, r0
 1022 000a 1360     		str	r3, [r2]
 491:Drivers/STM32WLxx_HAL_Driver/Src/stm32wlxx_hal_flash_ex.c **** 
 1023              		.loc 1 491 1 is_stmt 0 view .LVU277
 1024 000c 7047     		bx	lr
 1025              	.L92:
 1026 000e 00BF     		.align	2
 1027              	.L91:
 1028 0010 00400058 		.word	1476411392
 1029              		.cfi_endproc
 1030              	.LFE851:
 1032              		.section	.text.HAL_FLASHEx_SuspendOperation,"ax",%progbits
 1033              		.align	1
 1034              		.global	HAL_FLASHEx_SuspendOperation
 1035              		.syntax unified
 1036              		.thumb
 1037              		.thumb_func
 1039              	HAL_FLASHEx_SuspendOperation:
 1040              	.LFB852:
 503:Drivers/STM32WLxx_HAL_Driver/Src/stm32wlxx_hal_flash_ex.c **** #if defined(CORE_CM0PLUS)
 1041              		.loc 1 503 1 is_stmt 1 view -0
 1042              		.cfi_startproc
 1043              		@ args = 0, pretend = 0, frame = 0
 1044              		@ frame_needed = 0, uses_anonymous_args = 0
 1045              		@ link register save eliminated.
 507:Drivers/STM32WLxx_HAL_Driver/Src/stm32wlxx_hal_flash_ex.c **** #endif
 1046              		.loc 1 507 3 view .LVU279
 1047 0000 024A     		ldr	r2, .L94
 1048 0002 1368     		ldr	r3, [r2]
 1049 0004 43F40043 		orr	r3, r3, #32768
 1050 0008 1360     		str	r3, [r2]
 509:Drivers/STM32WLxx_HAL_Driver/Src/stm32wlxx_hal_flash_ex.c **** 
 1051              		.loc 1 509 1 is_stmt 0 view .LVU280
 1052 000a 7047     		bx	lr
 1053              	.L95:
 1054              		.align	2
 1055              	.L94:
 1056 000c 00400058 		.word	1476411392
 1057              		.cfi_endproc
 1058              	.LFE852:
 1060              		.section	.text.HAL_FLASHEx_AllowOperation,"ax",%progbits
ARM GAS  /tmp/cclRXqpz.s 			page 44


 1061              		.align	1
 1062              		.global	HAL_FLASHEx_AllowOperation
 1063              		.syntax unified
 1064              		.thumb
 1065              		.thumb_func
 1067              	HAL_FLASHEx_AllowOperation:
 1068              	.LFB853:
 521:Drivers/STM32WLxx_HAL_Driver/Src/stm32wlxx_hal_flash_ex.c **** #if defined(CORE_CM0PLUS)
 1069              		.loc 1 521 1 is_stmt 1 view -0
 1070              		.cfi_startproc
 1071              		@ args = 0, pretend = 0, frame = 0
 1072              		@ frame_needed = 0, uses_anonymous_args = 0
 1073              		@ link register save eliminated.
 525:Drivers/STM32WLxx_HAL_Driver/Src/stm32wlxx_hal_flash_ex.c **** #endif
 1074              		.loc 1 525 3 view .LVU282
 1075 0000 024A     		ldr	r2, .L97
 1076 0002 1368     		ldr	r3, [r2]
 1077 0004 23F40043 		bic	r3, r3, #32768
 1078 0008 1360     		str	r3, [r2]
 527:Drivers/STM32WLxx_HAL_Driver/Src/stm32wlxx_hal_flash_ex.c **** 
 1079              		.loc 1 527 1 is_stmt 0 view .LVU283
 1080 000a 7047     		bx	lr
 1081              	.L98:
 1082              		.align	2
 1083              	.L97:
 1084 000c 00400058 		.word	1476411392
 1085              		.cfi_endproc
 1086              	.LFE853:
 1088              		.section	.text.HAL_FLASHEx_IsOperationSuspended,"ax",%progbits
 1089              		.align	1
 1090              		.global	HAL_FLASHEx_IsOperationSuspended
 1091              		.syntax unified
 1092              		.thumb
 1093              		.thumb_func
 1095              	HAL_FLASHEx_IsOperationSuspended:
 1096              	.LFB854:
 541:Drivers/STM32WLxx_HAL_Driver/Src/stm32wlxx_hal_flash_ex.c ****   uint32_t status = 0U;
 1097              		.loc 1 541 1 is_stmt 1 view -0
 1098              		.cfi_startproc
 1099              		@ args = 0, pretend = 0, frame = 0
 1100              		@ frame_needed = 0, uses_anonymous_args = 0
 1101              		@ link register save eliminated.
 542:Drivers/STM32WLxx_HAL_Driver/Src/stm32wlxx_hal_flash_ex.c **** 
 1102              		.loc 1 542 3 view .LVU285
 1103              	.LVL82:
 547:Drivers/STM32WLxx_HAL_Driver/Src/stm32wlxx_hal_flash_ex.c **** #endif
 1104              		.loc 1 547 3 view .LVU286
 547:Drivers/STM32WLxx_HAL_Driver/Src/stm32wlxx_hal_flash_ex.c **** #endif
 1105              		.loc 1 547 7 is_stmt 0 view .LVU287
 1106 0000 034B     		ldr	r3, .L102
 1107 0002 1869     		ldr	r0, [r3, #16]
 547:Drivers/STM32WLxx_HAL_Driver/Src/stm32wlxx_hal_flash_ex.c **** #endif
 1108              		.loc 1 547 6 view .LVU288
 1109 0004 10F40020 		ands	r0, r0, #524288
 1110 0008 00D0     		beq	.L99
 550:Drivers/STM32WLxx_HAL_Driver/Src/stm32wlxx_hal_flash_ex.c ****   }
 1111              		.loc 1 550 12 view .LVU289
ARM GAS  /tmp/cclRXqpz.s 			page 45


 1112 000a 0120     		movs	r0, #1
 1113              	.LVL83:
 553:Drivers/STM32WLxx_HAL_Driver/Src/stm32wlxx_hal_flash_ex.c **** }
 1114              		.loc 1 553 3 is_stmt 1 view .LVU290
 1115              	.L99:
 554:Drivers/STM32WLxx_HAL_Driver/Src/stm32wlxx_hal_flash_ex.c **** 
 1116              		.loc 1 554 1 is_stmt 0 view .LVU291
 1117 000c 7047     		bx	lr
 1118              	.L103:
 1119 000e 00BF     		.align	2
 1120              	.L102:
 1121 0010 00400058 		.word	1476411392
 1122              		.cfi_endproc
 1123              	.LFE854:
 1125              		.section	.text.FLASH_PageErase,"ax",%progbits
 1126              		.align	1
 1127              		.global	FLASH_PageErase
 1128              		.syntax unified
 1129              		.thumb
 1130              		.thumb_func
 1132              	FLASH_PageErase:
 1133              	.LVL84:
 1134              	.LFB856:
 657:Drivers/STM32WLxx_HAL_Driver/Src/stm32wlxx_hal_flash_ex.c ****   /* Check the parameters */
 1135              		.loc 1 657 1 is_stmt 1 view -0
 1136              		.cfi_startproc
 1137              		@ args = 0, pretend = 0, frame = 0
 1138              		@ frame_needed = 0, uses_anonymous_args = 0
 1139              		@ link register save eliminated.
 659:Drivers/STM32WLxx_HAL_Driver/Src/stm32wlxx_hal_flash_ex.c **** 
 1140              		.loc 1 659 3 view .LVU293
 665:Drivers/STM32WLxx_HAL_Driver/Src/stm32wlxx_hal_flash_ex.c **** #endif
 1141              		.loc 1 665 3 view .LVU294
 1142 0000 054A     		ldr	r2, .L105
 1143 0002 5369     		ldr	r3, [r2, #20]
 1144 0004 23F47E73 		bic	r3, r3, #1016
 1145 0008 43EAC000 		orr	r0, r3, r0, lsl #3
 1146              	.LVL85:
 665:Drivers/STM32WLxx_HAL_Driver/Src/stm32wlxx_hal_flash_ex.c **** #endif
 1147              		.loc 1 665 3 is_stmt 0 view .LVU295
 1148 000c 40F48030 		orr	r0, r0, #65536
 1149 0010 40F00200 		orr	r0, r0, #2
 1150 0014 5061     		str	r0, [r2, #20]
 667:Drivers/STM32WLxx_HAL_Driver/Src/stm32wlxx_hal_flash_ex.c **** 
 1151              		.loc 1 667 1 view .LVU296
 1152 0016 7047     		bx	lr
 1153              	.L106:
 1154              		.align	2
 1155              	.L105:
 1156 0018 00400058 		.word	1476411392
 1157              		.cfi_endproc
 1158              	.LFE856:
 1160              		.section	.text.HAL_FLASHEx_Erase,"ax",%progbits
 1161              		.align	1
 1162              		.global	HAL_FLASHEx_Erase
 1163              		.syntax unified
 1164              		.thumb
ARM GAS  /tmp/cclRXqpz.s 			page 46


 1165              		.thumb_func
 1167              	HAL_FLASHEx_Erase:
 1168              	.LVL86:
 1169              	.LFB846:
 181:Drivers/STM32WLxx_HAL_Driver/Src/stm32wlxx_hal_flash_ex.c ****   HAL_StatusTypeDef status;
 1170              		.loc 1 181 1 is_stmt 1 view -0
 1171              		.cfi_startproc
 1172              		@ args = 0, pretend = 0, frame = 0
 1173              		@ frame_needed = 0, uses_anonymous_args = 0
 181:Drivers/STM32WLxx_HAL_Driver/Src/stm32wlxx_hal_flash_ex.c ****   HAL_StatusTypeDef status;
 1174              		.loc 1 181 1 is_stmt 0 view .LVU298
 1175 0000 F8B5     		push	{r3, r4, r5, r6, r7, lr}
 1176              		.cfi_def_cfa_offset 24
 1177              		.cfi_offset 3, -24
 1178              		.cfi_offset 4, -20
 1179              		.cfi_offset 5, -16
 1180              		.cfi_offset 6, -12
 1181              		.cfi_offset 7, -8
 1182              		.cfi_offset 14, -4
 182:Drivers/STM32WLxx_HAL_Driver/Src/stm32wlxx_hal_flash_ex.c ****   uint32_t index;
 1183              		.loc 1 182 3 is_stmt 1 view .LVU299
 183:Drivers/STM32WLxx_HAL_Driver/Src/stm32wlxx_hal_flash_ex.c **** 
 1184              		.loc 1 183 3 view .LVU300
 186:Drivers/STM32WLxx_HAL_Driver/Src/stm32wlxx_hal_flash_ex.c **** 
 1185              		.loc 1 186 3 view .LVU301
 189:Drivers/STM32WLxx_HAL_Driver/Src/stm32wlxx_hal_flash_ex.c **** 
 1186              		.loc 1 189 3 view .LVU302
 189:Drivers/STM32WLxx_HAL_Driver/Src/stm32wlxx_hal_flash_ex.c **** 
 1187              		.loc 1 189 3 view .LVU303
 1188 0002 1E4B     		ldr	r3, .L120
 1189 0004 1B78     		ldrb	r3, [r3]	@ zero_extendqisi2
 1190 0006 012B     		cmp	r3, #1
 1191 0008 35D0     		beq	.L116
 1192 000a 0546     		mov	r5, r0
 1193 000c 0F46     		mov	r7, r1
 189:Drivers/STM32WLxx_HAL_Driver/Src/stm32wlxx_hal_flash_ex.c **** 
 1194              		.loc 1 189 3 discriminator 2 view .LVU304
 1195 000e 1B4B     		ldr	r3, .L120
 1196 0010 0122     		movs	r2, #1
 1197 0012 1A70     		strb	r2, [r3]
 189:Drivers/STM32WLxx_HAL_Driver/Src/stm32wlxx_hal_flash_ex.c **** 
 1198              		.loc 1 189 3 view .LVU305
 192:Drivers/STM32WLxx_HAL_Driver/Src/stm32wlxx_hal_flash_ex.c **** 
 1199              		.loc 1 192 3 view .LVU306
 192:Drivers/STM32WLxx_HAL_Driver/Src/stm32wlxx_hal_flash_ex.c **** 
 1200              		.loc 1 192 20 is_stmt 0 view .LVU307
 1201 0014 0022     		movs	r2, #0
 1202 0016 5A60     		str	r2, [r3, #4]
 195:Drivers/STM32WLxx_HAL_Driver/Src/stm32wlxx_hal_flash_ex.c **** 
 1203              		.loc 1 195 3 is_stmt 1 view .LVU308
 195:Drivers/STM32WLxx_HAL_Driver/Src/stm32wlxx_hal_flash_ex.c **** 
 1204              		.loc 1 195 12 is_stmt 0 view .LVU309
 1205 0018 4FF47A70 		mov	r0, #1000
 1206              	.LVL87:
 195:Drivers/STM32WLxx_HAL_Driver/Src/stm32wlxx_hal_flash_ex.c **** 
 1207              		.loc 1 195 12 view .LVU310
 1208 001c FFF7FEFF 		bl	FLASH_WaitForLastOperation
ARM GAS  /tmp/cclRXqpz.s 			page 47


 1209              	.LVL88:
 197:Drivers/STM32WLxx_HAL_Driver/Src/stm32wlxx_hal_flash_ex.c ****   {
 1210              		.loc 1 197 3 is_stmt 1 view .LVU311
 197:Drivers/STM32WLxx_HAL_Driver/Src/stm32wlxx_hal_flash_ex.c ****   {
 1211              		.loc 1 197 6 is_stmt 0 view .LVU312
 1212 0020 0646     		mov	r6, r0
 1213 0022 18BB     		cbnz	r0, .L109
 199:Drivers/STM32WLxx_HAL_Driver/Src/stm32wlxx_hal_flash_ex.c ****     {
 1214              		.loc 1 199 5 is_stmt 1 view .LVU313
 199:Drivers/STM32WLxx_HAL_Driver/Src/stm32wlxx_hal_flash_ex.c ****     {
 1215              		.loc 1 199 19 is_stmt 0 view .LVU314
 1216 0024 2B68     		ldr	r3, [r5]
 199:Drivers/STM32WLxx_HAL_Driver/Src/stm32wlxx_hal_flash_ex.c ****     {
 1217              		.loc 1 199 8 view .LVU315
 1218 0026 042B     		cmp	r3, #4
 1219 0028 13D0     		beq	.L118
 212:Drivers/STM32WLxx_HAL_Driver/Src/stm32wlxx_hal_flash_ex.c **** 
 1220              		.loc 1 212 7 is_stmt 1 view .LVU316
 212:Drivers/STM32WLxx_HAL_Driver/Src/stm32wlxx_hal_flash_ex.c **** 
 1221              		.loc 1 212 18 is_stmt 0 view .LVU317
 1222 002a 4FF0FF33 		mov	r3, #-1
 1223 002e 3B60     		str	r3, [r7]
 214:Drivers/STM32WLxx_HAL_Driver/Src/stm32wlxx_hal_flash_ex.c ****       {
 1224              		.loc 1 214 7 is_stmt 1 view .LVU318
 214:Drivers/STM32WLxx_HAL_Driver/Src/stm32wlxx_hal_flash_ex.c ****       {
 1225              		.loc 1 214 18 is_stmt 0 view .LVU319
 1226 0030 6C68     		ldr	r4, [r5, #4]
 1227              	.LVL89:
 1228              	.L112:
 214:Drivers/STM32WLxx_HAL_Driver/Src/stm32wlxx_hal_flash_ex.c ****       {
 1229              		.loc 1 214 44 is_stmt 1 discriminator 1 view .LVU320
 214:Drivers/STM32WLxx_HAL_Driver/Src/stm32wlxx_hal_flash_ex.c ****       {
 1230              		.loc 1 214 57 is_stmt 0 discriminator 1 view .LVU321
 1231 0032 6B68     		ldr	r3, [r5, #4]
 214:Drivers/STM32WLxx_HAL_Driver/Src/stm32wlxx_hal_flash_ex.c ****       {
 1232              		.loc 1 214 76 discriminator 1 view .LVU322
 1233 0034 AA68     		ldr	r2, [r5, #8]
 214:Drivers/STM32WLxx_HAL_Driver/Src/stm32wlxx_hal_flash_ex.c ****       {
 1234              		.loc 1 214 64 discriminator 1 view .LVU323
 1235 0036 1344     		add	r3, r3, r2
 214:Drivers/STM32WLxx_HAL_Driver/Src/stm32wlxx_hal_flash_ex.c ****       {
 1236              		.loc 1 214 44 discriminator 1 view .LVU324
 1237 0038 A342     		cmp	r3, r4
 1238 003a 13D9     		bls	.L114
 217:Drivers/STM32WLxx_HAL_Driver/Src/stm32wlxx_hal_flash_ex.c **** 
 1239              		.loc 1 217 9 is_stmt 1 view .LVU325
 1240 003c 2046     		mov	r0, r4
 1241 003e FFF7FEFF 		bl	FLASH_PageErase
 1242              	.LVL90:
 220:Drivers/STM32WLxx_HAL_Driver/Src/stm32wlxx_hal_flash_ex.c **** 
 1243              		.loc 1 220 9 view .LVU326
 220:Drivers/STM32WLxx_HAL_Driver/Src/stm32wlxx_hal_flash_ex.c **** 
 1244              		.loc 1 220 18 is_stmt 0 view .LVU327
 1245 0042 4FF47A70 		mov	r0, #1000
 1246 0046 FFF7FEFF 		bl	FLASH_WaitForLastOperation
 1247              	.LVL91:
 222:Drivers/STM32WLxx_HAL_Driver/Src/stm32wlxx_hal_flash_ex.c ****         {
ARM GAS  /tmp/cclRXqpz.s 			page 48


 1248              		.loc 1 222 9 is_stmt 1 view .LVU328
 222:Drivers/STM32WLxx_HAL_Driver/Src/stm32wlxx_hal_flash_ex.c ****         {
 1249              		.loc 1 222 12 is_stmt 0 view .LVU329
 1250 004a 0646     		mov	r6, r0
 1251 004c 48B9     		cbnz	r0, .L119
 214:Drivers/STM32WLxx_HAL_Driver/Src/stm32wlxx_hal_flash_ex.c ****       {
 1252              		.loc 1 214 93 is_stmt 1 discriminator 2 view .LVU330
 1253 004e 0134     		adds	r4, r4, #1
 1254              	.LVL92:
 214:Drivers/STM32WLxx_HAL_Driver/Src/stm32wlxx_hal_flash_ex.c ****       {
 1255              		.loc 1 214 93 is_stmt 0 discriminator 2 view .LVU331
 1256 0050 EFE7     		b	.L112
 1257              	.LVL93:
 1258              	.L118:
 202:Drivers/STM32WLxx_HAL_Driver/Src/stm32wlxx_hal_flash_ex.c **** 
 1259              		.loc 1 202 7 is_stmt 1 view .LVU332
 1260 0052 FFF7FEFF 		bl	FLASH_MassErase
 1261              	.LVL94:
 205:Drivers/STM32WLxx_HAL_Driver/Src/stm32wlxx_hal_flash_ex.c **** 
 1262              		.loc 1 205 7 view .LVU333
 205:Drivers/STM32WLxx_HAL_Driver/Src/stm32wlxx_hal_flash_ex.c **** 
 1263              		.loc 1 205 16 is_stmt 0 view .LVU334
 1264 0056 4FF47A70 		mov	r0, #1000
 1265 005a FFF7FEFF 		bl	FLASH_WaitForLastOperation
 1266              	.LVL95:
 1267 005e 0646     		mov	r6, r0
 1268              	.LVL96:
 205:Drivers/STM32WLxx_HAL_Driver/Src/stm32wlxx_hal_flash_ex.c **** 
 1269              		.loc 1 205 16 view .LVU335
 1270 0060 02E0     		b	.L111
 1271              	.LVL97:
 1272              	.L119:
 225:Drivers/STM32WLxx_HAL_Driver/Src/stm32wlxx_hal_flash_ex.c ****           break;
 1273              		.loc 1 225 11 is_stmt 1 view .LVU336
 225:Drivers/STM32WLxx_HAL_Driver/Src/stm32wlxx_hal_flash_ex.c ****           break;
 1274              		.loc 1 225 22 is_stmt 0 view .LVU337
 1275 0062 3C60     		str	r4, [r7]
 226:Drivers/STM32WLxx_HAL_Driver/Src/stm32wlxx_hal_flash_ex.c ****         }
 1276              		.loc 1 226 11 is_stmt 1 view .LVU338
 1277              	.LVL98:
 1278              	.L114:
 231:Drivers/STM32WLxx_HAL_Driver/Src/stm32wlxx_hal_flash_ex.c ****     }
 1279              		.loc 1 231 7 view .LVU339
 1280 0064 FFF7FEFF 		bl	FLASH_AcknowledgePageErase
 1281              	.LVL99:
 1282              	.L111:
 235:Drivers/STM32WLxx_HAL_Driver/Src/stm32wlxx_hal_flash_ex.c ****   }
 1283              		.loc 1 235 5 view .LVU340
 1284 0068 FFF7FEFF 		bl	FLASH_FlushCaches
 1285              	.LVL100:
 1286              	.L109:
 239:Drivers/STM32WLxx_HAL_Driver/Src/stm32wlxx_hal_flash_ex.c **** 
 1287              		.loc 1 239 3 view .LVU341
 239:Drivers/STM32WLxx_HAL_Driver/Src/stm32wlxx_hal_flash_ex.c **** 
 1288              		.loc 1 239 3 view .LVU342
 1289 006c 034B     		ldr	r3, .L120
 1290 006e 0022     		movs	r2, #0
ARM GAS  /tmp/cclRXqpz.s 			page 49


 1291 0070 1A70     		strb	r2, [r3]
 239:Drivers/STM32WLxx_HAL_Driver/Src/stm32wlxx_hal_flash_ex.c **** 
 1292              		.loc 1 239 3 view .LVU343
 241:Drivers/STM32WLxx_HAL_Driver/Src/stm32wlxx_hal_flash_ex.c **** }
 1293              		.loc 1 241 3 view .LVU344
 1294              	.LVL101:
 1295              	.L108:
 242:Drivers/STM32WLxx_HAL_Driver/Src/stm32wlxx_hal_flash_ex.c **** 
 1296              		.loc 1 242 1 is_stmt 0 view .LVU345
 1297 0072 3046     		mov	r0, r6
 1298 0074 F8BD     		pop	{r3, r4, r5, r6, r7, pc}
 1299              	.LVL102:
 1300              	.L116:
 189:Drivers/STM32WLxx_HAL_Driver/Src/stm32wlxx_hal_flash_ex.c **** 
 1301              		.loc 1 189 3 discriminator 1 view .LVU346
 1302 0076 0226     		movs	r6, #2
 1303 0078 FBE7     		b	.L108
 1304              	.L121:
 1305 007a 00BF     		.align	2
 1306              	.L120:
 1307 007c 00000000 		.word	pFlash
 1308              		.cfi_endproc
 1309              	.LFE846:
 1311              		.section	.text.HAL_FLASHEx_Erase_IT,"ax",%progbits
 1312              		.align	1
 1313              		.global	HAL_FLASHEx_Erase_IT
 1314              		.syntax unified
 1315              		.thumb
 1316              		.thumb_func
 1318              	HAL_FLASHEx_Erase_IT:
 1319              	.LVL103:
 1320              	.LFB847:
 253:Drivers/STM32WLxx_HAL_Driver/Src/stm32wlxx_hal_flash_ex.c ****   HAL_StatusTypeDef status;
 1321              		.loc 1 253 1 is_stmt 1 view -0
 1322              		.cfi_startproc
 1323              		@ args = 0, pretend = 0, frame = 0
 1324              		@ frame_needed = 0, uses_anonymous_args = 0
 253:Drivers/STM32WLxx_HAL_Driver/Src/stm32wlxx_hal_flash_ex.c ****   HAL_StatusTypeDef status;
 1325              		.loc 1 253 1 is_stmt 0 view .LVU348
 1326 0000 38B5     		push	{r3, r4, r5, lr}
 1327              		.cfi_def_cfa_offset 16
 1328              		.cfi_offset 3, -16
 1329              		.cfi_offset 4, -12
 1330              		.cfi_offset 5, -8
 1331              		.cfi_offset 14, -4
 254:Drivers/STM32WLxx_HAL_Driver/Src/stm32wlxx_hal_flash_ex.c **** 
 1332              		.loc 1 254 3 is_stmt 1 view .LVU349
 257:Drivers/STM32WLxx_HAL_Driver/Src/stm32wlxx_hal_flash_ex.c **** 
 1333              		.loc 1 257 3 view .LVU350
 260:Drivers/STM32WLxx_HAL_Driver/Src/stm32wlxx_hal_flash_ex.c **** 
 1334              		.loc 1 260 3 view .LVU351
 260:Drivers/STM32WLxx_HAL_Driver/Src/stm32wlxx_hal_flash_ex.c **** 
 1335              		.loc 1 260 3 view .LVU352
 1336 0002 174B     		ldr	r3, .L129
 1337 0004 1B78     		ldrb	r3, [r3]	@ zero_extendqisi2
 1338 0006 012B     		cmp	r3, #1
 1339 0008 28D0     		beq	.L126
ARM GAS  /tmp/cclRXqpz.s 			page 50


 1340 000a 0446     		mov	r4, r0
 260:Drivers/STM32WLxx_HAL_Driver/Src/stm32wlxx_hal_flash_ex.c **** 
 1341              		.loc 1 260 3 discriminator 2 view .LVU353
 1342 000c 144B     		ldr	r3, .L129
 1343 000e 0122     		movs	r2, #1
 1344 0010 1A70     		strb	r2, [r3]
 260:Drivers/STM32WLxx_HAL_Driver/Src/stm32wlxx_hal_flash_ex.c **** 
 1345              		.loc 1 260 3 view .LVU354
 263:Drivers/STM32WLxx_HAL_Driver/Src/stm32wlxx_hal_flash_ex.c **** 
 1346              		.loc 1 263 3 view .LVU355
 263:Drivers/STM32WLxx_HAL_Driver/Src/stm32wlxx_hal_flash_ex.c **** 
 1347              		.loc 1 263 20 is_stmt 0 view .LVU356
 1348 0012 0022     		movs	r2, #0
 1349 0014 5A60     		str	r2, [r3, #4]
 266:Drivers/STM32WLxx_HAL_Driver/Src/stm32wlxx_hal_flash_ex.c **** 
 1350              		.loc 1 266 3 is_stmt 1 view .LVU357
 266:Drivers/STM32WLxx_HAL_Driver/Src/stm32wlxx_hal_flash_ex.c **** 
 1351              		.loc 1 266 39 is_stmt 0 view .LVU358
 1352 0016 0268     		ldr	r2, [r0]
 266:Drivers/STM32WLxx_HAL_Driver/Src/stm32wlxx_hal_flash_ex.c **** 
 1353              		.loc 1 266 27 view .LVU359
 1354 0018 9A60     		str	r2, [r3, #8]
 269:Drivers/STM32WLxx_HAL_Driver/Src/stm32wlxx_hal_flash_ex.c **** 
 1355              		.loc 1 269 3 is_stmt 1 view .LVU360
 269:Drivers/STM32WLxx_HAL_Driver/Src/stm32wlxx_hal_flash_ex.c **** 
 1356              		.loc 1 269 12 is_stmt 0 view .LVU361
 1357 001a 4FF47A70 		mov	r0, #1000
 1358              	.LVL104:
 269:Drivers/STM32WLxx_HAL_Driver/Src/stm32wlxx_hal_flash_ex.c **** 
 1359              		.loc 1 269 12 view .LVU362
 1360 001e FFF7FEFF 		bl	FLASH_WaitForLastOperation
 1361              	.LVL105:
 271:Drivers/STM32WLxx_HAL_Driver/Src/stm32wlxx_hal_flash_ex.c ****   {
 1362              		.loc 1 271 3 is_stmt 1 view .LVU363
 271:Drivers/STM32WLxx_HAL_Driver/Src/stm32wlxx_hal_flash_ex.c ****   {
 1363              		.loc 1 271 6 is_stmt 0 view .LVU364
 1364 0022 0546     		mov	r5, r0
 1365 0024 20B1     		cbz	r0, .L124
 274:Drivers/STM32WLxx_HAL_Driver/Src/stm32wlxx_hal_flash_ex.c ****   }
 1366              		.loc 1 274 5 is_stmt 1 view .LVU365
 274:Drivers/STM32WLxx_HAL_Driver/Src/stm32wlxx_hal_flash_ex.c ****   }
 1367              		.loc 1 274 5 view .LVU366
 1368 0026 0E4B     		ldr	r3, .L129
 1369 0028 0022     		movs	r2, #0
 1370 002a 1A70     		strb	r2, [r3]
 274:Drivers/STM32WLxx_HAL_Driver/Src/stm32wlxx_hal_flash_ex.c ****   }
 1371              		.loc 1 274 5 view .LVU367
 1372              	.LVL106:
 1373              	.L123:
 302:Drivers/STM32WLxx_HAL_Driver/Src/stm32wlxx_hal_flash_ex.c **** 
 1374              		.loc 1 302 1 is_stmt 0 view .LVU368
 1375 002c 2846     		mov	r0, r5
 1376 002e 38BD     		pop	{r3, r4, r5, pc}
 1377              	.LVL107:
 1378              	.L124:
 279:Drivers/STM32WLxx_HAL_Driver/Src/stm32wlxx_hal_flash_ex.c **** 
 1379              		.loc 1 279 5 is_stmt 1 view .LVU369
ARM GAS  /tmp/cclRXqpz.s 			page 51


 279:Drivers/STM32WLxx_HAL_Driver/Src/stm32wlxx_hal_flash_ex.c **** 
 1380              		.loc 1 279 5 view .LVU370
 279:Drivers/STM32WLxx_HAL_Driver/Src/stm32wlxx_hal_flash_ex.c **** 
 1381              		.loc 1 279 5 discriminator 3 view .LVU371
 279:Drivers/STM32WLxx_HAL_Driver/Src/stm32wlxx_hal_flash_ex.c **** 
 1382              		.loc 1 279 5 discriminator 4 view .LVU372
 1383 0030 0C4A     		ldr	r2, .L129+4
 1384 0032 5369     		ldr	r3, [r2, #20]
 1385 0034 43F04073 		orr	r3, r3, #50331648
 1386 0038 5361     		str	r3, [r2, #20]
 279:Drivers/STM32WLxx_HAL_Driver/Src/stm32wlxx_hal_flash_ex.c **** 
 1387              		.loc 1 279 5 discriminator 6 view .LVU373
 281:Drivers/STM32WLxx_HAL_Driver/Src/stm32wlxx_hal_flash_ex.c ****     {
 1388              		.loc 1 281 5 view .LVU374
 281:Drivers/STM32WLxx_HAL_Driver/Src/stm32wlxx_hal_flash_ex.c ****     {
 1389              		.loc 1 281 19 is_stmt 0 view .LVU375
 1390 003a 2368     		ldr	r3, [r4]
 281:Drivers/STM32WLxx_HAL_Driver/Src/stm32wlxx_hal_flash_ex.c ****     {
 1391              		.loc 1 281 8 view .LVU376
 1392 003c 042B     		cmp	r3, #4
 1393 003e 07D0     		beq	.L128
 292:Drivers/STM32WLxx_HAL_Driver/Src/stm32wlxx_hal_flash_ex.c ****       pFlash.Page = pEraseInit->Page;
 1394              		.loc 1 292 7 is_stmt 1 view .LVU377
 292:Drivers/STM32WLxx_HAL_Driver/Src/stm32wlxx_hal_flash_ex.c ****       pFlash.Page = pEraseInit->Page;
 1395              		.loc 1 292 41 is_stmt 0 view .LVU378
 1396 0040 A268     		ldr	r2, [r4, #8]
 292:Drivers/STM32WLxx_HAL_Driver/Src/stm32wlxx_hal_flash_ex.c ****       pFlash.Page = pEraseInit->Page;
 1397              		.loc 1 292 29 view .LVU379
 1398 0042 074B     		ldr	r3, .L129
 1399 0044 5A61     		str	r2, [r3, #20]
 293:Drivers/STM32WLxx_HAL_Driver/Src/stm32wlxx_hal_flash_ex.c **** 
 1400              		.loc 1 293 7 is_stmt 1 view .LVU380
 293:Drivers/STM32WLxx_HAL_Driver/Src/stm32wlxx_hal_flash_ex.c **** 
 1401              		.loc 1 293 31 is_stmt 0 view .LVU381
 1402 0046 6068     		ldr	r0, [r4, #4]
 1403              	.LVL108:
 293:Drivers/STM32WLxx_HAL_Driver/Src/stm32wlxx_hal_flash_ex.c **** 
 1404              		.loc 1 293 19 view .LVU382
 1405 0048 1861     		str	r0, [r3, #16]
 296:Drivers/STM32WLxx_HAL_Driver/Src/stm32wlxx_hal_flash_ex.c ****     }
 1406              		.loc 1 296 7 is_stmt 1 view .LVU383
 1407 004a FFF7FEFF 		bl	FLASH_PageErase
 1408              	.LVL109:
 1409 004e EDE7     		b	.L123
 1410              	.LVL110:
 1411              	.L128:
 284:Drivers/STM32WLxx_HAL_Driver/Src/stm32wlxx_hal_flash_ex.c **** 
 1412              		.loc 1 284 7 view .LVU384
 284:Drivers/STM32WLxx_HAL_Driver/Src/stm32wlxx_hal_flash_ex.c **** 
 1413              		.loc 1 284 19 is_stmt 0 view .LVU385
 1414 0050 034B     		ldr	r3, .L129
 1415 0052 0022     		movs	r2, #0
 1416 0054 1A61     		str	r2, [r3, #16]
 287:Drivers/STM32WLxx_HAL_Driver/Src/stm32wlxx_hal_flash_ex.c ****     }
 1417              		.loc 1 287 7 is_stmt 1 view .LVU386
 1418 0056 FFF7FEFF 		bl	FLASH_MassErase
 1419              	.LVL111:
ARM GAS  /tmp/cclRXqpz.s 			page 52


 287:Drivers/STM32WLxx_HAL_Driver/Src/stm32wlxx_hal_flash_ex.c ****     }
 1420              		.loc 1 287 7 is_stmt 0 view .LVU387
 1421 005a E7E7     		b	.L123
 1422              	.LVL112:
 1423              	.L126:
 260:Drivers/STM32WLxx_HAL_Driver/Src/stm32wlxx_hal_flash_ex.c **** 
 1424              		.loc 1 260 3 discriminator 1 view .LVU388
 1425 005c 0225     		movs	r5, #2
 1426 005e E5E7     		b	.L123
 1427              	.L130:
 1428              		.align	2
 1429              	.L129:
 1430 0060 00000000 		.word	pFlash
 1431 0064 00400058 		.word	1476411392
 1432              		.cfi_endproc
 1433              	.LFE847:
 1435              		.text
 1436              	.Letext0:
 1437              		.file 2 "/home/zgsdlv/.arduino15/packages/STMicroelectronics/tools/xpack-arm-none-eabi-gcc/14.2.1-
 1438              		.file 3 "/home/zgsdlv/.arduino15/packages/STMicroelectronics/tools/xpack-arm-none-eabi-gcc/14.2.1-
 1439              		.file 4 "Drivers/CMSIS/Device/ST/STM32WLxx/Include/stm32wle5xx.h"
 1440              		.file 5 "Drivers/STM32WLxx_HAL_Driver/Inc/stm32wlxx_hal_def.h"
 1441              		.file 6 "Drivers/STM32WLxx_HAL_Driver/Inc/stm32wlxx_hal_flash.h"
 1442              		.file 7 "Drivers/STM32WLxx_HAL_Driver/Inc/stm32wlxx_ll_dma.h"
ARM GAS  /tmp/cclRXqpz.s 			page 53

