ARM GAS  /tmp/ccoREEzA.s 			page 1


   1              		.cpu cortex-m4
   2              		.arch armv7e-m
   3              		.fpu softvfp
   4              		.eabi_attribute 20, 1
   5              		.eabi_attribute 21, 1
   6              		.eabi_attribute 23, 3
   7              		.eabi_attribute 24, 1
   8              		.eabi_attribute 25, 1
   9              		.eabi_attribute 26, 1
  10              		.eabi_attribute 30, 1
  11              		.eabi_attribute 34, 1
  12              		.eabi_attribute 18, 4
  13              		.file	"stm32_timer.c"
  14              		.text
  15              	.Ltext0:
  16              		.cfi_sections	.debug_frame
  17              		.file 1 "Utilities/timer/stm32_timer.c"
  18              		.section	.text.UTIL_TIMER_Init,"ax",%progbits
  19              		.align	1
  20              		.global	UTIL_TIMER_Init
  21              		.syntax unified
  22              		.thumb
  23              		.thumb_func
  25              	UTIL_TIMER_Init:
  26              	.LFB106:
   1:Utilities/timer/stm32_timer.c **** /*!
   2:Utilities/timer/stm32_timer.c ****  * \file      timer.c
   3:Utilities/timer/stm32_timer.c ****  *
   4:Utilities/timer/stm32_timer.c ****  * \brief     Timer objects and scheduling management implementation
   5:Utilities/timer/stm32_timer.c ****  *
   6:Utilities/timer/stm32_timer.c ****  * \copyright Revised BSD License, see section \ref LICENSE.
   7:Utilities/timer/stm32_timer.c ****  *
   8:Utilities/timer/stm32_timer.c ****  * \code
   9:Utilities/timer/stm32_timer.c ****  *                ______                              _
  10:Utilities/timer/stm32_timer.c ****  *               / _____)             _              | |
  11:Utilities/timer/stm32_timer.c ****  *              ( (____  _____ ____ _| |_ _____  ____| |__
  12:Utilities/timer/stm32_timer.c ****  *               \____ \| ___ |    (_   _) ___ |/ ___)  _ \
  13:Utilities/timer/stm32_timer.c ****  *               _____) ) ____| | | || |_| ____( (___| | | |
  14:Utilities/timer/stm32_timer.c ****  *              (______/|_____)_|_|_| \__)_____)\____)_| |_|
  15:Utilities/timer/stm32_timer.c ****  *              (C)2013-2017 Semtech
  16:Utilities/timer/stm32_timer.c ****  *
  17:Utilities/timer/stm32_timer.c ****  * \endcode
  18:Utilities/timer/stm32_timer.c ****  *
  19:Utilities/timer/stm32_timer.c ****  * \author    Miguel Luis ( Semtech )
  20:Utilities/timer/stm32_timer.c ****  *
  21:Utilities/timer/stm32_timer.c ****  * \author    Gregory Cristian ( Semtech )
  22:Utilities/timer/stm32_timer.c ****  */
  23:Utilities/timer/stm32_timer.c **** 
  24:Utilities/timer/stm32_timer.c **** /******************************************************************************
  25:Utilities/timer/stm32_timer.c ****  * @file    stm32_timer.c
  26:Utilities/timer/stm32_timer.c ****  * @author  MCD Application Team
  27:Utilities/timer/stm32_timer.c ****  * @brief   Time server utility
  28:Utilities/timer/stm32_timer.c ****  ******************************************************************************
  29:Utilities/timer/stm32_timer.c ****  * @attention
  30:Utilities/timer/stm32_timer.c ****  *
  31:Utilities/timer/stm32_timer.c ****  * <h2><center>&copy; Copyright (c) 2019 STMicroelectronics.
  32:Utilities/timer/stm32_timer.c ****  * All rights reserved.</center></h2>
ARM GAS  /tmp/ccoREEzA.s 			page 2


  33:Utilities/timer/stm32_timer.c ****  *
  34:Utilities/timer/stm32_timer.c ****  * This software is licensed under terms that can be found in the LICENSE file
  35:Utilities/timer/stm32_timer.c ****  * in the root directory of this software component.
  36:Utilities/timer/stm32_timer.c ****  * If no LICENSE file comes with this software, it is provided AS-IS.
  37:Utilities/timer/stm32_timer.c ****  *
  38:Utilities/timer/stm32_timer.c ****  ******************************************************************************
  39:Utilities/timer/stm32_timer.c ****  */
  40:Utilities/timer/stm32_timer.c **** 
  41:Utilities/timer/stm32_timer.c **** /* Includes ------------------------------------------------------------------*/
  42:Utilities/timer/stm32_timer.c **** #include "stm32_timer.h"
  43:Utilities/timer/stm32_timer.c **** 
  44:Utilities/timer/stm32_timer.c **** /** @addtogroup TIMER_SERVER
  45:Utilities/timer/stm32_timer.c ****   * @{
  46:Utilities/timer/stm32_timer.c ****   */
  47:Utilities/timer/stm32_timer.c **** 
  48:Utilities/timer/stm32_timer.c **** /* Private macro -----------------------------------------------------------*/
  49:Utilities/timer/stm32_timer.c **** /**
  50:Utilities/timer/stm32_timer.c ****  * @defgroup TIMER_SERVER_private_macro TIMER_SERVER private macros
  51:Utilities/timer/stm32_timer.c ****  *  @{
  52:Utilities/timer/stm32_timer.c ****  */
  53:Utilities/timer/stm32_timer.c **** /**
  54:Utilities/timer/stm32_timer.c ****   * @brief macro definition to initialize a critical section.
  55:Utilities/timer/stm32_timer.c ****   *
  56:Utilities/timer/stm32_timer.c ****   */
  57:Utilities/timer/stm32_timer.c **** #ifndef UTIL_TIMER_INIT_CRITICAL_SECTION
  58:Utilities/timer/stm32_timer.c ****   #define UTIL_TIMER_INIT_CRITICAL_SECTION( )
  59:Utilities/timer/stm32_timer.c **** #endif
  60:Utilities/timer/stm32_timer.c **** 
  61:Utilities/timer/stm32_timer.c **** /**
  62:Utilities/timer/stm32_timer.c ****   * @brief macro definition to enter a critical section.
  63:Utilities/timer/stm32_timer.c ****   *
  64:Utilities/timer/stm32_timer.c ****   */
  65:Utilities/timer/stm32_timer.c **** #ifndef UTIL_TIMER_ENTER_CRITICAL_SECTION
  66:Utilities/timer/stm32_timer.c ****   #define UTIL_TIMER_ENTER_CRITICAL_SECTION( )   UTILS_ENTER_CRITICAL_SECTION( )
  67:Utilities/timer/stm32_timer.c **** #endif
  68:Utilities/timer/stm32_timer.c **** 
  69:Utilities/timer/stm32_timer.c **** /**
  70:Utilities/timer/stm32_timer.c ****   * @brief macro definition to exit a critical section.
  71:Utilities/timer/stm32_timer.c ****   *
  72:Utilities/timer/stm32_timer.c ****   */
  73:Utilities/timer/stm32_timer.c **** #ifndef UTIL_TIMER_EXIT_CRITICAL_SECTION
  74:Utilities/timer/stm32_timer.c ****   #define UTIL_TIMER_EXIT_CRITICAL_SECTION( )    UTILS_EXIT_CRITICAL_SECTION( )
  75:Utilities/timer/stm32_timer.c **** #endif
  76:Utilities/timer/stm32_timer.c **** /**
  77:Utilities/timer/stm32_timer.c ****   *  @}
  78:Utilities/timer/stm32_timer.c ****   */
  79:Utilities/timer/stm32_timer.c ****  
  80:Utilities/timer/stm32_timer.c **** /* Private variables -----------------------------------------------------------*/
  81:Utilities/timer/stm32_timer.c **** /**
  82:Utilities/timer/stm32_timer.c ****  * @defgroup TIMER_SERVER_private_varaible TIMER_SERVER private variable
  83:Utilities/timer/stm32_timer.c ****  *  @{
  84:Utilities/timer/stm32_timer.c ****  */
  85:Utilities/timer/stm32_timer.c **** 
  86:Utilities/timer/stm32_timer.c **** /**
  87:Utilities/timer/stm32_timer.c ****   * @brief Timers list head pointer
  88:Utilities/timer/stm32_timer.c ****   *
  89:Utilities/timer/stm32_timer.c ****   */
ARM GAS  /tmp/ccoREEzA.s 			page 3


  90:Utilities/timer/stm32_timer.c **** static UTIL_TIMER_Object_t *TimerListHead = NULL;
  91:Utilities/timer/stm32_timer.c **** 
  92:Utilities/timer/stm32_timer.c **** /**
  93:Utilities/timer/stm32_timer.c ****   *  @}
  94:Utilities/timer/stm32_timer.c ****   */
  95:Utilities/timer/stm32_timer.c **** 
  96:Utilities/timer/stm32_timer.c **** /**
  97:Utilities/timer/stm32_timer.c ****  * @defgroup TIMER_SERVER_private_function TIMER_SERVER private function
  98:Utilities/timer/stm32_timer.c ****  *  @{
  99:Utilities/timer/stm32_timer.c ****  */
 100:Utilities/timer/stm32_timer.c **** 
 101:Utilities/timer/stm32_timer.c **** void TimerInsertNewHeadTimer( UTIL_TIMER_Object_t *TimerObject );
 102:Utilities/timer/stm32_timer.c **** void TimerInsertTimer( UTIL_TIMER_Object_t *TimerObject );
 103:Utilities/timer/stm32_timer.c **** void TimerSetTimeout( UTIL_TIMER_Object_t *TimerObject );
 104:Utilities/timer/stm32_timer.c **** bool TimerExists( UTIL_TIMER_Object_t *TimerObject );
 105:Utilities/timer/stm32_timer.c **** 
 106:Utilities/timer/stm32_timer.c **** /**
 107:Utilities/timer/stm32_timer.c ****   *  @}
 108:Utilities/timer/stm32_timer.c ****   */
 109:Utilities/timer/stm32_timer.c **** 
 110:Utilities/timer/stm32_timer.c **** /* Functions Definition ------------------------------------------------------*/
 111:Utilities/timer/stm32_timer.c **** /**
 112:Utilities/timer/stm32_timer.c ****   * @addtogroup TIMER_SERVER_exported_function
 113:Utilities/timer/stm32_timer.c ****   *  @{
 114:Utilities/timer/stm32_timer.c ****   */
 115:Utilities/timer/stm32_timer.c **** 
 116:Utilities/timer/stm32_timer.c **** UTIL_TIMER_Status_t UTIL_TIMER_Init(void)
 117:Utilities/timer/stm32_timer.c **** {
  27              		.loc 1 117 1 view -0
  28              		.cfi_startproc
  29              		@ args = 0, pretend = 0, frame = 0
  30              		@ frame_needed = 0, uses_anonymous_args = 0
  31 0000 08B5     		push	{r3, lr}
  32              		.cfi_def_cfa_offset 8
  33              		.cfi_offset 3, -8
  34              		.cfi_offset 14, -4
 118:Utilities/timer/stm32_timer.c ****   UTIL_TIMER_INIT_CRITICAL_SECTION();
  35              		.loc 1 118 37 view .LVU1
 119:Utilities/timer/stm32_timer.c ****   TimerListHead = NULL;
  36              		.loc 1 119 3 view .LVU2
  37              		.loc 1 119 17 is_stmt 0 view .LVU3
  38 0002 034B     		ldr	r3, .L3
  39 0004 0022     		movs	r2, #0
  40 0006 1A60     		str	r2, [r3]
 120:Utilities/timer/stm32_timer.c ****   return UTIL_TimerDriver.InitTimer();
  41              		.loc 1 120 3 is_stmt 1 view .LVU4
  42              		.loc 1 120 26 is_stmt 0 view .LVU5
  43 0008 024B     		ldr	r3, .L3+4
  44 000a 1B68     		ldr	r3, [r3]
  45              		.loc 1 120 10 view .LVU6
  46 000c 9847     		blx	r3
  47              	.LVL0:
 121:Utilities/timer/stm32_timer.c **** }
  48              		.loc 1 121 1 view .LVU7
  49 000e 08BD     		pop	{r3, pc}
  50              	.L4:
  51              		.align	2
ARM GAS  /tmp/ccoREEzA.s 			page 4


  52              	.L3:
  53 0010 00000000 		.word	TimerListHead
  54 0014 00000000 		.word	UTIL_TimerDriver
  55              		.cfi_endproc
  56              	.LFE106:
  58              		.section	.text.UTIL_TIMER_DeInit,"ax",%progbits
  59              		.align	1
  60              		.global	UTIL_TIMER_DeInit
  61              		.syntax unified
  62              		.thumb
  63              		.thumb_func
  65              	UTIL_TIMER_DeInit:
  66              	.LFB107:
 122:Utilities/timer/stm32_timer.c **** 
 123:Utilities/timer/stm32_timer.c **** UTIL_TIMER_Status_t UTIL_TIMER_DeInit(void)
 124:Utilities/timer/stm32_timer.c **** {
  67              		.loc 1 124 1 is_stmt 1 view -0
  68              		.cfi_startproc
  69              		@ args = 0, pretend = 0, frame = 0
  70              		@ frame_needed = 0, uses_anonymous_args = 0
  71 0000 08B5     		push	{r3, lr}
  72              		.cfi_def_cfa_offset 8
  73              		.cfi_offset 3, -8
  74              		.cfi_offset 14, -4
 125:Utilities/timer/stm32_timer.c ****   return UTIL_TimerDriver.DeInitTimer();
  75              		.loc 1 125 3 view .LVU9
  76              		.loc 1 125 26 is_stmt 0 view .LVU10
  77 0002 024B     		ldr	r3, .L7
  78 0004 5B68     		ldr	r3, [r3, #4]
  79              		.loc 1 125 10 view .LVU11
  80 0006 9847     		blx	r3
  81              	.LVL1:
 126:Utilities/timer/stm32_timer.c **** }
  82              		.loc 1 126 1 view .LVU12
  83 0008 08BD     		pop	{r3, pc}
  84              	.L8:
  85 000a 00BF     		.align	2
  86              	.L7:
  87 000c 00000000 		.word	UTIL_TimerDriver
  88              		.cfi_endproc
  89              	.LFE107:
  91              		.section	.text.UTIL_TIMER_Create,"ax",%progbits
  92              		.align	1
  93              		.global	UTIL_TIMER_Create
  94              		.syntax unified
  95              		.thumb
  96              		.thumb_func
  98              	UTIL_TIMER_Create:
  99              	.LVL2:
 100              	.LFB108:
 127:Utilities/timer/stm32_timer.c **** 
 128:Utilities/timer/stm32_timer.c **** UTIL_TIMER_Status_t UTIL_TIMER_Create( UTIL_TIMER_Object_t *TimerObject, uint32_t PeriodValue, UTIL
 129:Utilities/timer/stm32_timer.c **** {
 101              		.loc 1 129 1 is_stmt 1 view -0
 102              		.cfi_startproc
 103              		@ args = 4, pretend = 0, frame = 0
 104              		@ frame_needed = 0, uses_anonymous_args = 0
ARM GAS  /tmp/ccoREEzA.s 			page 5


 130:Utilities/timer/stm32_timer.c ****   if((TimerObject != NULL) && (Callback != NULL))
 105              		.loc 1 130 3 view .LVU14
 106              		.loc 1 130 5 is_stmt 0 view .LVU15
 107 0000 A8B1     		cbz	r0, .L11
 129:Utilities/timer/stm32_timer.c ****   if((TimerObject != NULL) && (Callback != NULL))
 108              		.loc 1 129 1 view .LVU16
 109 0002 F8B5     		push	{r3, r4, r5, r6, r7, lr}
 110              		.cfi_def_cfa_offset 24
 111              		.cfi_offset 3, -24
 112              		.cfi_offset 4, -20
 113              		.cfi_offset 5, -16
 114              		.cfi_offset 6, -12
 115              		.cfi_offset 7, -8
 116              		.cfi_offset 14, -4
 117 0004 1746     		mov	r7, r2
 118 0006 1E46     		mov	r6, r3
 119 0008 0446     		mov	r4, r0
 120              		.loc 1 130 28 discriminator 1 view .LVU17
 121 000a 93B1     		cbz	r3, .L12
 131:Utilities/timer/stm32_timer.c ****   {
 132:Utilities/timer/stm32_timer.c ****     TimerObject->Timestamp = 0U;
 122              		.loc 1 132 5 is_stmt 1 view .LVU18
 123              		.loc 1 132 28 is_stmt 0 view .LVU19
 124 000c 0025     		movs	r5, #0
 125 000e 0560     		str	r5, [r0]
 133:Utilities/timer/stm32_timer.c ****     TimerObject->ReloadValue = UTIL_TimerDriver.ms2Tick(PeriodValue);
 126              		.loc 1 133 5 is_stmt 1 view .LVU20
 127              		.loc 1 133 48 is_stmt 0 view .LVU21
 128 0010 094B     		ldr	r3, .L17
 129              	.LVL3:
 130              		.loc 1 133 48 view .LVU22
 131 0012 5B6A     		ldr	r3, [r3, #36]
 132              		.loc 1 133 32 view .LVU23
 133 0014 0846     		mov	r0, r1
 134              	.LVL4:
 135              		.loc 1 133 32 view .LVU24
 136 0016 9847     		blx	r3
 137              	.LVL5:
 138              		.loc 1 133 30 discriminator 1 view .LVU25
 139 0018 6060     		str	r0, [r4, #4]
 134:Utilities/timer/stm32_timer.c ****     TimerObject->IsPending = 0U;
 140              		.loc 1 134 5 is_stmt 1 view .LVU26
 141              		.loc 1 134 28 is_stmt 0 view .LVU27
 142 001a 2572     		strb	r5, [r4, #8]
 135:Utilities/timer/stm32_timer.c ****     TimerObject->IsRunning = 0U;
 143              		.loc 1 135 5 is_stmt 1 view .LVU28
 144              		.loc 1 135 28 is_stmt 0 view .LVU29
 145 001c 6572     		strb	r5, [r4, #9]
 136:Utilities/timer/stm32_timer.c ****     TimerObject->IsReloadStopped = 0U;
 146              		.loc 1 136 5 is_stmt 1 view .LVU30
 147              		.loc 1 136 34 is_stmt 0 view .LVU31
 148 001e A572     		strb	r5, [r4, #10]
 137:Utilities/timer/stm32_timer.c ****     TimerObject->Callback = Callback;
 149              		.loc 1 137 5 is_stmt 1 view .LVU32
 150              		.loc 1 137 27 is_stmt 0 view .LVU33
 151 0020 E660     		str	r6, [r4, #12]
 138:Utilities/timer/stm32_timer.c ****     TimerObject->argument = Argument;
ARM GAS  /tmp/ccoREEzA.s 			page 6


 152              		.loc 1 138 5 is_stmt 1 view .LVU34
 153              		.loc 1 138 27 is_stmt 0 view .LVU35
 154 0022 069B     		ldr	r3, [sp, #24]
 155 0024 2361     		str	r3, [r4, #16]
 139:Utilities/timer/stm32_timer.c ****     TimerObject->Mode = Mode;
 156              		.loc 1 139 5 is_stmt 1 view .LVU36
 157              		.loc 1 139 23 is_stmt 0 view .LVU37
 158 0026 E772     		strb	r7, [r4, #11]
 140:Utilities/timer/stm32_timer.c ****     TimerObject->Next = NULL;
 159              		.loc 1 140 5 is_stmt 1 view .LVU38
 160              		.loc 1 140 23 is_stmt 0 view .LVU39
 161 0028 6561     		str	r5, [r4, #20]
 141:Utilities/timer/stm32_timer.c ****     return UTIL_TIMER_OK;
 162              		.loc 1 141 5 is_stmt 1 view .LVU40
 163              		.loc 1 141 12 is_stmt 0 view .LVU41
 164 002a 2846     		mov	r0, r5
 165              	.L10:
 142:Utilities/timer/stm32_timer.c ****   }
 143:Utilities/timer/stm32_timer.c ****   else
 144:Utilities/timer/stm32_timer.c ****   {
 145:Utilities/timer/stm32_timer.c ****     return UTIL_TIMER_INVALID_PARAM;
 146:Utilities/timer/stm32_timer.c ****   }
 147:Utilities/timer/stm32_timer.c **** }
 166              		.loc 1 147 1 view .LVU42
 167 002c F8BD     		pop	{r3, r4, r5, r6, r7, pc}
 168              	.LVL6:
 169              	.L11:
 170              		.cfi_def_cfa_offset 0
 171              		.cfi_restore 3
 172              		.cfi_restore 4
 173              		.cfi_restore 5
 174              		.cfi_restore 6
 175              		.cfi_restore 7
 176              		.cfi_restore 14
 145:Utilities/timer/stm32_timer.c ****   }
 177              		.loc 1 145 12 view .LVU43
 178 002e 0120     		movs	r0, #1
 179              	.LVL7:
 180              		.loc 1 147 1 view .LVU44
 181 0030 7047     		bx	lr
 182              	.LVL8:
 183              	.L12:
 184              		.cfi_def_cfa_offset 24
 185              		.cfi_offset 3, -24
 186              		.cfi_offset 4, -20
 187              		.cfi_offset 5, -16
 188              		.cfi_offset 6, -12
 189              		.cfi_offset 7, -8
 190              		.cfi_offset 14, -4
 145:Utilities/timer/stm32_timer.c ****   }
 191              		.loc 1 145 12 view .LVU45
 192 0032 0120     		movs	r0, #1
 193              	.LVL9:
 145:Utilities/timer/stm32_timer.c ****   }
 194              		.loc 1 145 12 view .LVU46
 195 0034 FAE7     		b	.L10
 196              	.L18:
ARM GAS  /tmp/ccoREEzA.s 			page 7


 197 0036 00BF     		.align	2
 198              	.L17:
 199 0038 00000000 		.word	UTIL_TimerDriver
 200              		.cfi_endproc
 201              	.LFE108:
 203              		.section	.text.UTIL_TIMER_SetReloadMode,"ax",%progbits
 204              		.align	1
 205              		.global	UTIL_TIMER_SetReloadMode
 206              		.syntax unified
 207              		.thumb
 208              		.thumb_func
 210              	UTIL_TIMER_SetReloadMode:
 211              	.LVL10:
 212              	.LFB113:
 148:Utilities/timer/stm32_timer.c **** 
 149:Utilities/timer/stm32_timer.c **** UTIL_TIMER_Status_t UTIL_TIMER_Start( UTIL_TIMER_Object_t *TimerObject)
 150:Utilities/timer/stm32_timer.c **** {
 151:Utilities/timer/stm32_timer.c ****   UTIL_TIMER_Status_t  ret = UTIL_TIMER_OK;
 152:Utilities/timer/stm32_timer.c ****   uint32_t elapsedTime;
 153:Utilities/timer/stm32_timer.c ****   uint32_t minValue;
 154:Utilities/timer/stm32_timer.c ****   uint32_t ticks;
 155:Utilities/timer/stm32_timer.c ****     
 156:Utilities/timer/stm32_timer.c ****   if(( TimerObject != NULL ) && ( TimerExists( TimerObject ) == false ) && (TimerObject->IsRunning 
 157:Utilities/timer/stm32_timer.c ****   {
 158:Utilities/timer/stm32_timer.c ****     UTIL_TIMER_ENTER_CRITICAL_SECTION();
 159:Utilities/timer/stm32_timer.c ****     ticks = TimerObject->ReloadValue;
 160:Utilities/timer/stm32_timer.c ****     minValue = UTIL_TimerDriver.GetMinimumTimeout( );
 161:Utilities/timer/stm32_timer.c ****     
 162:Utilities/timer/stm32_timer.c ****     if( ticks < minValue )
 163:Utilities/timer/stm32_timer.c ****     {
 164:Utilities/timer/stm32_timer.c ****       ticks = minValue;
 165:Utilities/timer/stm32_timer.c ****     }
 166:Utilities/timer/stm32_timer.c ****     
 167:Utilities/timer/stm32_timer.c ****     TimerObject->Timestamp = ticks;
 168:Utilities/timer/stm32_timer.c ****     TimerObject->IsPending = 0U;
 169:Utilities/timer/stm32_timer.c ****     TimerObject->IsRunning = 1U;
 170:Utilities/timer/stm32_timer.c ****     TimerObject->IsReloadStopped = 0U;
 171:Utilities/timer/stm32_timer.c ****     if( TimerListHead == NULL )
 172:Utilities/timer/stm32_timer.c ****     {
 173:Utilities/timer/stm32_timer.c ****       UTIL_TimerDriver.SetTimerContext();
 174:Utilities/timer/stm32_timer.c ****       TimerInsertNewHeadTimer( TimerObject ); /* insert a timeout at now+obj->Timestamp */
 175:Utilities/timer/stm32_timer.c ****     }
 176:Utilities/timer/stm32_timer.c ****     else 
 177:Utilities/timer/stm32_timer.c ****     {
 178:Utilities/timer/stm32_timer.c ****       elapsedTime = UTIL_TimerDriver.GetTimerElapsedTime( );
 179:Utilities/timer/stm32_timer.c ****       TimerObject->Timestamp += elapsedTime;
 180:Utilities/timer/stm32_timer.c ****       
 181:Utilities/timer/stm32_timer.c ****       if( TimerObject->Timestamp < TimerListHead->Timestamp )
 182:Utilities/timer/stm32_timer.c ****       {
 183:Utilities/timer/stm32_timer.c ****         TimerInsertNewHeadTimer( TimerObject);
 184:Utilities/timer/stm32_timer.c ****       }
 185:Utilities/timer/stm32_timer.c ****       else
 186:Utilities/timer/stm32_timer.c ****       {
 187:Utilities/timer/stm32_timer.c ****         TimerInsertTimer( TimerObject);
 188:Utilities/timer/stm32_timer.c ****       }
 189:Utilities/timer/stm32_timer.c ****     }
 190:Utilities/timer/stm32_timer.c ****     UTIL_TIMER_EXIT_CRITICAL_SECTION();
ARM GAS  /tmp/ccoREEzA.s 			page 8


 191:Utilities/timer/stm32_timer.c ****   }
 192:Utilities/timer/stm32_timer.c ****   else
 193:Utilities/timer/stm32_timer.c ****   {
 194:Utilities/timer/stm32_timer.c ****     ret =  UTIL_TIMER_INVALID_PARAM;
 195:Utilities/timer/stm32_timer.c ****   }
 196:Utilities/timer/stm32_timer.c ****   return ret;
 197:Utilities/timer/stm32_timer.c **** }
 198:Utilities/timer/stm32_timer.c **** 
 199:Utilities/timer/stm32_timer.c **** UTIL_TIMER_Status_t UTIL_TIMER_StartWithPeriod( UTIL_TIMER_Object_t *TimerObject, uint32_t PeriodVa
 200:Utilities/timer/stm32_timer.c **** {
 201:Utilities/timer/stm32_timer.c ****   UTIL_TIMER_Status_t  ret = UTIL_TIMER_OK;
 202:Utilities/timer/stm32_timer.c **** 
 203:Utilities/timer/stm32_timer.c ****   if(NULL == TimerObject)
 204:Utilities/timer/stm32_timer.c ****   {
 205:Utilities/timer/stm32_timer.c ****     ret = UTIL_TIMER_INVALID_PARAM;
 206:Utilities/timer/stm32_timer.c ****   }
 207:Utilities/timer/stm32_timer.c ****   else
 208:Utilities/timer/stm32_timer.c ****   {
 209:Utilities/timer/stm32_timer.c ****     TimerObject->ReloadValue = UTIL_TimerDriver.ms2Tick(PeriodValue);
 210:Utilities/timer/stm32_timer.c ****     if(TimerExists(TimerObject))
 211:Utilities/timer/stm32_timer.c ****     {
 212:Utilities/timer/stm32_timer.c ****       (void)UTIL_TIMER_Stop(TimerObject);
 213:Utilities/timer/stm32_timer.c ****     }
 214:Utilities/timer/stm32_timer.c ****     ret = UTIL_TIMER_Start(TimerObject);
 215:Utilities/timer/stm32_timer.c ****   }
 216:Utilities/timer/stm32_timer.c ****   return ret;
 217:Utilities/timer/stm32_timer.c **** }
 218:Utilities/timer/stm32_timer.c **** 
 219:Utilities/timer/stm32_timer.c **** UTIL_TIMER_Status_t UTIL_TIMER_Stop( UTIL_TIMER_Object_t *TimerObject )
 220:Utilities/timer/stm32_timer.c **** {
 221:Utilities/timer/stm32_timer.c ****   UTIL_TIMER_Status_t  ret = UTIL_TIMER_OK;
 222:Utilities/timer/stm32_timer.c **** 
 223:Utilities/timer/stm32_timer.c ****   if (NULL != TimerObject)
 224:Utilities/timer/stm32_timer.c ****   {
 225:Utilities/timer/stm32_timer.c ****     UTIL_TIMER_ENTER_CRITICAL_SECTION();
 226:Utilities/timer/stm32_timer.c ****     UTIL_TIMER_Object_t* prev = TimerListHead;
 227:Utilities/timer/stm32_timer.c ****     UTIL_TIMER_Object_t* cur = TimerListHead;
 228:Utilities/timer/stm32_timer.c ****     TimerObject->IsReloadStopped = 1U;
 229:Utilities/timer/stm32_timer.c ****     
 230:Utilities/timer/stm32_timer.c ****     /* List is empty or the Obj to stop does not exist  */
 231:Utilities/timer/stm32_timer.c ****     if(NULL != TimerListHead)
 232:Utilities/timer/stm32_timer.c ****     {
 233:Utilities/timer/stm32_timer.c ****       TimerObject->IsRunning = 0U;
 234:Utilities/timer/stm32_timer.c ****       
 235:Utilities/timer/stm32_timer.c ****       if( TimerListHead == TimerObject ) /* Stop the Head */
 236:Utilities/timer/stm32_timer.c ****       {
 237:Utilities/timer/stm32_timer.c ****           TimerListHead->IsPending = 0;
 238:Utilities/timer/stm32_timer.c ****           if( TimerListHead->Next != NULL )
 239:Utilities/timer/stm32_timer.c ****           {
 240:Utilities/timer/stm32_timer.c ****             TimerListHead = TimerListHead->Next;
 241:Utilities/timer/stm32_timer.c ****             TimerSetTimeout( TimerListHead );
 242:Utilities/timer/stm32_timer.c ****           }
 243:Utilities/timer/stm32_timer.c ****           else
 244:Utilities/timer/stm32_timer.c ****           {
 245:Utilities/timer/stm32_timer.c ****             UTIL_TimerDriver.StopTimerEvt( );
 246:Utilities/timer/stm32_timer.c ****             TimerListHead = NULL;
 247:Utilities/timer/stm32_timer.c ****           }
ARM GAS  /tmp/ccoREEzA.s 			page 9


 248:Utilities/timer/stm32_timer.c ****       }
 249:Utilities/timer/stm32_timer.c ****       else /* Stop an object within the list */
 250:Utilities/timer/stm32_timer.c ****       {      
 251:Utilities/timer/stm32_timer.c ****         while( cur != NULL )
 252:Utilities/timer/stm32_timer.c ****         {
 253:Utilities/timer/stm32_timer.c ****           if( cur == TimerObject )
 254:Utilities/timer/stm32_timer.c ****           {
 255:Utilities/timer/stm32_timer.c ****             if( cur->Next != NULL )
 256:Utilities/timer/stm32_timer.c ****             {
 257:Utilities/timer/stm32_timer.c ****               cur = cur->Next;
 258:Utilities/timer/stm32_timer.c ****               prev->Next = cur;
 259:Utilities/timer/stm32_timer.c ****             }
 260:Utilities/timer/stm32_timer.c ****             else
 261:Utilities/timer/stm32_timer.c ****             {
 262:Utilities/timer/stm32_timer.c ****               cur = NULL;
 263:Utilities/timer/stm32_timer.c ****               prev->Next = cur;
 264:Utilities/timer/stm32_timer.c ****             }
 265:Utilities/timer/stm32_timer.c ****             break;
 266:Utilities/timer/stm32_timer.c ****           }
 267:Utilities/timer/stm32_timer.c ****           else
 268:Utilities/timer/stm32_timer.c ****           {
 269:Utilities/timer/stm32_timer.c ****             prev = cur;
 270:Utilities/timer/stm32_timer.c ****             cur = cur->Next;
 271:Utilities/timer/stm32_timer.c ****           }
 272:Utilities/timer/stm32_timer.c ****         }   
 273:Utilities/timer/stm32_timer.c ****       }
 274:Utilities/timer/stm32_timer.c ****       ret = UTIL_TIMER_OK;
 275:Utilities/timer/stm32_timer.c ****     }
 276:Utilities/timer/stm32_timer.c ****     UTIL_TIMER_EXIT_CRITICAL_SECTION();
 277:Utilities/timer/stm32_timer.c ****   }
 278:Utilities/timer/stm32_timer.c ****   else
 279:Utilities/timer/stm32_timer.c ****   {
 280:Utilities/timer/stm32_timer.c ****     ret = UTIL_TIMER_INVALID_PARAM;
 281:Utilities/timer/stm32_timer.c ****   }
 282:Utilities/timer/stm32_timer.c ****   return ret;
 283:Utilities/timer/stm32_timer.c **** }
 284:Utilities/timer/stm32_timer.c **** 
 285:Utilities/timer/stm32_timer.c **** UTIL_TIMER_Status_t UTIL_TIMER_SetPeriod(UTIL_TIMER_Object_t *TimerObject, uint32_t NewPeriodValue)
 286:Utilities/timer/stm32_timer.c **** {
 287:Utilities/timer/stm32_timer.c ****   UTIL_TIMER_Status_t  ret = UTIL_TIMER_OK;
 288:Utilities/timer/stm32_timer.c ****   
 289:Utilities/timer/stm32_timer.c ****   if(NULL == TimerObject)
 290:Utilities/timer/stm32_timer.c ****   {
 291:Utilities/timer/stm32_timer.c **** 	  ret = UTIL_TIMER_INVALID_PARAM;
 292:Utilities/timer/stm32_timer.c ****   }
 293:Utilities/timer/stm32_timer.c ****   else
 294:Utilities/timer/stm32_timer.c ****   {
 295:Utilities/timer/stm32_timer.c ****     TimerObject->ReloadValue = UTIL_TimerDriver.ms2Tick(NewPeriodValue);
 296:Utilities/timer/stm32_timer.c ****     if(TimerExists(TimerObject))
 297:Utilities/timer/stm32_timer.c ****     {
 298:Utilities/timer/stm32_timer.c ****       (void)UTIL_TIMER_Stop(TimerObject);
 299:Utilities/timer/stm32_timer.c ****       ret = UTIL_TIMER_Start(TimerObject);
 300:Utilities/timer/stm32_timer.c ****     }
 301:Utilities/timer/stm32_timer.c ****   }
 302:Utilities/timer/stm32_timer.c ****   return ret;
 303:Utilities/timer/stm32_timer.c **** }
 304:Utilities/timer/stm32_timer.c **** 
ARM GAS  /tmp/ccoREEzA.s 			page 10


 305:Utilities/timer/stm32_timer.c **** UTIL_TIMER_Status_t UTIL_TIMER_SetReloadMode(UTIL_TIMER_Object_t *TimerObject, UTIL_TIMER_Mode_t Re
 306:Utilities/timer/stm32_timer.c **** {
 213              		.loc 1 306 1 is_stmt 1 view -0
 214              		.cfi_startproc
 215              		@ args = 0, pretend = 0, frame = 0
 216              		@ frame_needed = 0, uses_anonymous_args = 0
 217              		@ link register save eliminated.
 307:Utilities/timer/stm32_timer.c ****   UTIL_TIMER_Status_t  ret = UTIL_TIMER_OK;
 218              		.loc 1 307 3 view .LVU48
 308:Utilities/timer/stm32_timer.c **** 
 309:Utilities/timer/stm32_timer.c ****   if(NULL == TimerObject)
 219              		.loc 1 309 3 view .LVU49
 220              		.loc 1 309 5 is_stmt 0 view .LVU50
 221 0000 10B1     		cbz	r0, .L21
 310:Utilities/timer/stm32_timer.c ****   {
 311:Utilities/timer/stm32_timer.c **** 	ret = UTIL_TIMER_INVALID_PARAM;
 312:Utilities/timer/stm32_timer.c ****   }
 313:Utilities/timer/stm32_timer.c ****   else
 314:Utilities/timer/stm32_timer.c ****   {
 315:Utilities/timer/stm32_timer.c **** 	TimerObject->Mode = ReloadMode;
 222              		.loc 1 315 2 is_stmt 1 view .LVU51
 223              		.loc 1 315 20 is_stmt 0 view .LVU52
 224 0002 C172     		strb	r1, [r0, #11]
 307:Utilities/timer/stm32_timer.c **** 
 225              		.loc 1 307 24 view .LVU53
 226 0004 0020     		movs	r0, #0
 227              	.LVL11:
 307:Utilities/timer/stm32_timer.c **** 
 228              		.loc 1 307 24 view .LVU54
 229 0006 7047     		bx	lr
 230              	.LVL12:
 231              	.L21:
 311:Utilities/timer/stm32_timer.c ****   }
 232              		.loc 1 311 6 view .LVU55
 233 0008 0120     		movs	r0, #1
 234              	.LVL13:
 316:Utilities/timer/stm32_timer.c ****   }
 317:Utilities/timer/stm32_timer.c ****   return ret;
 235              		.loc 1 317 3 is_stmt 1 view .LVU56
 318:Utilities/timer/stm32_timer.c **** }
 236              		.loc 1 318 1 is_stmt 0 view .LVU57
 237 000a 7047     		bx	lr
 238              		.cfi_endproc
 239              	.LFE113:
 241              		.section	.text.UTIL_TIMER_IsRunning,"ax",%progbits
 242              		.align	1
 243              		.global	UTIL_TIMER_IsRunning
 244              		.syntax unified
 245              		.thumb
 246              		.thumb_func
 248              	UTIL_TIMER_IsRunning:
 249              	.LVL14:
 250              	.LFB115:
 319:Utilities/timer/stm32_timer.c **** 
 320:Utilities/timer/stm32_timer.c **** UTIL_TIMER_Status_t UTIL_TIMER_GetRemainingTime(UTIL_TIMER_Object_t *TimerObject, uint32_t *Elapsed
 321:Utilities/timer/stm32_timer.c **** {
 322:Utilities/timer/stm32_timer.c ****   UTIL_TIMER_Status_t ret = UTIL_TIMER_OK;
ARM GAS  /tmp/ccoREEzA.s 			page 11


 323:Utilities/timer/stm32_timer.c ****   if(TimerExists(TimerObject))
 324:Utilities/timer/stm32_timer.c ****   {
 325:Utilities/timer/stm32_timer.c ****     uint32_t time = UTIL_TimerDriver.GetTimerElapsedTime();
 326:Utilities/timer/stm32_timer.c ****     if (TimerObject->Timestamp < time )
 327:Utilities/timer/stm32_timer.c ****     {
 328:Utilities/timer/stm32_timer.c ****       *ElapsedTime = 0;
 329:Utilities/timer/stm32_timer.c ****     }
 330:Utilities/timer/stm32_timer.c ****     else
 331:Utilities/timer/stm32_timer.c ****     {
 332:Utilities/timer/stm32_timer.c ****       *ElapsedTime = TimerObject->Timestamp - time;
 333:Utilities/timer/stm32_timer.c ****     }
 334:Utilities/timer/stm32_timer.c ****   }
 335:Utilities/timer/stm32_timer.c ****   else
 336:Utilities/timer/stm32_timer.c ****   {
 337:Utilities/timer/stm32_timer.c ****     ret = UTIL_TIMER_INVALID_PARAM;
 338:Utilities/timer/stm32_timer.c ****   }
 339:Utilities/timer/stm32_timer.c ****   return ret;
 340:Utilities/timer/stm32_timer.c **** }
 341:Utilities/timer/stm32_timer.c **** 
 342:Utilities/timer/stm32_timer.c **** uint32_t UTIL_TIMER_IsRunning( UTIL_TIMER_Object_t *TimerObject )
 343:Utilities/timer/stm32_timer.c **** {
 251              		.loc 1 343 1 is_stmt 1 view -0
 252              		.cfi_startproc
 253              		@ args = 0, pretend = 0, frame = 0
 254              		@ frame_needed = 0, uses_anonymous_args = 0
 255              		@ link register save eliminated.
 344:Utilities/timer/stm32_timer.c ****   if( TimerObject != NULL )
 256              		.loc 1 344 3 view .LVU59
 257              		.loc 1 344 5 is_stmt 0 view .LVU60
 258 0000 08B1     		cbz	r0, .L24
 345:Utilities/timer/stm32_timer.c ****   {
 346:Utilities/timer/stm32_timer.c ****     return TimerObject->IsRunning;
 259              		.loc 1 346 5 is_stmt 1 view .LVU61
 260              		.loc 1 346 23 is_stmt 0 view .LVU62
 261 0002 407A     		ldrb	r0, [r0, #9]	@ zero_extendqisi2
 262              	.LVL15:
 263              		.loc 1 346 23 view .LVU63
 264 0004 7047     		bx	lr
 265              	.LVL16:
 266              	.L24:
 347:Utilities/timer/stm32_timer.c ****   }
 348:Utilities/timer/stm32_timer.c ****   else
 349:Utilities/timer/stm32_timer.c ****   {
 350:Utilities/timer/stm32_timer.c ****     return 0;
 267              		.loc 1 350 12 view .LVU64
 268 0006 0020     		movs	r0, #0
 269              	.LVL17:
 351:Utilities/timer/stm32_timer.c ****   }
 352:Utilities/timer/stm32_timer.c **** }
 270              		.loc 1 352 1 view .LVU65
 271 0008 7047     		bx	lr
 272              		.cfi_endproc
 273              	.LFE115:
 275              		.section	.text.UTIL_TIMER_GetCurrentTime,"ax",%progbits
 276              		.align	1
 277              		.global	UTIL_TIMER_GetCurrentTime
 278              		.syntax unified
ARM GAS  /tmp/ccoREEzA.s 			page 12


 279              		.thumb
 280              		.thumb_func
 282              	UTIL_TIMER_GetCurrentTime:
 283              	.LFB118:
 353:Utilities/timer/stm32_timer.c **** 
 354:Utilities/timer/stm32_timer.c **** uint32_t UTIL_TIMER_GetFirstRemainingTime(void)
 355:Utilities/timer/stm32_timer.c **** {
 356:Utilities/timer/stm32_timer.c **** 	uint32_t NextTimer = 0xFFFFFFFFU;
 357:Utilities/timer/stm32_timer.c **** 
 358:Utilities/timer/stm32_timer.c **** 	if(TimerListHead != NULL)
 359:Utilities/timer/stm32_timer.c **** 	{
 360:Utilities/timer/stm32_timer.c **** 		(void)UTIL_TIMER_GetRemainingTime(TimerListHead, &NextTimer);
 361:Utilities/timer/stm32_timer.c **** 	}
 362:Utilities/timer/stm32_timer.c **** 	return NextTimer;
 363:Utilities/timer/stm32_timer.c **** }
 364:Utilities/timer/stm32_timer.c **** 
 365:Utilities/timer/stm32_timer.c **** void UTIL_TIMER_IRQ_Handler( void )
 366:Utilities/timer/stm32_timer.c **** {
 367:Utilities/timer/stm32_timer.c ****   UTIL_TIMER_Object_t* cur;
 368:Utilities/timer/stm32_timer.c ****   uint32_t old, now, DeltaContext;
 369:Utilities/timer/stm32_timer.c **** 
 370:Utilities/timer/stm32_timer.c ****   UTIL_TIMER_ENTER_CRITICAL_SECTION();
 371:Utilities/timer/stm32_timer.c **** 
 372:Utilities/timer/stm32_timer.c ****   old  =  UTIL_TimerDriver.GetTimerContext( );
 373:Utilities/timer/stm32_timer.c ****   now  =  UTIL_TimerDriver.SetTimerContext( );
 374:Utilities/timer/stm32_timer.c **** 
 375:Utilities/timer/stm32_timer.c ****   DeltaContext = now  - old; /*intentional wrap around */
 376:Utilities/timer/stm32_timer.c ****   
 377:Utilities/timer/stm32_timer.c ****   /* update timeStamp based upon new Time Reference*/
 378:Utilities/timer/stm32_timer.c ****   /* because delta context should never exceed 2^32*/
 379:Utilities/timer/stm32_timer.c ****   if ( TimerListHead != NULL )
 380:Utilities/timer/stm32_timer.c ****   {
 381:Utilities/timer/stm32_timer.c ****     cur = TimerListHead;
 382:Utilities/timer/stm32_timer.c **** 	do {
 383:Utilities/timer/stm32_timer.c ****       if (cur->Timestamp > DeltaContext)
 384:Utilities/timer/stm32_timer.c ****       {
 385:Utilities/timer/stm32_timer.c ****         cur->Timestamp -= DeltaContext;
 386:Utilities/timer/stm32_timer.c ****       }
 387:Utilities/timer/stm32_timer.c ****       else
 388:Utilities/timer/stm32_timer.c ****       {
 389:Utilities/timer/stm32_timer.c ****         cur->Timestamp = 0;
 390:Utilities/timer/stm32_timer.c ****       }
 391:Utilities/timer/stm32_timer.c ****       cur = cur->Next;
 392:Utilities/timer/stm32_timer.c ****     } while(cur != NULL);
 393:Utilities/timer/stm32_timer.c ****   }
 394:Utilities/timer/stm32_timer.c **** 
 395:Utilities/timer/stm32_timer.c ****   /* Execute expired timer and update the list */
 396:Utilities/timer/stm32_timer.c ****   while ((TimerListHead != NULL) && ((TimerListHead->Timestamp == 0U) || (TimerListHead->Timestamp 
 397:Utilities/timer/stm32_timer.c ****   {
 398:Utilities/timer/stm32_timer.c ****       cur = TimerListHead;
 399:Utilities/timer/stm32_timer.c ****       TimerListHead = TimerListHead->Next;
 400:Utilities/timer/stm32_timer.c ****       cur->IsPending = 0;
 401:Utilities/timer/stm32_timer.c ****       cur->IsRunning = 0;
 402:Utilities/timer/stm32_timer.c ****       cur->Callback(cur->argument);
 403:Utilities/timer/stm32_timer.c ****       if(( cur->Mode == UTIL_TIMER_PERIODIC) && (cur->IsReloadStopped == 0U))
 404:Utilities/timer/stm32_timer.c ****       {
 405:Utilities/timer/stm32_timer.c ****         (void)UTIL_TIMER_Start(cur);
ARM GAS  /tmp/ccoREEzA.s 			page 13


 406:Utilities/timer/stm32_timer.c ****       }
 407:Utilities/timer/stm32_timer.c ****   }
 408:Utilities/timer/stm32_timer.c **** 
 409:Utilities/timer/stm32_timer.c ****   /* start the next TimerListHead if it exists and it is not pending*/
 410:Utilities/timer/stm32_timer.c ****   if(( TimerListHead != NULL ) && (TimerListHead->IsPending == 0U))
 411:Utilities/timer/stm32_timer.c ****   {
 412:Utilities/timer/stm32_timer.c ****     TimerSetTimeout( TimerListHead );
 413:Utilities/timer/stm32_timer.c ****   }
 414:Utilities/timer/stm32_timer.c ****   UTIL_TIMER_EXIT_CRITICAL_SECTION();
 415:Utilities/timer/stm32_timer.c **** }
 416:Utilities/timer/stm32_timer.c **** 
 417:Utilities/timer/stm32_timer.c **** UTIL_TIMER_Time_t UTIL_TIMER_GetCurrentTime(void)
 418:Utilities/timer/stm32_timer.c **** {
 284              		.loc 1 418 1 is_stmt 1 view -0
 285              		.cfi_startproc
 286              		@ args = 0, pretend = 0, frame = 0
 287              		@ frame_needed = 0, uses_anonymous_args = 0
 288 0000 10B5     		push	{r4, lr}
 289              		.cfi_def_cfa_offset 8
 290              		.cfi_offset 4, -8
 291              		.cfi_offset 14, -4
 419:Utilities/timer/stm32_timer.c ****   uint32_t now = UTIL_TimerDriver.GetTimerValue( );
 292              		.loc 1 419 3 view .LVU67
 293              		.loc 1 419 34 is_stmt 0 view .LVU68
 294 0002 034C     		ldr	r4, .L27
 295 0004 E369     		ldr	r3, [r4, #28]
 296              		.loc 1 419 18 view .LVU69
 297 0006 9847     		blx	r3
 298              	.LVL18:
 420:Utilities/timer/stm32_timer.c ****   return  UTIL_TimerDriver.Tick2ms(now);
 299              		.loc 1 420 3 is_stmt 1 view .LVU70
 300              		.loc 1 420 27 is_stmt 0 view .LVU71
 301 0008 A36A     		ldr	r3, [r4, #40]
 302              		.loc 1 420 11 view .LVU72
 303 000a 9847     		blx	r3
 304              	.LVL19:
 421:Utilities/timer/stm32_timer.c **** }
 305              		.loc 1 421 1 view .LVU73
 306 000c 10BD     		pop	{r4, pc}
 307              	.L28:
 308 000e 00BF     		.align	2
 309              	.L27:
 310 0010 00000000 		.word	UTIL_TimerDriver
 311              		.cfi_endproc
 312              	.LFE118:
 314              		.section	.text.UTIL_TIMER_GetElapsedTime,"ax",%progbits
 315              		.align	1
 316              		.global	UTIL_TIMER_GetElapsedTime
 317              		.syntax unified
 318              		.thumb
 319              		.thumb_func
 321              	UTIL_TIMER_GetElapsedTime:
 322              	.LVL20:
 323              	.LFB119:
 422:Utilities/timer/stm32_timer.c **** 
 423:Utilities/timer/stm32_timer.c **** UTIL_TIMER_Time_t UTIL_TIMER_GetElapsedTime(UTIL_TIMER_Time_t past )
 424:Utilities/timer/stm32_timer.c **** {
ARM GAS  /tmp/ccoREEzA.s 			page 14


 324              		.loc 1 424 1 is_stmt 1 view -0
 325              		.cfi_startproc
 326              		@ args = 0, pretend = 0, frame = 0
 327              		@ frame_needed = 0, uses_anonymous_args = 0
 328              		.loc 1 424 1 is_stmt 0 view .LVU75
 329 0000 70B5     		push	{r4, r5, r6, lr}
 330              		.cfi_def_cfa_offset 16
 331              		.cfi_offset 4, -16
 332              		.cfi_offset 5, -12
 333              		.cfi_offset 6, -8
 334              		.cfi_offset 14, -4
 335 0002 0646     		mov	r6, r0
 425:Utilities/timer/stm32_timer.c ****   uint32_t nowInTicks = UTIL_TimerDriver.GetTimerValue( );
 336              		.loc 1 425 3 is_stmt 1 view .LVU76
 337              		.loc 1 425 41 is_stmt 0 view .LVU77
 338 0004 054D     		ldr	r5, .L31
 339 0006 EB69     		ldr	r3, [r5, #28]
 340              		.loc 1 425 25 view .LVU78
 341 0008 9847     		blx	r3
 342              	.LVL21:
 343              		.loc 1 425 25 view .LVU79
 344 000a 0446     		mov	r4, r0
 345              	.LVL22:
 426:Utilities/timer/stm32_timer.c ****   uint32_t pastInTicks = UTIL_TimerDriver.ms2Tick( past );
 346              		.loc 1 426 3 is_stmt 1 view .LVU80
 347              		.loc 1 426 42 is_stmt 0 view .LVU81
 348 000c 6B6A     		ldr	r3, [r5, #36]
 349              		.loc 1 426 26 view .LVU82
 350 000e 3046     		mov	r0, r6
 351              	.LVL23:
 352              		.loc 1 426 26 view .LVU83
 353 0010 9847     		blx	r3
 354              	.LVL24:
 427:Utilities/timer/stm32_timer.c ****   /* intentional wrap around. Works Ok if tick duation below 1ms */
 428:Utilities/timer/stm32_timer.c ****   return UTIL_TimerDriver.Tick2ms( nowInTicks- pastInTicks );
 355              		.loc 1 428 3 is_stmt 1 view .LVU84
 356              		.loc 1 428 26 is_stmt 0 view .LVU85
 357 0012 AB6A     		ldr	r3, [r5, #40]
 358              		.loc 1 428 10 view .LVU86
 359 0014 201A     		subs	r0, r4, r0
 360              	.LVL25:
 361              		.loc 1 428 10 view .LVU87
 362 0016 9847     		blx	r3
 363              	.LVL26:
 429:Utilities/timer/stm32_timer.c **** }
 364              		.loc 1 429 1 view .LVU88
 365 0018 70BD     		pop	{r4, r5, r6, pc}
 366              	.LVL27:
 367              	.L32:
 368              		.loc 1 429 1 view .LVU89
 369 001a 00BF     		.align	2
 370              	.L31:
 371 001c 00000000 		.word	UTIL_TimerDriver
 372              		.cfi_endproc
 373              	.LFE119:
 375              		.section	.text.UTIL_TIMER_GetTimerList,"ax",%progbits
 376              		.align	1
ARM GAS  /tmp/ccoREEzA.s 			page 15


 377              		.global	UTIL_TIMER_GetTimerList
 378              		.syntax unified
 379              		.thumb
 380              		.thumb_func
 382              	UTIL_TIMER_GetTimerList:
 383              	.LFB120:
 430:Utilities/timer/stm32_timer.c **** 
 431:Utilities/timer/stm32_timer.c **** UTIL_TIMER_Object_t *UTIL_TIMER_GetTimerList(void)
 432:Utilities/timer/stm32_timer.c **** {
 384              		.loc 1 432 1 is_stmt 1 view -0
 385              		.cfi_startproc
 386              		@ args = 0, pretend = 0, frame = 0
 387              		@ frame_needed = 0, uses_anonymous_args = 0
 388              		@ link register save eliminated.
 433:Utilities/timer/stm32_timer.c ****   return TimerListHead;
 389              		.loc 1 433 3 view .LVU91
 434:Utilities/timer/stm32_timer.c **** }
 390              		.loc 1 434 1 is_stmt 0 view .LVU92
 391 0000 014B     		ldr	r3, .L34
 392 0002 1868     		ldr	r0, [r3]
 393 0004 7047     		bx	lr
 394              	.L35:
 395 0006 00BF     		.align	2
 396              	.L34:
 397 0008 00000000 		.word	TimerListHead
 398              		.cfi_endproc
 399              	.LFE120:
 401              		.section	.text.TimerExists,"ax",%progbits
 402              		.align	1
 403              		.global	TimerExists
 404              		.syntax unified
 405              		.thumb
 406              		.thumb_func
 408              	TimerExists:
 409              	.LVL28:
 410              	.LFB121:
 435:Utilities/timer/stm32_timer.c **** 
 436:Utilities/timer/stm32_timer.c **** /**
 437:Utilities/timer/stm32_timer.c ****   *  @}
 438:Utilities/timer/stm32_timer.c ****   */
 439:Utilities/timer/stm32_timer.c **** 
 440:Utilities/timer/stm32_timer.c **** /**************************** Private functions *******************************/
 441:Utilities/timer/stm32_timer.c **** 
 442:Utilities/timer/stm32_timer.c **** /**
 443:Utilities/timer/stm32_timer.c ****   *  @addtogroup TIMER_SERVER_private_function
 444:Utilities/timer/stm32_timer.c ****   *
 445:Utilities/timer/stm32_timer.c ****   *  @{
 446:Utilities/timer/stm32_timer.c ****   */
 447:Utilities/timer/stm32_timer.c **** /**
 448:Utilities/timer/stm32_timer.c ****  * @brief Check if the Object to be added is not already in the list
 449:Utilities/timer/stm32_timer.c ****  *
 450:Utilities/timer/stm32_timer.c ****  * @param TimerObject Structure containing the timer object parameters
 451:Utilities/timer/stm32_timer.c ****  * @retval 1 (the object is already in the list) or 0
 452:Utilities/timer/stm32_timer.c ****  */
 453:Utilities/timer/stm32_timer.c **** bool TimerExists( UTIL_TIMER_Object_t *TimerObject )
 454:Utilities/timer/stm32_timer.c **** {
 411              		.loc 1 454 1 is_stmt 1 view -0
ARM GAS  /tmp/ccoREEzA.s 			page 16


 412              		.cfi_startproc
 413              		@ args = 0, pretend = 0, frame = 0
 414              		@ frame_needed = 0, uses_anonymous_args = 0
 415              		@ link register save eliminated.
 455:Utilities/timer/stm32_timer.c ****   UTIL_TIMER_Object_t* cur = TimerListHead;
 416              		.loc 1 455 3 view .LVU94
 417              		.loc 1 455 24 is_stmt 0 view .LVU95
 418 0000 054B     		ldr	r3, .L43
 419 0002 1B68     		ldr	r3, [r3]
 420              	.LVL29:
 456:Utilities/timer/stm32_timer.c **** 
 457:Utilities/timer/stm32_timer.c ****   while( cur != NULL )
 421              		.loc 1 457 3 is_stmt 1 view .LVU96
 422              		.loc 1 457 8 is_stmt 0 view .LVU97
 423 0004 00E0     		b	.L37
 424              	.L42:
 458:Utilities/timer/stm32_timer.c ****   {
 459:Utilities/timer/stm32_timer.c ****     if( cur == TimerObject )
 460:Utilities/timer/stm32_timer.c ****     {
 461:Utilities/timer/stm32_timer.c ****       return true;
 462:Utilities/timer/stm32_timer.c ****     }
 463:Utilities/timer/stm32_timer.c ****     cur = cur->Next;
 425              		.loc 1 463 5 is_stmt 1 view .LVU98
 426              		.loc 1 463 9 is_stmt 0 view .LVU99
 427 0006 5B69     		ldr	r3, [r3, #20]
 428              	.LVL30:
 429              	.L37:
 457:Utilities/timer/stm32_timer.c ****   {
 430              		.loc 1 457 14 is_stmt 1 view .LVU100
 431 0008 1BB1     		cbz	r3, .L41
 459:Utilities/timer/stm32_timer.c ****     {
 432              		.loc 1 459 5 view .LVU101
 459:Utilities/timer/stm32_timer.c ****     {
 433              		.loc 1 459 7 is_stmt 0 view .LVU102
 434 000a 8342     		cmp	r3, r0
 435 000c FBD1     		bne	.L42
 461:Utilities/timer/stm32_timer.c ****     }
 436              		.loc 1 461 14 view .LVU103
 437 000e 0120     		movs	r0, #1
 438              	.LVL31:
 464:Utilities/timer/stm32_timer.c ****   }
 465:Utilities/timer/stm32_timer.c ****   return false;
 466:Utilities/timer/stm32_timer.c **** }
 439              		.loc 1 466 1 view .LVU104
 440 0010 7047     		bx	lr
 441              	.LVL32:
 442              	.L41:
 465:Utilities/timer/stm32_timer.c **** }
 443              		.loc 1 465 10 view .LVU105
 444 0012 0020     		movs	r0, #0
 445              	.LVL33:
 465:Utilities/timer/stm32_timer.c **** }
 446              		.loc 1 465 10 view .LVU106
 447 0014 7047     		bx	lr
 448              	.L44:
 449 0016 00BF     		.align	2
 450              	.L43:
ARM GAS  /tmp/ccoREEzA.s 			page 17


 451 0018 00000000 		.word	TimerListHead
 452              		.cfi_endproc
 453              	.LFE121:
 455              		.section	.text.UTIL_TIMER_GetRemainingTime,"ax",%progbits
 456              		.align	1
 457              		.global	UTIL_TIMER_GetRemainingTime
 458              		.syntax unified
 459              		.thumb
 460              		.thumb_func
 462              	UTIL_TIMER_GetRemainingTime:
 463              	.LVL34:
 464              	.LFB114:
 321:Utilities/timer/stm32_timer.c ****   UTIL_TIMER_Status_t ret = UTIL_TIMER_OK;
 465              		.loc 1 321 1 is_stmt 1 view -0
 466              		.cfi_startproc
 467              		@ args = 0, pretend = 0, frame = 0
 468              		@ frame_needed = 0, uses_anonymous_args = 0
 321:Utilities/timer/stm32_timer.c ****   UTIL_TIMER_Status_t ret = UTIL_TIMER_OK;
 469              		.loc 1 321 1 is_stmt 0 view .LVU108
 470 0000 38B5     		push	{r3, r4, r5, lr}
 471              		.cfi_def_cfa_offset 16
 472              		.cfi_offset 3, -16
 473              		.cfi_offset 4, -12
 474              		.cfi_offset 5, -8
 475              		.cfi_offset 14, -4
 476 0002 0446     		mov	r4, r0
 477 0004 0D46     		mov	r5, r1
 322:Utilities/timer/stm32_timer.c ****   if(TimerExists(TimerObject))
 478              		.loc 1 322 3 is_stmt 1 view .LVU109
 479              	.LVL35:
 323:Utilities/timer/stm32_timer.c ****   {
 480              		.loc 1 323 3 view .LVU110
 323:Utilities/timer/stm32_timer.c ****   {
 481              		.loc 1 323 6 is_stmt 0 view .LVU111
 482 0006 FFF7FEFF 		bl	TimerExists
 483              	.LVL36:
 323:Utilities/timer/stm32_timer.c ****   {
 484              		.loc 1 323 5 discriminator 1 view .LVU112
 485 000a 60B1     		cbz	r0, .L48
 486              	.LBB22:
 325:Utilities/timer/stm32_timer.c ****     if (TimerObject->Timestamp < time )
 487              		.loc 1 325 5 is_stmt 1 view .LVU113
 325:Utilities/timer/stm32_timer.c ****     if (TimerObject->Timestamp < time )
 488              		.loc 1 325 37 is_stmt 0 view .LVU114
 489 000c 074B     		ldr	r3, .L50
 490 000e 9B69     		ldr	r3, [r3, #24]
 325:Utilities/timer/stm32_timer.c ****     if (TimerObject->Timestamp < time )
 491              		.loc 1 325 21 view .LVU115
 492 0010 9847     		blx	r3
 493              	.LVL37:
 326:Utilities/timer/stm32_timer.c ****     {
 494              		.loc 1 326 5 is_stmt 1 view .LVU116
 326:Utilities/timer/stm32_timer.c ****     {
 495              		.loc 1 326 20 is_stmt 0 view .LVU117
 496 0012 2368     		ldr	r3, [r4]
 326:Utilities/timer/stm32_timer.c ****     {
 497              		.loc 1 326 8 view .LVU118
ARM GAS  /tmp/ccoREEzA.s 			page 18


 498 0014 8342     		cmp	r3, r0
 499 0016 02D2     		bcs	.L47
 328:Utilities/timer/stm32_timer.c ****     }
 500              		.loc 1 328 7 is_stmt 1 view .LVU119
 328:Utilities/timer/stm32_timer.c ****     }
 501              		.loc 1 328 20 is_stmt 0 view .LVU120
 502 0018 0020     		movs	r0, #0
 503              	.LVL38:
 328:Utilities/timer/stm32_timer.c ****     }
 504              		.loc 1 328 20 view .LVU121
 505 001a 2860     		str	r0, [r5]
 506 001c 04E0     		b	.L46
 507              	.LVL39:
 508              	.L47:
 332:Utilities/timer/stm32_timer.c ****     }
 509              		.loc 1 332 7 is_stmt 1 view .LVU122
 332:Utilities/timer/stm32_timer.c ****     }
 510              		.loc 1 332 45 is_stmt 0 view .LVU123
 511 001e 1B1A     		subs	r3, r3, r0
 332:Utilities/timer/stm32_timer.c ****     }
 512              		.loc 1 332 20 view .LVU124
 513 0020 2B60     		str	r3, [r5]
 514              	.LBE22:
 322:Utilities/timer/stm32_timer.c ****   if(TimerExists(TimerObject))
 515              		.loc 1 322 23 view .LVU125
 516 0022 0020     		movs	r0, #0
 517              	.LVL40:
 322:Utilities/timer/stm32_timer.c ****   if(TimerExists(TimerObject))
 518              		.loc 1 322 23 view .LVU126
 519 0024 00E0     		b	.L46
 520              	.LVL41:
 521              	.L48:
 337:Utilities/timer/stm32_timer.c ****   }
 522              		.loc 1 337 9 view .LVU127
 523 0026 0120     		movs	r0, #1
 524              	.L46:
 525              	.LVL42:
 339:Utilities/timer/stm32_timer.c **** }
 526              		.loc 1 339 3 is_stmt 1 view .LVU128
 340:Utilities/timer/stm32_timer.c **** 
 527              		.loc 1 340 1 is_stmt 0 view .LVU129
 528 0028 38BD     		pop	{r3, r4, r5, pc}
 529              	.LVL43:
 530              	.L51:
 340:Utilities/timer/stm32_timer.c **** 
 531              		.loc 1 340 1 view .LVU130
 532 002a 00BF     		.align	2
 533              	.L50:
 534 002c 00000000 		.word	UTIL_TimerDriver
 535              		.cfi_endproc
 536              	.LFE114:
 538              		.section	.text.UTIL_TIMER_GetFirstRemainingTime,"ax",%progbits
 539              		.align	1
 540              		.global	UTIL_TIMER_GetFirstRemainingTime
 541              		.syntax unified
 542              		.thumb
 543              		.thumb_func
ARM GAS  /tmp/ccoREEzA.s 			page 19


 545              	UTIL_TIMER_GetFirstRemainingTime:
 546              	.LFB116:
 355:Utilities/timer/stm32_timer.c **** 	uint32_t NextTimer = 0xFFFFFFFFU;
 547              		.loc 1 355 1 is_stmt 1 view -0
 548              		.cfi_startproc
 549              		@ args = 0, pretend = 0, frame = 8
 550              		@ frame_needed = 0, uses_anonymous_args = 0
 551 0000 00B5     		push	{lr}
 552              		.cfi_def_cfa_offset 4
 553              		.cfi_offset 14, -4
 554 0002 83B0     		sub	sp, sp, #12
 555              		.cfi_def_cfa_offset 16
 356:Utilities/timer/stm32_timer.c **** 
 556              		.loc 1 356 2 view .LVU132
 356:Utilities/timer/stm32_timer.c **** 
 557              		.loc 1 356 11 is_stmt 0 view .LVU133
 558 0004 4FF0FF33 		mov	r3, #-1
 559 0008 0193     		str	r3, [sp, #4]
 358:Utilities/timer/stm32_timer.c **** 	{
 560              		.loc 1 358 2 is_stmt 1 view .LVU134
 358:Utilities/timer/stm32_timer.c **** 	{
 561              		.loc 1 358 19 is_stmt 0 view .LVU135
 562 000a 054B     		ldr	r3, .L55
 563 000c 1868     		ldr	r0, [r3]
 358:Utilities/timer/stm32_timer.c **** 	{
 564              		.loc 1 358 4 view .LVU136
 565 000e 10B1     		cbz	r0, .L53
 360:Utilities/timer/stm32_timer.c **** 	}
 566              		.loc 1 360 3 is_stmt 1 view .LVU137
 360:Utilities/timer/stm32_timer.c **** 	}
 567              		.loc 1 360 9 is_stmt 0 view .LVU138
 568 0010 01A9     		add	r1, sp, #4
 569 0012 FFF7FEFF 		bl	UTIL_TIMER_GetRemainingTime
 570              	.LVL44:
 571              	.L53:
 362:Utilities/timer/stm32_timer.c **** }
 572              		.loc 1 362 2 is_stmt 1 view .LVU139
 363:Utilities/timer/stm32_timer.c **** 
 573              		.loc 1 363 1 is_stmt 0 view .LVU140
 574 0016 0198     		ldr	r0, [sp, #4]
 575 0018 03B0     		add	sp, sp, #12
 576              		.cfi_def_cfa_offset 4
 577              		@ sp needed
 578 001a 5DF804FB 		ldr	pc, [sp], #4
 579              	.L56:
 580 001e 00BF     		.align	2
 581              	.L55:
 582 0020 00000000 		.word	TimerListHead
 583              		.cfi_endproc
 584              	.LFE116:
 586              		.section	.text.TimerSetTimeout,"ax",%progbits
 587              		.align	1
 588              		.global	TimerSetTimeout
 589              		.syntax unified
 590              		.thumb
 591              		.thumb_func
 593              	TimerSetTimeout:
ARM GAS  /tmp/ccoREEzA.s 			page 20


 594              	.LVL45:
 595              	.LFB122:
 467:Utilities/timer/stm32_timer.c **** 
 468:Utilities/timer/stm32_timer.c **** /**
 469:Utilities/timer/stm32_timer.c ****  * @brief Sets a timeout with the duration "timestamp"
 470:Utilities/timer/stm32_timer.c ****  *
 471:Utilities/timer/stm32_timer.c ****  * @param TimerObject Structure containing the timer object parameters
 472:Utilities/timer/stm32_timer.c ****  */
 473:Utilities/timer/stm32_timer.c **** void TimerSetTimeout( UTIL_TIMER_Object_t *TimerObject )
 474:Utilities/timer/stm32_timer.c **** {
 596              		.loc 1 474 1 is_stmt 1 view -0
 597              		.cfi_startproc
 598              		@ args = 0, pretend = 0, frame = 0
 599              		@ frame_needed = 0, uses_anonymous_args = 0
 600              		.loc 1 474 1 is_stmt 0 view .LVU142
 601 0000 F8B5     		push	{r3, r4, r5, r6, r7, lr}
 602              		.cfi_def_cfa_offset 24
 603              		.cfi_offset 3, -24
 604              		.cfi_offset 4, -20
 605              		.cfi_offset 5, -16
 606              		.cfi_offset 6, -12
 607              		.cfi_offset 7, -8
 608              		.cfi_offset 14, -4
 609 0002 0446     		mov	r4, r0
 475:Utilities/timer/stm32_timer.c ****   uint32_t minTicks= UTIL_TimerDriver.GetMinimumTimeout( );
 610              		.loc 1 475 3 is_stmt 1 view .LVU143
 611              		.loc 1 475 38 is_stmt 0 view .LVU144
 612 0004 094E     		ldr	r6, .L60
 613 0006 336A     		ldr	r3, [r6, #32]
 614              		.loc 1 475 22 view .LVU145
 615 0008 9847     		blx	r3
 616              	.LVL46:
 617              		.loc 1 475 22 view .LVU146
 618 000a 0546     		mov	r5, r0
 619              	.LVL47:
 476:Utilities/timer/stm32_timer.c ****   TimerObject->IsPending = 1;
 620              		.loc 1 476 3 is_stmt 1 view .LVU147
 621              		.loc 1 476 26 is_stmt 0 view .LVU148
 622 000c 0123     		movs	r3, #1
 623 000e 2372     		strb	r3, [r4, #8]
 477:Utilities/timer/stm32_timer.c **** 
 478:Utilities/timer/stm32_timer.c ****   /* In case deadline too soon */
 479:Utilities/timer/stm32_timer.c ****   if(TimerObject->Timestamp  < (UTIL_TimerDriver.GetTimerElapsedTime(  ) + minTicks) )
 624              		.loc 1 479 3 is_stmt 1 view .LVU149
 625              		.loc 1 479 17 is_stmt 0 view .LVU150
 626 0010 2768     		ldr	r7, [r4]
 627              		.loc 1 479 49 view .LVU151
 628 0012 B669     		ldr	r6, [r6, #24]
 629              		.loc 1 479 33 view .LVU152
 630 0014 B047     		blx	r6
 631              	.LVL48:
 632              		.loc 1 479 74 discriminator 1 view .LVU153
 633 0016 2844     		add	r0, r0, r5
 634              		.loc 1 479 5 discriminator 1 view .LVU154
 635 0018 8742     		cmp	r7, r0
 636 001a 02D2     		bcs	.L58
 480:Utilities/timer/stm32_timer.c ****   {
ARM GAS  /tmp/ccoREEzA.s 			page 21


 481:Utilities/timer/stm32_timer.c **** 	  TimerObject->Timestamp = UTIL_TimerDriver.GetTimerElapsedTime(  ) + minTicks;
 637              		.loc 1 481 4 is_stmt 1 view .LVU155
 638              		.loc 1 481 29 is_stmt 0 view .LVU156
 639 001c B047     		blx	r6
 640              	.LVL49:
 641              		.loc 1 481 70 discriminator 1 view .LVU157
 642 001e 2844     		add	r0, r0, r5
 643              		.loc 1 481 27 discriminator 1 view .LVU158
 644 0020 2060     		str	r0, [r4]
 645              	.L58:
 482:Utilities/timer/stm32_timer.c ****   }
 483:Utilities/timer/stm32_timer.c ****   UTIL_TimerDriver.StartTimerEvt( TimerObject->Timestamp );
 646              		.loc 1 483 3 is_stmt 1 view .LVU159
 647              		.loc 1 483 19 is_stmt 0 view .LVU160
 648 0022 024B     		ldr	r3, .L60
 649 0024 9B68     		ldr	r3, [r3, #8]
 650              		.loc 1 483 3 view .LVU161
 651 0026 2068     		ldr	r0, [r4]
 652 0028 9847     		blx	r3
 653              	.LVL50:
 484:Utilities/timer/stm32_timer.c **** }
 654              		.loc 1 484 1 view .LVU162
 655 002a F8BD     		pop	{r3, r4, r5, r6, r7, pc}
 656              	.LVL51:
 657              	.L61:
 658              		.loc 1 484 1 view .LVU163
 659              		.align	2
 660              	.L60:
 661 002c 00000000 		.word	UTIL_TimerDriver
 662              		.cfi_endproc
 663              	.LFE122:
 665              		.section	.text.UTIL_TIMER_Stop,"ax",%progbits
 666              		.align	1
 667              		.global	UTIL_TIMER_Stop
 668              		.syntax unified
 669              		.thumb
 670              		.thumb_func
 672              	UTIL_TIMER_Stop:
 673              	.LVL52:
 674              	.LFB111:
 220:Utilities/timer/stm32_timer.c ****   UTIL_TIMER_Status_t  ret = UTIL_TIMER_OK;
 675              		.loc 1 220 1 is_stmt 1 view -0
 676              		.cfi_startproc
 677              		@ args = 0, pretend = 0, frame = 0
 678              		@ frame_needed = 0, uses_anonymous_args = 0
 221:Utilities/timer/stm32_timer.c **** 
 679              		.loc 1 221 3 view .LVU165
 223:Utilities/timer/stm32_timer.c ****   {
 680              		.loc 1 223 3 view .LVU166
 223:Utilities/timer/stm32_timer.c ****   {
 681              		.loc 1 223 6 is_stmt 0 view .LVU167
 682 0000 68B3     		cbz	r0, .L70
 220:Utilities/timer/stm32_timer.c ****   UTIL_TIMER_Status_t  ret = UTIL_TIMER_OK;
 683              		.loc 1 220 1 view .LVU168
 684 0002 10B5     		push	{r4, lr}
 685              		.cfi_def_cfa_offset 8
 686              		.cfi_offset 4, -8
ARM GAS  /tmp/ccoREEzA.s 			page 22


 687              		.cfi_offset 14, -4
 688 0004 0246     		mov	r2, r0
 689              	.LBB23:
 225:Utilities/timer/stm32_timer.c ****     UTIL_TIMER_Object_t* prev = TimerListHead;
 690              		.loc 1 225 5 is_stmt 1 view .LVU169
 691              	.LBB24:
 692              	.LBI24:
 693              		.file 2 "Drivers/CMSIS/Include/cmsis_gcc.h"
   1:Drivers/CMSIS/Include/cmsis_gcc.h **** /**************************************************************************//**
   2:Drivers/CMSIS/Include/cmsis_gcc.h ****  * @file     cmsis_gcc.h
   3:Drivers/CMSIS/Include/cmsis_gcc.h ****  * @brief    CMSIS compiler GCC header file
   4:Drivers/CMSIS/Include/cmsis_gcc.h ****  * @version  V5.4.1
   5:Drivers/CMSIS/Include/cmsis_gcc.h ****  * @date     27. May 2021
   6:Drivers/CMSIS/Include/cmsis_gcc.h ****  ******************************************************************************/
   7:Drivers/CMSIS/Include/cmsis_gcc.h **** /*
   8:Drivers/CMSIS/Include/cmsis_gcc.h ****  * Copyright (c) 2009-2021 Arm Limited. All rights reserved.
   9:Drivers/CMSIS/Include/cmsis_gcc.h ****  *
  10:Drivers/CMSIS/Include/cmsis_gcc.h ****  * SPDX-License-Identifier: Apache-2.0
  11:Drivers/CMSIS/Include/cmsis_gcc.h ****  *
  12:Drivers/CMSIS/Include/cmsis_gcc.h ****  * Licensed under the Apache License, Version 2.0 (the License); you may
  13:Drivers/CMSIS/Include/cmsis_gcc.h ****  * not use this file except in compliance with the License.
  14:Drivers/CMSIS/Include/cmsis_gcc.h ****  * You may obtain a copy of the License at
  15:Drivers/CMSIS/Include/cmsis_gcc.h ****  *
  16:Drivers/CMSIS/Include/cmsis_gcc.h ****  * www.apache.org/licenses/LICENSE-2.0
  17:Drivers/CMSIS/Include/cmsis_gcc.h ****  *
  18:Drivers/CMSIS/Include/cmsis_gcc.h ****  * Unless required by applicable law or agreed to in writing, software
  19:Drivers/CMSIS/Include/cmsis_gcc.h ****  * distributed under the License is distributed on an AS IS BASIS, WITHOUT
  20:Drivers/CMSIS/Include/cmsis_gcc.h ****  * WARRANTIES OR CONDITIONS OF ANY KIND, either express or implied.
  21:Drivers/CMSIS/Include/cmsis_gcc.h ****  * See the License for the specific language governing permissions and
  22:Drivers/CMSIS/Include/cmsis_gcc.h ****  * limitations under the License.
  23:Drivers/CMSIS/Include/cmsis_gcc.h ****  */
  24:Drivers/CMSIS/Include/cmsis_gcc.h **** 
  25:Drivers/CMSIS/Include/cmsis_gcc.h **** #ifndef __CMSIS_GCC_H
  26:Drivers/CMSIS/Include/cmsis_gcc.h **** #define __CMSIS_GCC_H
  27:Drivers/CMSIS/Include/cmsis_gcc.h **** 
  28:Drivers/CMSIS/Include/cmsis_gcc.h **** /* ignore some GCC warnings */
  29:Drivers/CMSIS/Include/cmsis_gcc.h **** #pragma GCC diagnostic push
  30:Drivers/CMSIS/Include/cmsis_gcc.h **** #pragma GCC diagnostic ignored "-Wsign-conversion"
  31:Drivers/CMSIS/Include/cmsis_gcc.h **** #pragma GCC diagnostic ignored "-Wconversion"
  32:Drivers/CMSIS/Include/cmsis_gcc.h **** #pragma GCC diagnostic ignored "-Wunused-parameter"
  33:Drivers/CMSIS/Include/cmsis_gcc.h **** 
  34:Drivers/CMSIS/Include/cmsis_gcc.h **** /* Fallback for __has_builtin */
  35:Drivers/CMSIS/Include/cmsis_gcc.h **** #ifndef __has_builtin
  36:Drivers/CMSIS/Include/cmsis_gcc.h ****   #define __has_builtin(x) (0)
  37:Drivers/CMSIS/Include/cmsis_gcc.h **** #endif
  38:Drivers/CMSIS/Include/cmsis_gcc.h **** 
  39:Drivers/CMSIS/Include/cmsis_gcc.h **** /* CMSIS compiler specific defines */
  40:Drivers/CMSIS/Include/cmsis_gcc.h **** #ifndef   __ASM
  41:Drivers/CMSIS/Include/cmsis_gcc.h ****   #define __ASM                                  __asm
  42:Drivers/CMSIS/Include/cmsis_gcc.h **** #endif
  43:Drivers/CMSIS/Include/cmsis_gcc.h **** #ifndef   __INLINE
  44:Drivers/CMSIS/Include/cmsis_gcc.h ****   #define __INLINE                               inline
  45:Drivers/CMSIS/Include/cmsis_gcc.h **** #endif
  46:Drivers/CMSIS/Include/cmsis_gcc.h **** #ifndef   __STATIC_INLINE
  47:Drivers/CMSIS/Include/cmsis_gcc.h ****   #define __STATIC_INLINE                        static inline
  48:Drivers/CMSIS/Include/cmsis_gcc.h **** #endif
  49:Drivers/CMSIS/Include/cmsis_gcc.h **** #ifndef   __STATIC_FORCEINLINE
ARM GAS  /tmp/ccoREEzA.s 			page 23


  50:Drivers/CMSIS/Include/cmsis_gcc.h ****   #define __STATIC_FORCEINLINE                   __attribute__((always_inline)) static inline
  51:Drivers/CMSIS/Include/cmsis_gcc.h **** #endif
  52:Drivers/CMSIS/Include/cmsis_gcc.h **** #ifndef   __NO_RETURN
  53:Drivers/CMSIS/Include/cmsis_gcc.h ****   #define __NO_RETURN                            __attribute__((__noreturn__))
  54:Drivers/CMSIS/Include/cmsis_gcc.h **** #endif
  55:Drivers/CMSIS/Include/cmsis_gcc.h **** #ifndef   __USED
  56:Drivers/CMSIS/Include/cmsis_gcc.h ****   #define __USED                                 __attribute__((used))
  57:Drivers/CMSIS/Include/cmsis_gcc.h **** #endif
  58:Drivers/CMSIS/Include/cmsis_gcc.h **** #ifndef   __WEAK
  59:Drivers/CMSIS/Include/cmsis_gcc.h ****   #define __WEAK                                 __attribute__((weak))
  60:Drivers/CMSIS/Include/cmsis_gcc.h **** #endif
  61:Drivers/CMSIS/Include/cmsis_gcc.h **** #ifndef   __PACKED
  62:Drivers/CMSIS/Include/cmsis_gcc.h ****   #define __PACKED                               __attribute__((packed, aligned(1)))
  63:Drivers/CMSIS/Include/cmsis_gcc.h **** #endif
  64:Drivers/CMSIS/Include/cmsis_gcc.h **** #ifndef   __PACKED_STRUCT
  65:Drivers/CMSIS/Include/cmsis_gcc.h ****   #define __PACKED_STRUCT                        struct __attribute__((packed, aligned(1)))
  66:Drivers/CMSIS/Include/cmsis_gcc.h **** #endif
  67:Drivers/CMSIS/Include/cmsis_gcc.h **** #ifndef   __PACKED_UNION
  68:Drivers/CMSIS/Include/cmsis_gcc.h ****   #define __PACKED_UNION                         union __attribute__((packed, aligned(1)))
  69:Drivers/CMSIS/Include/cmsis_gcc.h **** #endif
  70:Drivers/CMSIS/Include/cmsis_gcc.h **** #ifndef   __UNALIGNED_UINT32        /* deprecated */
  71:Drivers/CMSIS/Include/cmsis_gcc.h ****   #pragma GCC diagnostic push
  72:Drivers/CMSIS/Include/cmsis_gcc.h ****   #pragma GCC diagnostic ignored "-Wpacked"
  73:Drivers/CMSIS/Include/cmsis_gcc.h ****   #pragma GCC diagnostic ignored "-Wattributes"
  74:Drivers/CMSIS/Include/cmsis_gcc.h ****   struct __attribute__((packed)) T_UINT32 { uint32_t v; };
  75:Drivers/CMSIS/Include/cmsis_gcc.h ****   #pragma GCC diagnostic pop
  76:Drivers/CMSIS/Include/cmsis_gcc.h ****   #define __UNALIGNED_UINT32(x)                  (((struct T_UINT32 *)(x))->v)
  77:Drivers/CMSIS/Include/cmsis_gcc.h **** #endif
  78:Drivers/CMSIS/Include/cmsis_gcc.h **** #ifndef   __UNALIGNED_UINT16_WRITE
  79:Drivers/CMSIS/Include/cmsis_gcc.h ****   #pragma GCC diagnostic push
  80:Drivers/CMSIS/Include/cmsis_gcc.h ****   #pragma GCC diagnostic ignored "-Wpacked"
  81:Drivers/CMSIS/Include/cmsis_gcc.h ****   #pragma GCC diagnostic ignored "-Wattributes"
  82:Drivers/CMSIS/Include/cmsis_gcc.h ****   __PACKED_STRUCT T_UINT16_WRITE { uint16_t v; };
  83:Drivers/CMSIS/Include/cmsis_gcc.h ****   #pragma GCC diagnostic pop
  84:Drivers/CMSIS/Include/cmsis_gcc.h ****   #define __UNALIGNED_UINT16_WRITE(addr, val)    (void)((((struct T_UINT16_WRITE *)(void *)(addr))-
  85:Drivers/CMSIS/Include/cmsis_gcc.h **** #endif
  86:Drivers/CMSIS/Include/cmsis_gcc.h **** #ifndef   __UNALIGNED_UINT16_READ
  87:Drivers/CMSIS/Include/cmsis_gcc.h ****   #pragma GCC diagnostic push
  88:Drivers/CMSIS/Include/cmsis_gcc.h ****   #pragma GCC diagnostic ignored "-Wpacked"
  89:Drivers/CMSIS/Include/cmsis_gcc.h ****   #pragma GCC diagnostic ignored "-Wattributes"
  90:Drivers/CMSIS/Include/cmsis_gcc.h ****   __PACKED_STRUCT T_UINT16_READ { uint16_t v; };
  91:Drivers/CMSIS/Include/cmsis_gcc.h ****   #pragma GCC diagnostic pop
  92:Drivers/CMSIS/Include/cmsis_gcc.h ****   #define __UNALIGNED_UINT16_READ(addr)          (((const struct T_UINT16_READ *)(const void *)(add
  93:Drivers/CMSIS/Include/cmsis_gcc.h **** #endif
  94:Drivers/CMSIS/Include/cmsis_gcc.h **** #ifndef   __UNALIGNED_UINT32_WRITE
  95:Drivers/CMSIS/Include/cmsis_gcc.h ****   #pragma GCC diagnostic push
  96:Drivers/CMSIS/Include/cmsis_gcc.h ****   #pragma GCC diagnostic ignored "-Wpacked"
  97:Drivers/CMSIS/Include/cmsis_gcc.h ****   #pragma GCC diagnostic ignored "-Wattributes"
  98:Drivers/CMSIS/Include/cmsis_gcc.h ****   __PACKED_STRUCT T_UINT32_WRITE { uint32_t v; };
  99:Drivers/CMSIS/Include/cmsis_gcc.h ****   #pragma GCC diagnostic pop
 100:Drivers/CMSIS/Include/cmsis_gcc.h ****   #define __UNALIGNED_UINT32_WRITE(addr, val)    (void)((((struct T_UINT32_WRITE *)(void *)(addr))-
 101:Drivers/CMSIS/Include/cmsis_gcc.h **** #endif
 102:Drivers/CMSIS/Include/cmsis_gcc.h **** #ifndef   __UNALIGNED_UINT32_READ
 103:Drivers/CMSIS/Include/cmsis_gcc.h ****   #pragma GCC diagnostic push
 104:Drivers/CMSIS/Include/cmsis_gcc.h ****   #pragma GCC diagnostic ignored "-Wpacked"
 105:Drivers/CMSIS/Include/cmsis_gcc.h ****   #pragma GCC diagnostic ignored "-Wattributes"
 106:Drivers/CMSIS/Include/cmsis_gcc.h ****   __PACKED_STRUCT T_UINT32_READ { uint32_t v; };
ARM GAS  /tmp/ccoREEzA.s 			page 24


 107:Drivers/CMSIS/Include/cmsis_gcc.h ****   #pragma GCC diagnostic pop
 108:Drivers/CMSIS/Include/cmsis_gcc.h ****   #define __UNALIGNED_UINT32_READ(addr)          (((const struct T_UINT32_READ *)(const void *)(add
 109:Drivers/CMSIS/Include/cmsis_gcc.h **** #endif
 110:Drivers/CMSIS/Include/cmsis_gcc.h **** #ifndef   __ALIGNED
 111:Drivers/CMSIS/Include/cmsis_gcc.h ****   #define __ALIGNED(x)                           __attribute__((aligned(x)))
 112:Drivers/CMSIS/Include/cmsis_gcc.h **** #endif
 113:Drivers/CMSIS/Include/cmsis_gcc.h **** #ifndef   __RESTRICT
 114:Drivers/CMSIS/Include/cmsis_gcc.h ****   #define __RESTRICT                             __restrict
 115:Drivers/CMSIS/Include/cmsis_gcc.h **** #endif
 116:Drivers/CMSIS/Include/cmsis_gcc.h **** #ifndef   __COMPILER_BARRIER
 117:Drivers/CMSIS/Include/cmsis_gcc.h ****   #define __COMPILER_BARRIER()                   __ASM volatile("":::"memory")
 118:Drivers/CMSIS/Include/cmsis_gcc.h **** #endif
 119:Drivers/CMSIS/Include/cmsis_gcc.h **** 
 120:Drivers/CMSIS/Include/cmsis_gcc.h **** /* #########################  Startup and Lowlevel Init  ######################## */
 121:Drivers/CMSIS/Include/cmsis_gcc.h **** 
 122:Drivers/CMSIS/Include/cmsis_gcc.h **** #ifndef __PROGRAM_START
 123:Drivers/CMSIS/Include/cmsis_gcc.h **** 
 124:Drivers/CMSIS/Include/cmsis_gcc.h **** /**
 125:Drivers/CMSIS/Include/cmsis_gcc.h ****   \brief   Initializes data and bss sections
 126:Drivers/CMSIS/Include/cmsis_gcc.h ****   \details This default implementations initialized all data and additional bss
 127:Drivers/CMSIS/Include/cmsis_gcc.h ****            sections relying on .copy.table and .zero.table specified properly
 128:Drivers/CMSIS/Include/cmsis_gcc.h ****            in the used linker script.
 129:Drivers/CMSIS/Include/cmsis_gcc.h **** 
 130:Drivers/CMSIS/Include/cmsis_gcc.h ****  */
 131:Drivers/CMSIS/Include/cmsis_gcc.h **** __STATIC_FORCEINLINE __NO_RETURN void __cmsis_start(void)
 132:Drivers/CMSIS/Include/cmsis_gcc.h **** {
 133:Drivers/CMSIS/Include/cmsis_gcc.h ****   extern void _start(void) __NO_RETURN;
 134:Drivers/CMSIS/Include/cmsis_gcc.h **** 
 135:Drivers/CMSIS/Include/cmsis_gcc.h ****   typedef struct {
 136:Drivers/CMSIS/Include/cmsis_gcc.h ****     uint32_t const* src;
 137:Drivers/CMSIS/Include/cmsis_gcc.h ****     uint32_t* dest;
 138:Drivers/CMSIS/Include/cmsis_gcc.h ****     uint32_t  wlen;
 139:Drivers/CMSIS/Include/cmsis_gcc.h ****   } __copy_table_t;
 140:Drivers/CMSIS/Include/cmsis_gcc.h **** 
 141:Drivers/CMSIS/Include/cmsis_gcc.h ****   typedef struct {
 142:Drivers/CMSIS/Include/cmsis_gcc.h ****     uint32_t* dest;
 143:Drivers/CMSIS/Include/cmsis_gcc.h ****     uint32_t  wlen;
 144:Drivers/CMSIS/Include/cmsis_gcc.h ****   } __zero_table_t;
 145:Drivers/CMSIS/Include/cmsis_gcc.h **** 
 146:Drivers/CMSIS/Include/cmsis_gcc.h ****   extern const __copy_table_t __copy_table_start__;
 147:Drivers/CMSIS/Include/cmsis_gcc.h ****   extern const __copy_table_t __copy_table_end__;
 148:Drivers/CMSIS/Include/cmsis_gcc.h ****   extern const __zero_table_t __zero_table_start__;
 149:Drivers/CMSIS/Include/cmsis_gcc.h ****   extern const __zero_table_t __zero_table_end__;
 150:Drivers/CMSIS/Include/cmsis_gcc.h **** 
 151:Drivers/CMSIS/Include/cmsis_gcc.h ****   for (__copy_table_t const* pTable = &__copy_table_start__; pTable < &__copy_table_end__; ++pTable
 152:Drivers/CMSIS/Include/cmsis_gcc.h ****     for(uint32_t i=0u; i<pTable->wlen; ++i) {
 153:Drivers/CMSIS/Include/cmsis_gcc.h ****       pTable->dest[i] = pTable->src[i];
 154:Drivers/CMSIS/Include/cmsis_gcc.h ****     }
 155:Drivers/CMSIS/Include/cmsis_gcc.h ****   }
 156:Drivers/CMSIS/Include/cmsis_gcc.h **** 
 157:Drivers/CMSIS/Include/cmsis_gcc.h ****   for (__zero_table_t const* pTable = &__zero_table_start__; pTable < &__zero_table_end__; ++pTable
 158:Drivers/CMSIS/Include/cmsis_gcc.h ****     for(uint32_t i=0u; i<pTable->wlen; ++i) {
 159:Drivers/CMSIS/Include/cmsis_gcc.h ****       pTable->dest[i] = 0u;
 160:Drivers/CMSIS/Include/cmsis_gcc.h ****     }
 161:Drivers/CMSIS/Include/cmsis_gcc.h ****   }
 162:Drivers/CMSIS/Include/cmsis_gcc.h **** 
 163:Drivers/CMSIS/Include/cmsis_gcc.h ****   _start();
ARM GAS  /tmp/ccoREEzA.s 			page 25


 164:Drivers/CMSIS/Include/cmsis_gcc.h **** }
 165:Drivers/CMSIS/Include/cmsis_gcc.h **** 
 166:Drivers/CMSIS/Include/cmsis_gcc.h **** #define __PROGRAM_START           __cmsis_start
 167:Drivers/CMSIS/Include/cmsis_gcc.h **** #endif
 168:Drivers/CMSIS/Include/cmsis_gcc.h **** 
 169:Drivers/CMSIS/Include/cmsis_gcc.h **** #ifndef __INITIAL_SP
 170:Drivers/CMSIS/Include/cmsis_gcc.h **** #define __INITIAL_SP              __StackTop
 171:Drivers/CMSIS/Include/cmsis_gcc.h **** #endif
 172:Drivers/CMSIS/Include/cmsis_gcc.h **** 
 173:Drivers/CMSIS/Include/cmsis_gcc.h **** #ifndef __STACK_LIMIT
 174:Drivers/CMSIS/Include/cmsis_gcc.h **** #define __STACK_LIMIT             __StackLimit
 175:Drivers/CMSIS/Include/cmsis_gcc.h **** #endif
 176:Drivers/CMSIS/Include/cmsis_gcc.h **** 
 177:Drivers/CMSIS/Include/cmsis_gcc.h **** #ifndef __VECTOR_TABLE
 178:Drivers/CMSIS/Include/cmsis_gcc.h **** #define __VECTOR_TABLE            __Vectors
 179:Drivers/CMSIS/Include/cmsis_gcc.h **** #endif
 180:Drivers/CMSIS/Include/cmsis_gcc.h **** 
 181:Drivers/CMSIS/Include/cmsis_gcc.h **** #ifndef __VECTOR_TABLE_ATTRIBUTE
 182:Drivers/CMSIS/Include/cmsis_gcc.h **** #define __VECTOR_TABLE_ATTRIBUTE  __attribute__((used, section(".vectors")))
 183:Drivers/CMSIS/Include/cmsis_gcc.h **** #endif
 184:Drivers/CMSIS/Include/cmsis_gcc.h **** 
 185:Drivers/CMSIS/Include/cmsis_gcc.h **** #if defined (__ARM_FEATURE_CMSE) && (__ARM_FEATURE_CMSE == 3U)
 186:Drivers/CMSIS/Include/cmsis_gcc.h **** #ifndef __STACK_SEAL
 187:Drivers/CMSIS/Include/cmsis_gcc.h **** #define __STACK_SEAL              __StackSeal
 188:Drivers/CMSIS/Include/cmsis_gcc.h **** #endif
 189:Drivers/CMSIS/Include/cmsis_gcc.h **** 
 190:Drivers/CMSIS/Include/cmsis_gcc.h **** #ifndef __TZ_STACK_SEAL_SIZE
 191:Drivers/CMSIS/Include/cmsis_gcc.h **** #define __TZ_STACK_SEAL_SIZE      8U
 192:Drivers/CMSIS/Include/cmsis_gcc.h **** #endif
 193:Drivers/CMSIS/Include/cmsis_gcc.h **** 
 194:Drivers/CMSIS/Include/cmsis_gcc.h **** #ifndef __TZ_STACK_SEAL_VALUE
 195:Drivers/CMSIS/Include/cmsis_gcc.h **** #define __TZ_STACK_SEAL_VALUE     0xFEF5EDA5FEF5EDA5ULL
 196:Drivers/CMSIS/Include/cmsis_gcc.h **** #endif
 197:Drivers/CMSIS/Include/cmsis_gcc.h **** 
 198:Drivers/CMSIS/Include/cmsis_gcc.h **** 
 199:Drivers/CMSIS/Include/cmsis_gcc.h **** __STATIC_FORCEINLINE void __TZ_set_STACKSEAL_S (uint32_t* stackTop) {
 200:Drivers/CMSIS/Include/cmsis_gcc.h ****   *((uint64_t *)stackTop) = __TZ_STACK_SEAL_VALUE;
 201:Drivers/CMSIS/Include/cmsis_gcc.h **** }
 202:Drivers/CMSIS/Include/cmsis_gcc.h **** #endif
 203:Drivers/CMSIS/Include/cmsis_gcc.h **** 
 204:Drivers/CMSIS/Include/cmsis_gcc.h **** 
 205:Drivers/CMSIS/Include/cmsis_gcc.h **** /* ##########################  Core Instruction Access  ######################### */
 206:Drivers/CMSIS/Include/cmsis_gcc.h **** /** \defgroup CMSIS_Core_InstructionInterface CMSIS Core Instruction Interface
 207:Drivers/CMSIS/Include/cmsis_gcc.h ****   Access to dedicated instructions
 208:Drivers/CMSIS/Include/cmsis_gcc.h ****   @{
 209:Drivers/CMSIS/Include/cmsis_gcc.h **** */
 210:Drivers/CMSIS/Include/cmsis_gcc.h **** 
 211:Drivers/CMSIS/Include/cmsis_gcc.h **** /* Define macros for porting to both thumb1 and thumb2.
 212:Drivers/CMSIS/Include/cmsis_gcc.h ****  * For thumb1, use low register (r0-r7), specified by constraint "l"
 213:Drivers/CMSIS/Include/cmsis_gcc.h ****  * Otherwise, use general registers, specified by constraint "r" */
 214:Drivers/CMSIS/Include/cmsis_gcc.h **** #if defined (__thumb__) && !defined (__thumb2__)
 215:Drivers/CMSIS/Include/cmsis_gcc.h **** #define __CMSIS_GCC_OUT_REG(r) "=l" (r)
 216:Drivers/CMSIS/Include/cmsis_gcc.h **** #define __CMSIS_GCC_RW_REG(r) "+l" (r)
 217:Drivers/CMSIS/Include/cmsis_gcc.h **** #define __CMSIS_GCC_USE_REG(r) "l" (r)
 218:Drivers/CMSIS/Include/cmsis_gcc.h **** #else
 219:Drivers/CMSIS/Include/cmsis_gcc.h **** #define __CMSIS_GCC_OUT_REG(r) "=r" (r)
 220:Drivers/CMSIS/Include/cmsis_gcc.h **** #define __CMSIS_GCC_RW_REG(r) "+r" (r)
ARM GAS  /tmp/ccoREEzA.s 			page 26


 221:Drivers/CMSIS/Include/cmsis_gcc.h **** #define __CMSIS_GCC_USE_REG(r) "r" (r)
 222:Drivers/CMSIS/Include/cmsis_gcc.h **** #endif
 223:Drivers/CMSIS/Include/cmsis_gcc.h **** 
 224:Drivers/CMSIS/Include/cmsis_gcc.h **** /**
 225:Drivers/CMSIS/Include/cmsis_gcc.h ****   \brief   No Operation
 226:Drivers/CMSIS/Include/cmsis_gcc.h ****   \details No Operation does nothing. This instruction can be used for code alignment purposes.
 227:Drivers/CMSIS/Include/cmsis_gcc.h ****  */
 228:Drivers/CMSIS/Include/cmsis_gcc.h **** #define __NOP()                             __ASM volatile ("nop")
 229:Drivers/CMSIS/Include/cmsis_gcc.h **** 
 230:Drivers/CMSIS/Include/cmsis_gcc.h **** /**
 231:Drivers/CMSIS/Include/cmsis_gcc.h ****   \brief   Wait For Interrupt
 232:Drivers/CMSIS/Include/cmsis_gcc.h ****   \details Wait For Interrupt is a hint instruction that suspends execution until one of a number o
 233:Drivers/CMSIS/Include/cmsis_gcc.h ****  */
 234:Drivers/CMSIS/Include/cmsis_gcc.h **** #define __WFI()                             __ASM volatile ("wfi":::"memory")
 235:Drivers/CMSIS/Include/cmsis_gcc.h **** 
 236:Drivers/CMSIS/Include/cmsis_gcc.h **** 
 237:Drivers/CMSIS/Include/cmsis_gcc.h **** /**
 238:Drivers/CMSIS/Include/cmsis_gcc.h ****   \brief   Wait For Event
 239:Drivers/CMSIS/Include/cmsis_gcc.h ****   \details Wait For Event is a hint instruction that permits the processor to enter
 240:Drivers/CMSIS/Include/cmsis_gcc.h ****            a low-power state until one of a number of events occurs.
 241:Drivers/CMSIS/Include/cmsis_gcc.h ****  */
 242:Drivers/CMSIS/Include/cmsis_gcc.h **** #define __WFE()                             __ASM volatile ("wfe":::"memory")
 243:Drivers/CMSIS/Include/cmsis_gcc.h **** 
 244:Drivers/CMSIS/Include/cmsis_gcc.h **** 
 245:Drivers/CMSIS/Include/cmsis_gcc.h **** /**
 246:Drivers/CMSIS/Include/cmsis_gcc.h ****   \brief   Send Event
 247:Drivers/CMSIS/Include/cmsis_gcc.h ****   \details Send Event is a hint instruction. It causes an event to be signaled to the CPU.
 248:Drivers/CMSIS/Include/cmsis_gcc.h ****  */
 249:Drivers/CMSIS/Include/cmsis_gcc.h **** #define __SEV()                             __ASM volatile ("sev")
 250:Drivers/CMSIS/Include/cmsis_gcc.h **** 
 251:Drivers/CMSIS/Include/cmsis_gcc.h **** 
 252:Drivers/CMSIS/Include/cmsis_gcc.h **** /**
 253:Drivers/CMSIS/Include/cmsis_gcc.h ****   \brief   Instruction Synchronization Barrier
 254:Drivers/CMSIS/Include/cmsis_gcc.h ****   \details Instruction Synchronization Barrier flushes the pipeline in the processor,
 255:Drivers/CMSIS/Include/cmsis_gcc.h ****            so that all instructions following the ISB are fetched from cache or memory,
 256:Drivers/CMSIS/Include/cmsis_gcc.h ****            after the instruction has been completed.
 257:Drivers/CMSIS/Include/cmsis_gcc.h ****  */
 258:Drivers/CMSIS/Include/cmsis_gcc.h **** __STATIC_FORCEINLINE void __ISB(void)
 259:Drivers/CMSIS/Include/cmsis_gcc.h **** {
 260:Drivers/CMSIS/Include/cmsis_gcc.h ****   __ASM volatile ("isb 0xF":::"memory");
 261:Drivers/CMSIS/Include/cmsis_gcc.h **** }
 262:Drivers/CMSIS/Include/cmsis_gcc.h **** 
 263:Drivers/CMSIS/Include/cmsis_gcc.h **** 
 264:Drivers/CMSIS/Include/cmsis_gcc.h **** /**
 265:Drivers/CMSIS/Include/cmsis_gcc.h ****   \brief   Data Synchronization Barrier
 266:Drivers/CMSIS/Include/cmsis_gcc.h ****   \details Acts as a special kind of Data Memory Barrier.
 267:Drivers/CMSIS/Include/cmsis_gcc.h ****            It completes when all explicit memory accesses before this instruction complete.
 268:Drivers/CMSIS/Include/cmsis_gcc.h ****  */
 269:Drivers/CMSIS/Include/cmsis_gcc.h **** __STATIC_FORCEINLINE void __DSB(void)
 270:Drivers/CMSIS/Include/cmsis_gcc.h **** {
 271:Drivers/CMSIS/Include/cmsis_gcc.h ****   __ASM volatile ("dsb 0xF":::"memory");
 272:Drivers/CMSIS/Include/cmsis_gcc.h **** }
 273:Drivers/CMSIS/Include/cmsis_gcc.h **** 
 274:Drivers/CMSIS/Include/cmsis_gcc.h **** 
 275:Drivers/CMSIS/Include/cmsis_gcc.h **** /**
 276:Drivers/CMSIS/Include/cmsis_gcc.h ****   \brief   Data Memory Barrier
 277:Drivers/CMSIS/Include/cmsis_gcc.h ****   \details Ensures the apparent order of the explicit memory operations before
ARM GAS  /tmp/ccoREEzA.s 			page 27


 278:Drivers/CMSIS/Include/cmsis_gcc.h ****            and after the instruction, without ensuring their completion.
 279:Drivers/CMSIS/Include/cmsis_gcc.h ****  */
 280:Drivers/CMSIS/Include/cmsis_gcc.h **** __STATIC_FORCEINLINE void __DMB(void)
 281:Drivers/CMSIS/Include/cmsis_gcc.h **** {
 282:Drivers/CMSIS/Include/cmsis_gcc.h ****   __ASM volatile ("dmb 0xF":::"memory");
 283:Drivers/CMSIS/Include/cmsis_gcc.h **** }
 284:Drivers/CMSIS/Include/cmsis_gcc.h **** 
 285:Drivers/CMSIS/Include/cmsis_gcc.h **** 
 286:Drivers/CMSIS/Include/cmsis_gcc.h **** /**
 287:Drivers/CMSIS/Include/cmsis_gcc.h ****   \brief   Reverse byte order (32 bit)
 288:Drivers/CMSIS/Include/cmsis_gcc.h ****   \details Reverses the byte order in unsigned integer value. For example, 0x12345678 becomes 0x785
 289:Drivers/CMSIS/Include/cmsis_gcc.h ****   \param [in]    value  Value to reverse
 290:Drivers/CMSIS/Include/cmsis_gcc.h ****   \return               Reversed value
 291:Drivers/CMSIS/Include/cmsis_gcc.h ****  */
 292:Drivers/CMSIS/Include/cmsis_gcc.h **** __STATIC_FORCEINLINE uint32_t __REV(uint32_t value)
 293:Drivers/CMSIS/Include/cmsis_gcc.h **** {
 294:Drivers/CMSIS/Include/cmsis_gcc.h **** #if (__GNUC__ > 4) || (__GNUC__ == 4 && __GNUC_MINOR__ >= 5)
 295:Drivers/CMSIS/Include/cmsis_gcc.h ****   return __builtin_bswap32(value);
 296:Drivers/CMSIS/Include/cmsis_gcc.h **** #else
 297:Drivers/CMSIS/Include/cmsis_gcc.h ****   uint32_t result;
 298:Drivers/CMSIS/Include/cmsis_gcc.h **** 
 299:Drivers/CMSIS/Include/cmsis_gcc.h ****   __ASM ("rev %0, %1" : __CMSIS_GCC_OUT_REG (result) : __CMSIS_GCC_USE_REG (value) );
 300:Drivers/CMSIS/Include/cmsis_gcc.h ****   return result;
 301:Drivers/CMSIS/Include/cmsis_gcc.h **** #endif
 302:Drivers/CMSIS/Include/cmsis_gcc.h **** }
 303:Drivers/CMSIS/Include/cmsis_gcc.h **** 
 304:Drivers/CMSIS/Include/cmsis_gcc.h **** 
 305:Drivers/CMSIS/Include/cmsis_gcc.h **** /**
 306:Drivers/CMSIS/Include/cmsis_gcc.h ****   \brief   Reverse byte order (16 bit)
 307:Drivers/CMSIS/Include/cmsis_gcc.h ****   \details Reverses the byte order within each halfword of a word. For example, 0x12345678 becomes 
 308:Drivers/CMSIS/Include/cmsis_gcc.h ****   \param [in]    value  Value to reverse
 309:Drivers/CMSIS/Include/cmsis_gcc.h ****   \return               Reversed value
 310:Drivers/CMSIS/Include/cmsis_gcc.h ****  */
 311:Drivers/CMSIS/Include/cmsis_gcc.h **** __STATIC_FORCEINLINE uint32_t __REV16(uint32_t value)
 312:Drivers/CMSIS/Include/cmsis_gcc.h **** {
 313:Drivers/CMSIS/Include/cmsis_gcc.h ****   uint32_t result;
 314:Drivers/CMSIS/Include/cmsis_gcc.h **** 
 315:Drivers/CMSIS/Include/cmsis_gcc.h ****   __ASM ("rev16 %0, %1" : __CMSIS_GCC_OUT_REG (result) : __CMSIS_GCC_USE_REG (value) );
 316:Drivers/CMSIS/Include/cmsis_gcc.h ****   return result;
 317:Drivers/CMSIS/Include/cmsis_gcc.h **** }
 318:Drivers/CMSIS/Include/cmsis_gcc.h **** 
 319:Drivers/CMSIS/Include/cmsis_gcc.h **** 
 320:Drivers/CMSIS/Include/cmsis_gcc.h **** /**
 321:Drivers/CMSIS/Include/cmsis_gcc.h ****   \brief   Reverse byte order (16 bit)
 322:Drivers/CMSIS/Include/cmsis_gcc.h ****   \details Reverses the byte order in a 16-bit value and returns the signed 16-bit result. For exam
 323:Drivers/CMSIS/Include/cmsis_gcc.h ****   \param [in]    value  Value to reverse
 324:Drivers/CMSIS/Include/cmsis_gcc.h ****   \return               Reversed value
 325:Drivers/CMSIS/Include/cmsis_gcc.h ****  */
 326:Drivers/CMSIS/Include/cmsis_gcc.h **** __STATIC_FORCEINLINE int16_t __REVSH(int16_t value)
 327:Drivers/CMSIS/Include/cmsis_gcc.h **** {
 328:Drivers/CMSIS/Include/cmsis_gcc.h **** #if (__GNUC__ > 4) || (__GNUC__ == 4 && __GNUC_MINOR__ >= 8)
 329:Drivers/CMSIS/Include/cmsis_gcc.h ****   return (int16_t)__builtin_bswap16(value);
 330:Drivers/CMSIS/Include/cmsis_gcc.h **** #else
 331:Drivers/CMSIS/Include/cmsis_gcc.h ****   int16_t result;
 332:Drivers/CMSIS/Include/cmsis_gcc.h **** 
 333:Drivers/CMSIS/Include/cmsis_gcc.h ****   __ASM ("revsh %0, %1" : __CMSIS_GCC_OUT_REG (result) : __CMSIS_GCC_USE_REG (value) );
 334:Drivers/CMSIS/Include/cmsis_gcc.h ****   return result;
ARM GAS  /tmp/ccoREEzA.s 			page 28


 335:Drivers/CMSIS/Include/cmsis_gcc.h **** #endif
 336:Drivers/CMSIS/Include/cmsis_gcc.h **** }
 337:Drivers/CMSIS/Include/cmsis_gcc.h **** 
 338:Drivers/CMSIS/Include/cmsis_gcc.h **** 
 339:Drivers/CMSIS/Include/cmsis_gcc.h **** /**
 340:Drivers/CMSIS/Include/cmsis_gcc.h ****   \brief   Rotate Right in unsigned value (32 bit)
 341:Drivers/CMSIS/Include/cmsis_gcc.h ****   \details Rotate Right (immediate) provides the value of the contents of a register rotated by a v
 342:Drivers/CMSIS/Include/cmsis_gcc.h ****   \param [in]    op1  Value to rotate
 343:Drivers/CMSIS/Include/cmsis_gcc.h ****   \param [in]    op2  Number of Bits to rotate
 344:Drivers/CMSIS/Include/cmsis_gcc.h ****   \return               Rotated value
 345:Drivers/CMSIS/Include/cmsis_gcc.h ****  */
 346:Drivers/CMSIS/Include/cmsis_gcc.h **** __STATIC_FORCEINLINE uint32_t __ROR(uint32_t op1, uint32_t op2)
 347:Drivers/CMSIS/Include/cmsis_gcc.h **** {
 348:Drivers/CMSIS/Include/cmsis_gcc.h ****   op2 %= 32U;
 349:Drivers/CMSIS/Include/cmsis_gcc.h ****   if (op2 == 0U)
 350:Drivers/CMSIS/Include/cmsis_gcc.h ****   {
 351:Drivers/CMSIS/Include/cmsis_gcc.h ****     return op1;
 352:Drivers/CMSIS/Include/cmsis_gcc.h ****   }
 353:Drivers/CMSIS/Include/cmsis_gcc.h ****   return (op1 >> op2) | (op1 << (32U - op2));
 354:Drivers/CMSIS/Include/cmsis_gcc.h **** }
 355:Drivers/CMSIS/Include/cmsis_gcc.h **** 
 356:Drivers/CMSIS/Include/cmsis_gcc.h **** 
 357:Drivers/CMSIS/Include/cmsis_gcc.h **** /**
 358:Drivers/CMSIS/Include/cmsis_gcc.h ****   \brief   Breakpoint
 359:Drivers/CMSIS/Include/cmsis_gcc.h ****   \details Causes the processor to enter Debug state.
 360:Drivers/CMSIS/Include/cmsis_gcc.h ****            Debug tools can use this to investigate system state when the instruction at a particula
 361:Drivers/CMSIS/Include/cmsis_gcc.h ****   \param [in]    value  is ignored by the processor.
 362:Drivers/CMSIS/Include/cmsis_gcc.h ****                  If required, a debugger can use it to store additional information about the break
 363:Drivers/CMSIS/Include/cmsis_gcc.h ****  */
 364:Drivers/CMSIS/Include/cmsis_gcc.h **** #define __BKPT(value)                       __ASM volatile ("bkpt "#value)
 365:Drivers/CMSIS/Include/cmsis_gcc.h **** 
 366:Drivers/CMSIS/Include/cmsis_gcc.h **** 
 367:Drivers/CMSIS/Include/cmsis_gcc.h **** /**
 368:Drivers/CMSIS/Include/cmsis_gcc.h ****   \brief   Reverse bit order of value
 369:Drivers/CMSIS/Include/cmsis_gcc.h ****   \details Reverses the bit order of the given value.
 370:Drivers/CMSIS/Include/cmsis_gcc.h ****   \param [in]    value  Value to reverse
 371:Drivers/CMSIS/Include/cmsis_gcc.h ****   \return               Reversed value
 372:Drivers/CMSIS/Include/cmsis_gcc.h ****  */
 373:Drivers/CMSIS/Include/cmsis_gcc.h **** __STATIC_FORCEINLINE uint32_t __RBIT(uint32_t value)
 374:Drivers/CMSIS/Include/cmsis_gcc.h **** {
 375:Drivers/CMSIS/Include/cmsis_gcc.h ****   uint32_t result;
 376:Drivers/CMSIS/Include/cmsis_gcc.h **** 
 377:Drivers/CMSIS/Include/cmsis_gcc.h **** #if ((defined (__ARM_ARCH_7M__      ) && (__ARM_ARCH_7M__      == 1)) || \
 378:Drivers/CMSIS/Include/cmsis_gcc.h ****      (defined (__ARM_ARCH_7EM__     ) && (__ARM_ARCH_7EM__     == 1)) || \
 379:Drivers/CMSIS/Include/cmsis_gcc.h ****      (defined (__ARM_ARCH_8M_MAIN__ ) && (__ARM_ARCH_8M_MAIN__ == 1))    )
 380:Drivers/CMSIS/Include/cmsis_gcc.h ****    __ASM ("rbit %0, %1" : "=r" (result) : "r" (value) );
 381:Drivers/CMSIS/Include/cmsis_gcc.h **** #else
 382:Drivers/CMSIS/Include/cmsis_gcc.h ****   uint32_t s = (4U /*sizeof(v)*/ * 8U) - 1U; /* extra shift needed at end */
 383:Drivers/CMSIS/Include/cmsis_gcc.h **** 
 384:Drivers/CMSIS/Include/cmsis_gcc.h ****   result = value;                      /* r will be reversed bits of v; first get LSB of v */
 385:Drivers/CMSIS/Include/cmsis_gcc.h ****   for (value >>= 1U; value != 0U; value >>= 1U)
 386:Drivers/CMSIS/Include/cmsis_gcc.h ****   {
 387:Drivers/CMSIS/Include/cmsis_gcc.h ****     result <<= 1U;
 388:Drivers/CMSIS/Include/cmsis_gcc.h ****     result |= value & 1U;
 389:Drivers/CMSIS/Include/cmsis_gcc.h ****     s--;
 390:Drivers/CMSIS/Include/cmsis_gcc.h ****   }
 391:Drivers/CMSIS/Include/cmsis_gcc.h ****   result <<= s;                        /* shift when v's highest bits are zero */
ARM GAS  /tmp/ccoREEzA.s 			page 29


 392:Drivers/CMSIS/Include/cmsis_gcc.h **** #endif
 393:Drivers/CMSIS/Include/cmsis_gcc.h ****   return result;
 394:Drivers/CMSIS/Include/cmsis_gcc.h **** }
 395:Drivers/CMSIS/Include/cmsis_gcc.h **** 
 396:Drivers/CMSIS/Include/cmsis_gcc.h **** 
 397:Drivers/CMSIS/Include/cmsis_gcc.h **** /**
 398:Drivers/CMSIS/Include/cmsis_gcc.h ****   \brief   Count leading zeros
 399:Drivers/CMSIS/Include/cmsis_gcc.h ****   \details Counts the number of leading zeros of a data value.
 400:Drivers/CMSIS/Include/cmsis_gcc.h ****   \param [in]  value  Value to count the leading zeros
 401:Drivers/CMSIS/Include/cmsis_gcc.h ****   \return             number of leading zeros in value
 402:Drivers/CMSIS/Include/cmsis_gcc.h ****  */
 403:Drivers/CMSIS/Include/cmsis_gcc.h **** __STATIC_FORCEINLINE uint8_t __CLZ(uint32_t value)
 404:Drivers/CMSIS/Include/cmsis_gcc.h **** {
 405:Drivers/CMSIS/Include/cmsis_gcc.h ****   /* Even though __builtin_clz produces a CLZ instruction on ARM, formally
 406:Drivers/CMSIS/Include/cmsis_gcc.h ****      __builtin_clz(0) is undefined behaviour, so handle this case specially.
 407:Drivers/CMSIS/Include/cmsis_gcc.h ****      This guarantees ARM-compatible results if happening to compile on a non-ARM
 408:Drivers/CMSIS/Include/cmsis_gcc.h ****      target, and ensures the compiler doesn't decide to activate any
 409:Drivers/CMSIS/Include/cmsis_gcc.h ****      optimisations using the logic "value was passed to __builtin_clz, so it
 410:Drivers/CMSIS/Include/cmsis_gcc.h ****      is non-zero".
 411:Drivers/CMSIS/Include/cmsis_gcc.h ****      ARM GCC 7.3 and possibly earlier will optimise this test away, leaving a
 412:Drivers/CMSIS/Include/cmsis_gcc.h ****      single CLZ instruction.
 413:Drivers/CMSIS/Include/cmsis_gcc.h ****    */
 414:Drivers/CMSIS/Include/cmsis_gcc.h ****   if (value == 0U)
 415:Drivers/CMSIS/Include/cmsis_gcc.h ****   {
 416:Drivers/CMSIS/Include/cmsis_gcc.h ****     return 32U;
 417:Drivers/CMSIS/Include/cmsis_gcc.h ****   }
 418:Drivers/CMSIS/Include/cmsis_gcc.h ****   return __builtin_clz(value);
 419:Drivers/CMSIS/Include/cmsis_gcc.h **** }
 420:Drivers/CMSIS/Include/cmsis_gcc.h **** 
 421:Drivers/CMSIS/Include/cmsis_gcc.h **** 
 422:Drivers/CMSIS/Include/cmsis_gcc.h **** #if ((defined (__ARM_ARCH_7M__      ) && (__ARM_ARCH_7M__      == 1)) || \
 423:Drivers/CMSIS/Include/cmsis_gcc.h ****      (defined (__ARM_ARCH_7EM__     ) && (__ARM_ARCH_7EM__     == 1)) || \
 424:Drivers/CMSIS/Include/cmsis_gcc.h ****      (defined (__ARM_ARCH_8M_MAIN__ ) && (__ARM_ARCH_8M_MAIN__ == 1)) || \
 425:Drivers/CMSIS/Include/cmsis_gcc.h ****      (defined (__ARM_ARCH_8M_BASE__ ) && (__ARM_ARCH_8M_BASE__ == 1))    )
 426:Drivers/CMSIS/Include/cmsis_gcc.h **** /**
 427:Drivers/CMSIS/Include/cmsis_gcc.h ****   \brief   LDR Exclusive (8 bit)
 428:Drivers/CMSIS/Include/cmsis_gcc.h ****   \details Executes a exclusive LDR instruction for 8 bit value.
 429:Drivers/CMSIS/Include/cmsis_gcc.h ****   \param [in]    ptr  Pointer to data
 430:Drivers/CMSIS/Include/cmsis_gcc.h ****   \return             value of type uint8_t at (*ptr)
 431:Drivers/CMSIS/Include/cmsis_gcc.h ****  */
 432:Drivers/CMSIS/Include/cmsis_gcc.h **** __STATIC_FORCEINLINE uint8_t __LDREXB(volatile uint8_t *addr)
 433:Drivers/CMSIS/Include/cmsis_gcc.h **** {
 434:Drivers/CMSIS/Include/cmsis_gcc.h ****     uint32_t result;
 435:Drivers/CMSIS/Include/cmsis_gcc.h **** 
 436:Drivers/CMSIS/Include/cmsis_gcc.h **** #if (__GNUC__ > 4) || (__GNUC__ == 4 && __GNUC_MINOR__ >= 8)
 437:Drivers/CMSIS/Include/cmsis_gcc.h ****    __ASM volatile ("ldrexb %0, %1" : "=r" (result) : "Q" (*addr) );
 438:Drivers/CMSIS/Include/cmsis_gcc.h **** #else
 439:Drivers/CMSIS/Include/cmsis_gcc.h ****     /* Prior to GCC 4.8, "Q" will be expanded to [rx, #0] which is not
 440:Drivers/CMSIS/Include/cmsis_gcc.h ****        accepted by assembler. So has to use following less efficient pattern.
 441:Drivers/CMSIS/Include/cmsis_gcc.h ****     */
 442:Drivers/CMSIS/Include/cmsis_gcc.h ****    __ASM volatile ("ldrexb %0, [%1]" : "=r" (result) : "r" (addr) : "memory" );
 443:Drivers/CMSIS/Include/cmsis_gcc.h **** #endif
 444:Drivers/CMSIS/Include/cmsis_gcc.h ****    return ((uint8_t) result);    /* Add explicit type cast here */
 445:Drivers/CMSIS/Include/cmsis_gcc.h **** }
 446:Drivers/CMSIS/Include/cmsis_gcc.h **** 
 447:Drivers/CMSIS/Include/cmsis_gcc.h **** 
 448:Drivers/CMSIS/Include/cmsis_gcc.h **** /**
ARM GAS  /tmp/ccoREEzA.s 			page 30


 449:Drivers/CMSIS/Include/cmsis_gcc.h ****   \brief   LDR Exclusive (16 bit)
 450:Drivers/CMSIS/Include/cmsis_gcc.h ****   \details Executes a exclusive LDR instruction for 16 bit values.
 451:Drivers/CMSIS/Include/cmsis_gcc.h ****   \param [in]    ptr  Pointer to data
 452:Drivers/CMSIS/Include/cmsis_gcc.h ****   \return        value of type uint16_t at (*ptr)
 453:Drivers/CMSIS/Include/cmsis_gcc.h ****  */
 454:Drivers/CMSIS/Include/cmsis_gcc.h **** __STATIC_FORCEINLINE uint16_t __LDREXH(volatile uint16_t *addr)
 455:Drivers/CMSIS/Include/cmsis_gcc.h **** {
 456:Drivers/CMSIS/Include/cmsis_gcc.h ****     uint32_t result;
 457:Drivers/CMSIS/Include/cmsis_gcc.h **** 
 458:Drivers/CMSIS/Include/cmsis_gcc.h **** #if (__GNUC__ > 4) || (__GNUC__ == 4 && __GNUC_MINOR__ >= 8)
 459:Drivers/CMSIS/Include/cmsis_gcc.h ****    __ASM volatile ("ldrexh %0, %1" : "=r" (result) : "Q" (*addr) );
 460:Drivers/CMSIS/Include/cmsis_gcc.h **** #else
 461:Drivers/CMSIS/Include/cmsis_gcc.h ****     /* Prior to GCC 4.8, "Q" will be expanded to [rx, #0] which is not
 462:Drivers/CMSIS/Include/cmsis_gcc.h ****        accepted by assembler. So has to use following less efficient pattern.
 463:Drivers/CMSIS/Include/cmsis_gcc.h ****     */
 464:Drivers/CMSIS/Include/cmsis_gcc.h ****    __ASM volatile ("ldrexh %0, [%1]" : "=r" (result) : "r" (addr) : "memory" );
 465:Drivers/CMSIS/Include/cmsis_gcc.h **** #endif
 466:Drivers/CMSIS/Include/cmsis_gcc.h ****    return ((uint16_t) result);    /* Add explicit type cast here */
 467:Drivers/CMSIS/Include/cmsis_gcc.h **** }
 468:Drivers/CMSIS/Include/cmsis_gcc.h **** 
 469:Drivers/CMSIS/Include/cmsis_gcc.h **** 
 470:Drivers/CMSIS/Include/cmsis_gcc.h **** /**
 471:Drivers/CMSIS/Include/cmsis_gcc.h ****   \brief   LDR Exclusive (32 bit)
 472:Drivers/CMSIS/Include/cmsis_gcc.h ****   \details Executes a exclusive LDR instruction for 32 bit values.
 473:Drivers/CMSIS/Include/cmsis_gcc.h ****   \param [in]    ptr  Pointer to data
 474:Drivers/CMSIS/Include/cmsis_gcc.h ****   \return        value of type uint32_t at (*ptr)
 475:Drivers/CMSIS/Include/cmsis_gcc.h ****  */
 476:Drivers/CMSIS/Include/cmsis_gcc.h **** __STATIC_FORCEINLINE uint32_t __LDREXW(volatile uint32_t *addr)
 477:Drivers/CMSIS/Include/cmsis_gcc.h **** {
 478:Drivers/CMSIS/Include/cmsis_gcc.h ****     uint32_t result;
 479:Drivers/CMSIS/Include/cmsis_gcc.h **** 
 480:Drivers/CMSIS/Include/cmsis_gcc.h ****    __ASM volatile ("ldrex %0, %1" : "=r" (result) : "Q" (*addr) );
 481:Drivers/CMSIS/Include/cmsis_gcc.h ****    return(result);
 482:Drivers/CMSIS/Include/cmsis_gcc.h **** }
 483:Drivers/CMSIS/Include/cmsis_gcc.h **** 
 484:Drivers/CMSIS/Include/cmsis_gcc.h **** 
 485:Drivers/CMSIS/Include/cmsis_gcc.h **** /**
 486:Drivers/CMSIS/Include/cmsis_gcc.h ****   \brief   STR Exclusive (8 bit)
 487:Drivers/CMSIS/Include/cmsis_gcc.h ****   \details Executes a exclusive STR instruction for 8 bit values.
 488:Drivers/CMSIS/Include/cmsis_gcc.h ****   \param [in]  value  Value to store
 489:Drivers/CMSIS/Include/cmsis_gcc.h ****   \param [in]    ptr  Pointer to location
 490:Drivers/CMSIS/Include/cmsis_gcc.h ****   \return          0  Function succeeded
 491:Drivers/CMSIS/Include/cmsis_gcc.h ****   \return          1  Function failed
 492:Drivers/CMSIS/Include/cmsis_gcc.h ****  */
 493:Drivers/CMSIS/Include/cmsis_gcc.h **** __STATIC_FORCEINLINE uint32_t __STREXB(uint8_t value, volatile uint8_t *addr)
 494:Drivers/CMSIS/Include/cmsis_gcc.h **** {
 495:Drivers/CMSIS/Include/cmsis_gcc.h ****    uint32_t result;
 496:Drivers/CMSIS/Include/cmsis_gcc.h **** 
 497:Drivers/CMSIS/Include/cmsis_gcc.h ****    __ASM volatile ("strexb %0, %2, %1" : "=&r" (result), "=Q" (*addr) : "r" ((uint32_t)value) );
 498:Drivers/CMSIS/Include/cmsis_gcc.h ****    return(result);
 499:Drivers/CMSIS/Include/cmsis_gcc.h **** }
 500:Drivers/CMSIS/Include/cmsis_gcc.h **** 
 501:Drivers/CMSIS/Include/cmsis_gcc.h **** 
 502:Drivers/CMSIS/Include/cmsis_gcc.h **** /**
 503:Drivers/CMSIS/Include/cmsis_gcc.h ****   \brief   STR Exclusive (16 bit)
 504:Drivers/CMSIS/Include/cmsis_gcc.h ****   \details Executes a exclusive STR instruction for 16 bit values.
 505:Drivers/CMSIS/Include/cmsis_gcc.h ****   \param [in]  value  Value to store
ARM GAS  /tmp/ccoREEzA.s 			page 31


 506:Drivers/CMSIS/Include/cmsis_gcc.h ****   \param [in]    ptr  Pointer to location
 507:Drivers/CMSIS/Include/cmsis_gcc.h ****   \return          0  Function succeeded
 508:Drivers/CMSIS/Include/cmsis_gcc.h ****   \return          1  Function failed
 509:Drivers/CMSIS/Include/cmsis_gcc.h ****  */
 510:Drivers/CMSIS/Include/cmsis_gcc.h **** __STATIC_FORCEINLINE uint32_t __STREXH(uint16_t value, volatile uint16_t *addr)
 511:Drivers/CMSIS/Include/cmsis_gcc.h **** {
 512:Drivers/CMSIS/Include/cmsis_gcc.h ****    uint32_t result;
 513:Drivers/CMSIS/Include/cmsis_gcc.h **** 
 514:Drivers/CMSIS/Include/cmsis_gcc.h ****    __ASM volatile ("strexh %0, %2, %1" : "=&r" (result), "=Q" (*addr) : "r" ((uint32_t)value) );
 515:Drivers/CMSIS/Include/cmsis_gcc.h ****    return(result);
 516:Drivers/CMSIS/Include/cmsis_gcc.h **** }
 517:Drivers/CMSIS/Include/cmsis_gcc.h **** 
 518:Drivers/CMSIS/Include/cmsis_gcc.h **** 
 519:Drivers/CMSIS/Include/cmsis_gcc.h **** /**
 520:Drivers/CMSIS/Include/cmsis_gcc.h ****   \brief   STR Exclusive (32 bit)
 521:Drivers/CMSIS/Include/cmsis_gcc.h ****   \details Executes a exclusive STR instruction for 32 bit values.
 522:Drivers/CMSIS/Include/cmsis_gcc.h ****   \param [in]  value  Value to store
 523:Drivers/CMSIS/Include/cmsis_gcc.h ****   \param [in]    ptr  Pointer to location
 524:Drivers/CMSIS/Include/cmsis_gcc.h ****   \return          0  Function succeeded
 525:Drivers/CMSIS/Include/cmsis_gcc.h ****   \return          1  Function failed
 526:Drivers/CMSIS/Include/cmsis_gcc.h ****  */
 527:Drivers/CMSIS/Include/cmsis_gcc.h **** __STATIC_FORCEINLINE uint32_t __STREXW(uint32_t value, volatile uint32_t *addr)
 528:Drivers/CMSIS/Include/cmsis_gcc.h **** {
 529:Drivers/CMSIS/Include/cmsis_gcc.h ****    uint32_t result;
 530:Drivers/CMSIS/Include/cmsis_gcc.h **** 
 531:Drivers/CMSIS/Include/cmsis_gcc.h ****    __ASM volatile ("strex %0, %2, %1" : "=&r" (result), "=Q" (*addr) : "r" (value) );
 532:Drivers/CMSIS/Include/cmsis_gcc.h ****    return(result);
 533:Drivers/CMSIS/Include/cmsis_gcc.h **** }
 534:Drivers/CMSIS/Include/cmsis_gcc.h **** 
 535:Drivers/CMSIS/Include/cmsis_gcc.h **** 
 536:Drivers/CMSIS/Include/cmsis_gcc.h **** /**
 537:Drivers/CMSIS/Include/cmsis_gcc.h ****   \brief   Remove the exclusive lock
 538:Drivers/CMSIS/Include/cmsis_gcc.h ****   \details Removes the exclusive lock which is created by LDREX.
 539:Drivers/CMSIS/Include/cmsis_gcc.h ****  */
 540:Drivers/CMSIS/Include/cmsis_gcc.h **** __STATIC_FORCEINLINE void __CLREX(void)
 541:Drivers/CMSIS/Include/cmsis_gcc.h **** {
 542:Drivers/CMSIS/Include/cmsis_gcc.h ****   __ASM volatile ("clrex" ::: "memory");
 543:Drivers/CMSIS/Include/cmsis_gcc.h **** }
 544:Drivers/CMSIS/Include/cmsis_gcc.h **** 
 545:Drivers/CMSIS/Include/cmsis_gcc.h **** #endif /* ((defined (__ARM_ARCH_7M__      ) && (__ARM_ARCH_7M__      == 1)) || \
 546:Drivers/CMSIS/Include/cmsis_gcc.h ****            (defined (__ARM_ARCH_7EM__     ) && (__ARM_ARCH_7EM__     == 1)) || \
 547:Drivers/CMSIS/Include/cmsis_gcc.h ****            (defined (__ARM_ARCH_8M_MAIN__ ) && (__ARM_ARCH_8M_MAIN__ == 1)) || \
 548:Drivers/CMSIS/Include/cmsis_gcc.h ****            (defined (__ARM_ARCH_8M_BASE__ ) && (__ARM_ARCH_8M_BASE__ == 1))    ) */
 549:Drivers/CMSIS/Include/cmsis_gcc.h **** 
 550:Drivers/CMSIS/Include/cmsis_gcc.h **** 
 551:Drivers/CMSIS/Include/cmsis_gcc.h **** #if ((defined (__ARM_ARCH_7M__      ) && (__ARM_ARCH_7M__      == 1)) || \
 552:Drivers/CMSIS/Include/cmsis_gcc.h ****      (defined (__ARM_ARCH_7EM__     ) && (__ARM_ARCH_7EM__     == 1)) || \
 553:Drivers/CMSIS/Include/cmsis_gcc.h ****      (defined (__ARM_ARCH_8M_MAIN__ ) && (__ARM_ARCH_8M_MAIN__ == 1))    )
 554:Drivers/CMSIS/Include/cmsis_gcc.h **** /**
 555:Drivers/CMSIS/Include/cmsis_gcc.h ****   \brief   Signed Saturate
 556:Drivers/CMSIS/Include/cmsis_gcc.h ****   \details Saturates a signed value.
 557:Drivers/CMSIS/Include/cmsis_gcc.h ****   \param [in]  ARG1  Value to be saturated
 558:Drivers/CMSIS/Include/cmsis_gcc.h ****   \param [in]  ARG2  Bit position to saturate to (1..32)
 559:Drivers/CMSIS/Include/cmsis_gcc.h ****   \return             Saturated value
 560:Drivers/CMSIS/Include/cmsis_gcc.h ****  */
 561:Drivers/CMSIS/Include/cmsis_gcc.h **** #define __SSAT(ARG1, ARG2) \
 562:Drivers/CMSIS/Include/cmsis_gcc.h **** __extension__ \
ARM GAS  /tmp/ccoREEzA.s 			page 32


 563:Drivers/CMSIS/Include/cmsis_gcc.h **** ({                          \
 564:Drivers/CMSIS/Include/cmsis_gcc.h ****   int32_t __RES, __ARG1 = (ARG1); \
 565:Drivers/CMSIS/Include/cmsis_gcc.h ****   __ASM volatile ("ssat %0, %1, %2" : "=r" (__RES) :  "I" (ARG2), "r" (__ARG1) : "cc" ); \
 566:Drivers/CMSIS/Include/cmsis_gcc.h ****   __RES; \
 567:Drivers/CMSIS/Include/cmsis_gcc.h ****  })
 568:Drivers/CMSIS/Include/cmsis_gcc.h **** 
 569:Drivers/CMSIS/Include/cmsis_gcc.h **** 
 570:Drivers/CMSIS/Include/cmsis_gcc.h **** /**
 571:Drivers/CMSIS/Include/cmsis_gcc.h ****   \brief   Unsigned Saturate
 572:Drivers/CMSIS/Include/cmsis_gcc.h ****   \details Saturates an unsigned value.
 573:Drivers/CMSIS/Include/cmsis_gcc.h ****   \param [in]  ARG1  Value to be saturated
 574:Drivers/CMSIS/Include/cmsis_gcc.h ****   \param [in]  ARG2  Bit position to saturate to (0..31)
 575:Drivers/CMSIS/Include/cmsis_gcc.h ****   \return             Saturated value
 576:Drivers/CMSIS/Include/cmsis_gcc.h ****  */
 577:Drivers/CMSIS/Include/cmsis_gcc.h **** #define __USAT(ARG1, ARG2) \
 578:Drivers/CMSIS/Include/cmsis_gcc.h **** __extension__ \
 579:Drivers/CMSIS/Include/cmsis_gcc.h **** ({                          \
 580:Drivers/CMSIS/Include/cmsis_gcc.h ****   uint32_t __RES, __ARG1 = (ARG1); \
 581:Drivers/CMSIS/Include/cmsis_gcc.h ****   __ASM volatile ("usat %0, %1, %2" : "=r" (__RES) :  "I" (ARG2), "r" (__ARG1) : "cc" ); \
 582:Drivers/CMSIS/Include/cmsis_gcc.h ****   __RES; \
 583:Drivers/CMSIS/Include/cmsis_gcc.h ****  })
 584:Drivers/CMSIS/Include/cmsis_gcc.h **** 
 585:Drivers/CMSIS/Include/cmsis_gcc.h **** 
 586:Drivers/CMSIS/Include/cmsis_gcc.h **** /**
 587:Drivers/CMSIS/Include/cmsis_gcc.h ****   \brief   Rotate Right with Extend (32 bit)
 588:Drivers/CMSIS/Include/cmsis_gcc.h ****   \details Moves each bit of a bitstring right by one bit.
 589:Drivers/CMSIS/Include/cmsis_gcc.h ****            The carry input is shifted in at the left end of the bitstring.
 590:Drivers/CMSIS/Include/cmsis_gcc.h ****   \param [in]    value  Value to rotate
 591:Drivers/CMSIS/Include/cmsis_gcc.h ****   \return               Rotated value
 592:Drivers/CMSIS/Include/cmsis_gcc.h ****  */
 593:Drivers/CMSIS/Include/cmsis_gcc.h **** __STATIC_FORCEINLINE uint32_t __RRX(uint32_t value)
 594:Drivers/CMSIS/Include/cmsis_gcc.h **** {
 595:Drivers/CMSIS/Include/cmsis_gcc.h ****   uint32_t result;
 596:Drivers/CMSIS/Include/cmsis_gcc.h **** 
 597:Drivers/CMSIS/Include/cmsis_gcc.h ****   __ASM volatile ("rrx %0, %1" : __CMSIS_GCC_OUT_REG (result) : __CMSIS_GCC_USE_REG (value) );
 598:Drivers/CMSIS/Include/cmsis_gcc.h ****   return(result);
 599:Drivers/CMSIS/Include/cmsis_gcc.h **** }
 600:Drivers/CMSIS/Include/cmsis_gcc.h **** 
 601:Drivers/CMSIS/Include/cmsis_gcc.h **** 
 602:Drivers/CMSIS/Include/cmsis_gcc.h **** /**
 603:Drivers/CMSIS/Include/cmsis_gcc.h ****   \brief   LDRT Unprivileged (8 bit)
 604:Drivers/CMSIS/Include/cmsis_gcc.h ****   \details Executes a Unprivileged LDRT instruction for 8 bit value.
 605:Drivers/CMSIS/Include/cmsis_gcc.h ****   \param [in]    ptr  Pointer to data
 606:Drivers/CMSIS/Include/cmsis_gcc.h ****   \return             value of type uint8_t at (*ptr)
 607:Drivers/CMSIS/Include/cmsis_gcc.h ****  */
 608:Drivers/CMSIS/Include/cmsis_gcc.h **** __STATIC_FORCEINLINE uint8_t __LDRBT(volatile uint8_t *ptr)
 609:Drivers/CMSIS/Include/cmsis_gcc.h **** {
 610:Drivers/CMSIS/Include/cmsis_gcc.h ****     uint32_t result;
 611:Drivers/CMSIS/Include/cmsis_gcc.h **** 
 612:Drivers/CMSIS/Include/cmsis_gcc.h **** #if (__GNUC__ > 4) || (__GNUC__ == 4 && __GNUC_MINOR__ >= 8)
 613:Drivers/CMSIS/Include/cmsis_gcc.h ****    __ASM volatile ("ldrbt %0, %1" : "=r" (result) : "Q" (*ptr) );
 614:Drivers/CMSIS/Include/cmsis_gcc.h **** #else
 615:Drivers/CMSIS/Include/cmsis_gcc.h ****     /* Prior to GCC 4.8, "Q" will be expanded to [rx, #0] which is not
 616:Drivers/CMSIS/Include/cmsis_gcc.h ****        accepted by assembler. So has to use following less efficient pattern.
 617:Drivers/CMSIS/Include/cmsis_gcc.h ****     */
 618:Drivers/CMSIS/Include/cmsis_gcc.h ****    __ASM volatile ("ldrbt %0, [%1]" : "=r" (result) : "r" (ptr) : "memory" );
 619:Drivers/CMSIS/Include/cmsis_gcc.h **** #endif
ARM GAS  /tmp/ccoREEzA.s 			page 33


 620:Drivers/CMSIS/Include/cmsis_gcc.h ****    return ((uint8_t) result);    /* Add explicit type cast here */
 621:Drivers/CMSIS/Include/cmsis_gcc.h **** }
 622:Drivers/CMSIS/Include/cmsis_gcc.h **** 
 623:Drivers/CMSIS/Include/cmsis_gcc.h **** 
 624:Drivers/CMSIS/Include/cmsis_gcc.h **** /**
 625:Drivers/CMSIS/Include/cmsis_gcc.h ****   \brief   LDRT Unprivileged (16 bit)
 626:Drivers/CMSIS/Include/cmsis_gcc.h ****   \details Executes a Unprivileged LDRT instruction for 16 bit values.
 627:Drivers/CMSIS/Include/cmsis_gcc.h ****   \param [in]    ptr  Pointer to data
 628:Drivers/CMSIS/Include/cmsis_gcc.h ****   \return        value of type uint16_t at (*ptr)
 629:Drivers/CMSIS/Include/cmsis_gcc.h ****  */
 630:Drivers/CMSIS/Include/cmsis_gcc.h **** __STATIC_FORCEINLINE uint16_t __LDRHT(volatile uint16_t *ptr)
 631:Drivers/CMSIS/Include/cmsis_gcc.h **** {
 632:Drivers/CMSIS/Include/cmsis_gcc.h ****     uint32_t result;
 633:Drivers/CMSIS/Include/cmsis_gcc.h **** 
 634:Drivers/CMSIS/Include/cmsis_gcc.h **** #if (__GNUC__ > 4) || (__GNUC__ == 4 && __GNUC_MINOR__ >= 8)
 635:Drivers/CMSIS/Include/cmsis_gcc.h ****    __ASM volatile ("ldrht %0, %1" : "=r" (result) : "Q" (*ptr) );
 636:Drivers/CMSIS/Include/cmsis_gcc.h **** #else
 637:Drivers/CMSIS/Include/cmsis_gcc.h ****     /* Prior to GCC 4.8, "Q" will be expanded to [rx, #0] which is not
 638:Drivers/CMSIS/Include/cmsis_gcc.h ****        accepted by assembler. So has to use following less efficient pattern.
 639:Drivers/CMSIS/Include/cmsis_gcc.h ****     */
 640:Drivers/CMSIS/Include/cmsis_gcc.h ****    __ASM volatile ("ldrht %0, [%1]" : "=r" (result) : "r" (ptr) : "memory" );
 641:Drivers/CMSIS/Include/cmsis_gcc.h **** #endif
 642:Drivers/CMSIS/Include/cmsis_gcc.h ****    return ((uint16_t) result);    /* Add explicit type cast here */
 643:Drivers/CMSIS/Include/cmsis_gcc.h **** }
 644:Drivers/CMSIS/Include/cmsis_gcc.h **** 
 645:Drivers/CMSIS/Include/cmsis_gcc.h **** 
 646:Drivers/CMSIS/Include/cmsis_gcc.h **** /**
 647:Drivers/CMSIS/Include/cmsis_gcc.h ****   \brief   LDRT Unprivileged (32 bit)
 648:Drivers/CMSIS/Include/cmsis_gcc.h ****   \details Executes a Unprivileged LDRT instruction for 32 bit values.
 649:Drivers/CMSIS/Include/cmsis_gcc.h ****   \param [in]    ptr  Pointer to data
 650:Drivers/CMSIS/Include/cmsis_gcc.h ****   \return        value of type uint32_t at (*ptr)
 651:Drivers/CMSIS/Include/cmsis_gcc.h ****  */
 652:Drivers/CMSIS/Include/cmsis_gcc.h **** __STATIC_FORCEINLINE uint32_t __LDRT(volatile uint32_t *ptr)
 653:Drivers/CMSIS/Include/cmsis_gcc.h **** {
 654:Drivers/CMSIS/Include/cmsis_gcc.h ****     uint32_t result;
 655:Drivers/CMSIS/Include/cmsis_gcc.h **** 
 656:Drivers/CMSIS/Include/cmsis_gcc.h ****    __ASM volatile ("ldrt %0, %1" : "=r" (result) : "Q" (*ptr) );
 657:Drivers/CMSIS/Include/cmsis_gcc.h ****    return(result);
 658:Drivers/CMSIS/Include/cmsis_gcc.h **** }
 659:Drivers/CMSIS/Include/cmsis_gcc.h **** 
 660:Drivers/CMSIS/Include/cmsis_gcc.h **** 
 661:Drivers/CMSIS/Include/cmsis_gcc.h **** /**
 662:Drivers/CMSIS/Include/cmsis_gcc.h ****   \brief   STRT Unprivileged (8 bit)
 663:Drivers/CMSIS/Include/cmsis_gcc.h ****   \details Executes a Unprivileged STRT instruction for 8 bit values.
 664:Drivers/CMSIS/Include/cmsis_gcc.h ****   \param [in]  value  Value to store
 665:Drivers/CMSIS/Include/cmsis_gcc.h ****   \param [in]    ptr  Pointer to location
 666:Drivers/CMSIS/Include/cmsis_gcc.h ****  */
 667:Drivers/CMSIS/Include/cmsis_gcc.h **** __STATIC_FORCEINLINE void __STRBT(uint8_t value, volatile uint8_t *ptr)
 668:Drivers/CMSIS/Include/cmsis_gcc.h **** {
 669:Drivers/CMSIS/Include/cmsis_gcc.h ****    __ASM volatile ("strbt %1, %0" : "=Q" (*ptr) : "r" ((uint32_t)value) );
 670:Drivers/CMSIS/Include/cmsis_gcc.h **** }
 671:Drivers/CMSIS/Include/cmsis_gcc.h **** 
 672:Drivers/CMSIS/Include/cmsis_gcc.h **** 
 673:Drivers/CMSIS/Include/cmsis_gcc.h **** /**
 674:Drivers/CMSIS/Include/cmsis_gcc.h ****   \brief   STRT Unprivileged (16 bit)
 675:Drivers/CMSIS/Include/cmsis_gcc.h ****   \details Executes a Unprivileged STRT instruction for 16 bit values.
 676:Drivers/CMSIS/Include/cmsis_gcc.h ****   \param [in]  value  Value to store
ARM GAS  /tmp/ccoREEzA.s 			page 34


 677:Drivers/CMSIS/Include/cmsis_gcc.h ****   \param [in]    ptr  Pointer to location
 678:Drivers/CMSIS/Include/cmsis_gcc.h ****  */
 679:Drivers/CMSIS/Include/cmsis_gcc.h **** __STATIC_FORCEINLINE void __STRHT(uint16_t value, volatile uint16_t *ptr)
 680:Drivers/CMSIS/Include/cmsis_gcc.h **** {
 681:Drivers/CMSIS/Include/cmsis_gcc.h ****    __ASM volatile ("strht %1, %0" : "=Q" (*ptr) : "r" ((uint32_t)value) );
 682:Drivers/CMSIS/Include/cmsis_gcc.h **** }
 683:Drivers/CMSIS/Include/cmsis_gcc.h **** 
 684:Drivers/CMSIS/Include/cmsis_gcc.h **** 
 685:Drivers/CMSIS/Include/cmsis_gcc.h **** /**
 686:Drivers/CMSIS/Include/cmsis_gcc.h ****   \brief   STRT Unprivileged (32 bit)
 687:Drivers/CMSIS/Include/cmsis_gcc.h ****   \details Executes a Unprivileged STRT instruction for 32 bit values.
 688:Drivers/CMSIS/Include/cmsis_gcc.h ****   \param [in]  value  Value to store
 689:Drivers/CMSIS/Include/cmsis_gcc.h ****   \param [in]    ptr  Pointer to location
 690:Drivers/CMSIS/Include/cmsis_gcc.h ****  */
 691:Drivers/CMSIS/Include/cmsis_gcc.h **** __STATIC_FORCEINLINE void __STRT(uint32_t value, volatile uint32_t *ptr)
 692:Drivers/CMSIS/Include/cmsis_gcc.h **** {
 693:Drivers/CMSIS/Include/cmsis_gcc.h ****    __ASM volatile ("strt %1, %0" : "=Q" (*ptr) : "r" (value) );
 694:Drivers/CMSIS/Include/cmsis_gcc.h **** }
 695:Drivers/CMSIS/Include/cmsis_gcc.h **** 
 696:Drivers/CMSIS/Include/cmsis_gcc.h **** #else  /* ((defined (__ARM_ARCH_7M__      ) && (__ARM_ARCH_7M__      == 1)) || \
 697:Drivers/CMSIS/Include/cmsis_gcc.h ****            (defined (__ARM_ARCH_7EM__     ) && (__ARM_ARCH_7EM__     == 1)) || \
 698:Drivers/CMSIS/Include/cmsis_gcc.h ****            (defined (__ARM_ARCH_8M_MAIN__ ) && (__ARM_ARCH_8M_MAIN__ == 1))    ) */
 699:Drivers/CMSIS/Include/cmsis_gcc.h **** 
 700:Drivers/CMSIS/Include/cmsis_gcc.h **** /**
 701:Drivers/CMSIS/Include/cmsis_gcc.h ****   \brief   Signed Saturate
 702:Drivers/CMSIS/Include/cmsis_gcc.h ****   \details Saturates a signed value.
 703:Drivers/CMSIS/Include/cmsis_gcc.h ****   \param [in]  value  Value to be saturated
 704:Drivers/CMSIS/Include/cmsis_gcc.h ****   \param [in]    sat  Bit position to saturate to (1..32)
 705:Drivers/CMSIS/Include/cmsis_gcc.h ****   \return             Saturated value
 706:Drivers/CMSIS/Include/cmsis_gcc.h ****  */
 707:Drivers/CMSIS/Include/cmsis_gcc.h **** __STATIC_FORCEINLINE int32_t __SSAT(int32_t val, uint32_t sat)
 708:Drivers/CMSIS/Include/cmsis_gcc.h **** {
 709:Drivers/CMSIS/Include/cmsis_gcc.h ****   if ((sat >= 1U) && (sat <= 32U))
 710:Drivers/CMSIS/Include/cmsis_gcc.h ****   {
 711:Drivers/CMSIS/Include/cmsis_gcc.h ****     const int32_t max = (int32_t)((1U << (sat - 1U)) - 1U);
 712:Drivers/CMSIS/Include/cmsis_gcc.h ****     const int32_t min = -1 - max ;
 713:Drivers/CMSIS/Include/cmsis_gcc.h ****     if (val > max)
 714:Drivers/CMSIS/Include/cmsis_gcc.h ****     {
 715:Drivers/CMSIS/Include/cmsis_gcc.h ****       return max;
 716:Drivers/CMSIS/Include/cmsis_gcc.h ****     }
 717:Drivers/CMSIS/Include/cmsis_gcc.h ****     else if (val < min)
 718:Drivers/CMSIS/Include/cmsis_gcc.h ****     {
 719:Drivers/CMSIS/Include/cmsis_gcc.h ****       return min;
 720:Drivers/CMSIS/Include/cmsis_gcc.h ****     }
 721:Drivers/CMSIS/Include/cmsis_gcc.h ****   }
 722:Drivers/CMSIS/Include/cmsis_gcc.h ****   return val;
 723:Drivers/CMSIS/Include/cmsis_gcc.h **** }
 724:Drivers/CMSIS/Include/cmsis_gcc.h **** 
 725:Drivers/CMSIS/Include/cmsis_gcc.h **** /**
 726:Drivers/CMSIS/Include/cmsis_gcc.h ****   \brief   Unsigned Saturate
 727:Drivers/CMSIS/Include/cmsis_gcc.h ****   \details Saturates an unsigned value.
 728:Drivers/CMSIS/Include/cmsis_gcc.h ****   \param [in]  value  Value to be saturated
 729:Drivers/CMSIS/Include/cmsis_gcc.h ****   \param [in]    sat  Bit position to saturate to (0..31)
 730:Drivers/CMSIS/Include/cmsis_gcc.h ****   \return             Saturated value
 731:Drivers/CMSIS/Include/cmsis_gcc.h ****  */
 732:Drivers/CMSIS/Include/cmsis_gcc.h **** __STATIC_FORCEINLINE uint32_t __USAT(int32_t val, uint32_t sat)
 733:Drivers/CMSIS/Include/cmsis_gcc.h **** {
ARM GAS  /tmp/ccoREEzA.s 			page 35


 734:Drivers/CMSIS/Include/cmsis_gcc.h ****   if (sat <= 31U)
 735:Drivers/CMSIS/Include/cmsis_gcc.h ****   {
 736:Drivers/CMSIS/Include/cmsis_gcc.h ****     const uint32_t max = ((1U << sat) - 1U);
 737:Drivers/CMSIS/Include/cmsis_gcc.h ****     if (val > (int32_t)max)
 738:Drivers/CMSIS/Include/cmsis_gcc.h ****     {
 739:Drivers/CMSIS/Include/cmsis_gcc.h ****       return max;
 740:Drivers/CMSIS/Include/cmsis_gcc.h ****     }
 741:Drivers/CMSIS/Include/cmsis_gcc.h ****     else if (val < 0)
 742:Drivers/CMSIS/Include/cmsis_gcc.h ****     {
 743:Drivers/CMSIS/Include/cmsis_gcc.h ****       return 0U;
 744:Drivers/CMSIS/Include/cmsis_gcc.h ****     }
 745:Drivers/CMSIS/Include/cmsis_gcc.h ****   }
 746:Drivers/CMSIS/Include/cmsis_gcc.h ****   return (uint32_t)val;
 747:Drivers/CMSIS/Include/cmsis_gcc.h **** }
 748:Drivers/CMSIS/Include/cmsis_gcc.h **** 
 749:Drivers/CMSIS/Include/cmsis_gcc.h **** #endif /* ((defined (__ARM_ARCH_7M__      ) && (__ARM_ARCH_7M__      == 1)) || \
 750:Drivers/CMSIS/Include/cmsis_gcc.h ****            (defined (__ARM_ARCH_7EM__     ) && (__ARM_ARCH_7EM__     == 1)) || \
 751:Drivers/CMSIS/Include/cmsis_gcc.h ****            (defined (__ARM_ARCH_8M_MAIN__ ) && (__ARM_ARCH_8M_MAIN__ == 1))    ) */
 752:Drivers/CMSIS/Include/cmsis_gcc.h **** 
 753:Drivers/CMSIS/Include/cmsis_gcc.h **** 
 754:Drivers/CMSIS/Include/cmsis_gcc.h **** #if ((defined (__ARM_ARCH_8M_MAIN__ ) && (__ARM_ARCH_8M_MAIN__ == 1)) || \
 755:Drivers/CMSIS/Include/cmsis_gcc.h ****      (defined (__ARM_ARCH_8M_BASE__ ) && (__ARM_ARCH_8M_BASE__ == 1))    )
 756:Drivers/CMSIS/Include/cmsis_gcc.h **** /**
 757:Drivers/CMSIS/Include/cmsis_gcc.h ****   \brief   Load-Acquire (8 bit)
 758:Drivers/CMSIS/Include/cmsis_gcc.h ****   \details Executes a LDAB instruction for 8 bit value.
 759:Drivers/CMSIS/Include/cmsis_gcc.h ****   \param [in]    ptr  Pointer to data
 760:Drivers/CMSIS/Include/cmsis_gcc.h ****   \return             value of type uint8_t at (*ptr)
 761:Drivers/CMSIS/Include/cmsis_gcc.h ****  */
 762:Drivers/CMSIS/Include/cmsis_gcc.h **** __STATIC_FORCEINLINE uint8_t __LDAB(volatile uint8_t *ptr)
 763:Drivers/CMSIS/Include/cmsis_gcc.h **** {
 764:Drivers/CMSIS/Include/cmsis_gcc.h ****     uint32_t result;
 765:Drivers/CMSIS/Include/cmsis_gcc.h **** 
 766:Drivers/CMSIS/Include/cmsis_gcc.h ****    __ASM volatile ("ldab %0, %1" : "=r" (result) : "Q" (*ptr) : "memory" );
 767:Drivers/CMSIS/Include/cmsis_gcc.h ****    return ((uint8_t) result);
 768:Drivers/CMSIS/Include/cmsis_gcc.h **** }
 769:Drivers/CMSIS/Include/cmsis_gcc.h **** 
 770:Drivers/CMSIS/Include/cmsis_gcc.h **** 
 771:Drivers/CMSIS/Include/cmsis_gcc.h **** /**
 772:Drivers/CMSIS/Include/cmsis_gcc.h ****   \brief   Load-Acquire (16 bit)
 773:Drivers/CMSIS/Include/cmsis_gcc.h ****   \details Executes a LDAH instruction for 16 bit values.
 774:Drivers/CMSIS/Include/cmsis_gcc.h ****   \param [in]    ptr  Pointer to data
 775:Drivers/CMSIS/Include/cmsis_gcc.h ****   \return        value of type uint16_t at (*ptr)
 776:Drivers/CMSIS/Include/cmsis_gcc.h ****  */
 777:Drivers/CMSIS/Include/cmsis_gcc.h **** __STATIC_FORCEINLINE uint16_t __LDAH(volatile uint16_t *ptr)
 778:Drivers/CMSIS/Include/cmsis_gcc.h **** {
 779:Drivers/CMSIS/Include/cmsis_gcc.h ****     uint32_t result;
 780:Drivers/CMSIS/Include/cmsis_gcc.h **** 
 781:Drivers/CMSIS/Include/cmsis_gcc.h ****    __ASM volatile ("ldah %0, %1" : "=r" (result) : "Q" (*ptr) : "memory" );
 782:Drivers/CMSIS/Include/cmsis_gcc.h ****    return ((uint16_t) result);
 783:Drivers/CMSIS/Include/cmsis_gcc.h **** }
 784:Drivers/CMSIS/Include/cmsis_gcc.h **** 
 785:Drivers/CMSIS/Include/cmsis_gcc.h **** 
 786:Drivers/CMSIS/Include/cmsis_gcc.h **** /**
 787:Drivers/CMSIS/Include/cmsis_gcc.h ****   \brief   Load-Acquire (32 bit)
 788:Drivers/CMSIS/Include/cmsis_gcc.h ****   \details Executes a LDA instruction for 32 bit values.
 789:Drivers/CMSIS/Include/cmsis_gcc.h ****   \param [in]    ptr  Pointer to data
 790:Drivers/CMSIS/Include/cmsis_gcc.h ****   \return        value of type uint32_t at (*ptr)
ARM GAS  /tmp/ccoREEzA.s 			page 36


 791:Drivers/CMSIS/Include/cmsis_gcc.h ****  */
 792:Drivers/CMSIS/Include/cmsis_gcc.h **** __STATIC_FORCEINLINE uint32_t __LDA(volatile uint32_t *ptr)
 793:Drivers/CMSIS/Include/cmsis_gcc.h **** {
 794:Drivers/CMSIS/Include/cmsis_gcc.h ****     uint32_t result;
 795:Drivers/CMSIS/Include/cmsis_gcc.h **** 
 796:Drivers/CMSIS/Include/cmsis_gcc.h ****    __ASM volatile ("lda %0, %1" : "=r" (result) : "Q" (*ptr) : "memory" );
 797:Drivers/CMSIS/Include/cmsis_gcc.h ****    return(result);
 798:Drivers/CMSIS/Include/cmsis_gcc.h **** }
 799:Drivers/CMSIS/Include/cmsis_gcc.h **** 
 800:Drivers/CMSIS/Include/cmsis_gcc.h **** 
 801:Drivers/CMSIS/Include/cmsis_gcc.h **** /**
 802:Drivers/CMSIS/Include/cmsis_gcc.h ****   \brief   Store-Release (8 bit)
 803:Drivers/CMSIS/Include/cmsis_gcc.h ****   \details Executes a STLB instruction for 8 bit values.
 804:Drivers/CMSIS/Include/cmsis_gcc.h ****   \param [in]  value  Value to store
 805:Drivers/CMSIS/Include/cmsis_gcc.h ****   \param [in]    ptr  Pointer to location
 806:Drivers/CMSIS/Include/cmsis_gcc.h ****  */
 807:Drivers/CMSIS/Include/cmsis_gcc.h **** __STATIC_FORCEINLINE void __STLB(uint8_t value, volatile uint8_t *ptr)
 808:Drivers/CMSIS/Include/cmsis_gcc.h **** {
 809:Drivers/CMSIS/Include/cmsis_gcc.h ****    __ASM volatile ("stlb %1, %0" : "=Q" (*ptr) : "r" ((uint32_t)value) : "memory" );
 810:Drivers/CMSIS/Include/cmsis_gcc.h **** }
 811:Drivers/CMSIS/Include/cmsis_gcc.h **** 
 812:Drivers/CMSIS/Include/cmsis_gcc.h **** 
 813:Drivers/CMSIS/Include/cmsis_gcc.h **** /**
 814:Drivers/CMSIS/Include/cmsis_gcc.h ****   \brief   Store-Release (16 bit)
 815:Drivers/CMSIS/Include/cmsis_gcc.h ****   \details Executes a STLH instruction for 16 bit values.
 816:Drivers/CMSIS/Include/cmsis_gcc.h ****   \param [in]  value  Value to store
 817:Drivers/CMSIS/Include/cmsis_gcc.h ****   \param [in]    ptr  Pointer to location
 818:Drivers/CMSIS/Include/cmsis_gcc.h ****  */
 819:Drivers/CMSIS/Include/cmsis_gcc.h **** __STATIC_FORCEINLINE void __STLH(uint16_t value, volatile uint16_t *ptr)
 820:Drivers/CMSIS/Include/cmsis_gcc.h **** {
 821:Drivers/CMSIS/Include/cmsis_gcc.h ****    __ASM volatile ("stlh %1, %0" : "=Q" (*ptr) : "r" ((uint32_t)value) : "memory" );
 822:Drivers/CMSIS/Include/cmsis_gcc.h **** }
 823:Drivers/CMSIS/Include/cmsis_gcc.h **** 
 824:Drivers/CMSIS/Include/cmsis_gcc.h **** 
 825:Drivers/CMSIS/Include/cmsis_gcc.h **** /**
 826:Drivers/CMSIS/Include/cmsis_gcc.h ****   \brief   Store-Release (32 bit)
 827:Drivers/CMSIS/Include/cmsis_gcc.h ****   \details Executes a STL instruction for 32 bit values.
 828:Drivers/CMSIS/Include/cmsis_gcc.h ****   \param [in]  value  Value to store
 829:Drivers/CMSIS/Include/cmsis_gcc.h ****   \param [in]    ptr  Pointer to location
 830:Drivers/CMSIS/Include/cmsis_gcc.h ****  */
 831:Drivers/CMSIS/Include/cmsis_gcc.h **** __STATIC_FORCEINLINE void __STL(uint32_t value, volatile uint32_t *ptr)
 832:Drivers/CMSIS/Include/cmsis_gcc.h **** {
 833:Drivers/CMSIS/Include/cmsis_gcc.h ****    __ASM volatile ("stl %1, %0" : "=Q" (*ptr) : "r" ((uint32_t)value) : "memory" );
 834:Drivers/CMSIS/Include/cmsis_gcc.h **** }
 835:Drivers/CMSIS/Include/cmsis_gcc.h **** 
 836:Drivers/CMSIS/Include/cmsis_gcc.h **** 
 837:Drivers/CMSIS/Include/cmsis_gcc.h **** /**
 838:Drivers/CMSIS/Include/cmsis_gcc.h ****   \brief   Load-Acquire Exclusive (8 bit)
 839:Drivers/CMSIS/Include/cmsis_gcc.h ****   \details Executes a LDAB exclusive instruction for 8 bit value.
 840:Drivers/CMSIS/Include/cmsis_gcc.h ****   \param [in]    ptr  Pointer to data
 841:Drivers/CMSIS/Include/cmsis_gcc.h ****   \return             value of type uint8_t at (*ptr)
 842:Drivers/CMSIS/Include/cmsis_gcc.h ****  */
 843:Drivers/CMSIS/Include/cmsis_gcc.h **** __STATIC_FORCEINLINE uint8_t __LDAEXB(volatile uint8_t *ptr)
 844:Drivers/CMSIS/Include/cmsis_gcc.h **** {
 845:Drivers/CMSIS/Include/cmsis_gcc.h ****     uint32_t result;
 846:Drivers/CMSIS/Include/cmsis_gcc.h **** 
 847:Drivers/CMSIS/Include/cmsis_gcc.h ****    __ASM volatile ("ldaexb %0, %1" : "=r" (result) : "Q" (*ptr) : "memory" );
ARM GAS  /tmp/ccoREEzA.s 			page 37


 848:Drivers/CMSIS/Include/cmsis_gcc.h ****    return ((uint8_t) result);
 849:Drivers/CMSIS/Include/cmsis_gcc.h **** }
 850:Drivers/CMSIS/Include/cmsis_gcc.h **** 
 851:Drivers/CMSIS/Include/cmsis_gcc.h **** 
 852:Drivers/CMSIS/Include/cmsis_gcc.h **** /**
 853:Drivers/CMSIS/Include/cmsis_gcc.h ****   \brief   Load-Acquire Exclusive (16 bit)
 854:Drivers/CMSIS/Include/cmsis_gcc.h ****   \details Executes a LDAH exclusive instruction for 16 bit values.
 855:Drivers/CMSIS/Include/cmsis_gcc.h ****   \param [in]    ptr  Pointer to data
 856:Drivers/CMSIS/Include/cmsis_gcc.h ****   \return        value of type uint16_t at (*ptr)
 857:Drivers/CMSIS/Include/cmsis_gcc.h ****  */
 858:Drivers/CMSIS/Include/cmsis_gcc.h **** __STATIC_FORCEINLINE uint16_t __LDAEXH(volatile uint16_t *ptr)
 859:Drivers/CMSIS/Include/cmsis_gcc.h **** {
 860:Drivers/CMSIS/Include/cmsis_gcc.h ****     uint32_t result;
 861:Drivers/CMSIS/Include/cmsis_gcc.h **** 
 862:Drivers/CMSIS/Include/cmsis_gcc.h ****    __ASM volatile ("ldaexh %0, %1" : "=r" (result) : "Q" (*ptr) : "memory" );
 863:Drivers/CMSIS/Include/cmsis_gcc.h ****    return ((uint16_t) result);
 864:Drivers/CMSIS/Include/cmsis_gcc.h **** }
 865:Drivers/CMSIS/Include/cmsis_gcc.h **** 
 866:Drivers/CMSIS/Include/cmsis_gcc.h **** 
 867:Drivers/CMSIS/Include/cmsis_gcc.h **** /**
 868:Drivers/CMSIS/Include/cmsis_gcc.h ****   \brief   Load-Acquire Exclusive (32 bit)
 869:Drivers/CMSIS/Include/cmsis_gcc.h ****   \details Executes a LDA exclusive instruction for 32 bit values.
 870:Drivers/CMSIS/Include/cmsis_gcc.h ****   \param [in]    ptr  Pointer to data
 871:Drivers/CMSIS/Include/cmsis_gcc.h ****   \return        value of type uint32_t at (*ptr)
 872:Drivers/CMSIS/Include/cmsis_gcc.h ****  */
 873:Drivers/CMSIS/Include/cmsis_gcc.h **** __STATIC_FORCEINLINE uint32_t __LDAEX(volatile uint32_t *ptr)
 874:Drivers/CMSIS/Include/cmsis_gcc.h **** {
 875:Drivers/CMSIS/Include/cmsis_gcc.h ****     uint32_t result;
 876:Drivers/CMSIS/Include/cmsis_gcc.h **** 
 877:Drivers/CMSIS/Include/cmsis_gcc.h ****    __ASM volatile ("ldaex %0, %1" : "=r" (result) : "Q" (*ptr) : "memory" );
 878:Drivers/CMSIS/Include/cmsis_gcc.h ****    return(result);
 879:Drivers/CMSIS/Include/cmsis_gcc.h **** }
 880:Drivers/CMSIS/Include/cmsis_gcc.h **** 
 881:Drivers/CMSIS/Include/cmsis_gcc.h **** 
 882:Drivers/CMSIS/Include/cmsis_gcc.h **** /**
 883:Drivers/CMSIS/Include/cmsis_gcc.h ****   \brief   Store-Release Exclusive (8 bit)
 884:Drivers/CMSIS/Include/cmsis_gcc.h ****   \details Executes a STLB exclusive instruction for 8 bit values.
 885:Drivers/CMSIS/Include/cmsis_gcc.h ****   \param [in]  value  Value to store
 886:Drivers/CMSIS/Include/cmsis_gcc.h ****   \param [in]    ptr  Pointer to location
 887:Drivers/CMSIS/Include/cmsis_gcc.h ****   \return          0  Function succeeded
 888:Drivers/CMSIS/Include/cmsis_gcc.h ****   \return          1  Function failed
 889:Drivers/CMSIS/Include/cmsis_gcc.h ****  */
 890:Drivers/CMSIS/Include/cmsis_gcc.h **** __STATIC_FORCEINLINE uint32_t __STLEXB(uint8_t value, volatile uint8_t *ptr)
 891:Drivers/CMSIS/Include/cmsis_gcc.h **** {
 892:Drivers/CMSIS/Include/cmsis_gcc.h ****    uint32_t result;
 893:Drivers/CMSIS/Include/cmsis_gcc.h **** 
 894:Drivers/CMSIS/Include/cmsis_gcc.h ****    __ASM volatile ("stlexb %0, %2, %1" : "=&r" (result), "=Q" (*ptr) : "r" ((uint32_t)value) : "mem
 895:Drivers/CMSIS/Include/cmsis_gcc.h ****    return(result);
 896:Drivers/CMSIS/Include/cmsis_gcc.h **** }
 897:Drivers/CMSIS/Include/cmsis_gcc.h **** 
 898:Drivers/CMSIS/Include/cmsis_gcc.h **** 
 899:Drivers/CMSIS/Include/cmsis_gcc.h **** /**
 900:Drivers/CMSIS/Include/cmsis_gcc.h ****   \brief   Store-Release Exclusive (16 bit)
 901:Drivers/CMSIS/Include/cmsis_gcc.h ****   \details Executes a STLH exclusive instruction for 16 bit values.
 902:Drivers/CMSIS/Include/cmsis_gcc.h ****   \param [in]  value  Value to store
 903:Drivers/CMSIS/Include/cmsis_gcc.h ****   \param [in]    ptr  Pointer to location
 904:Drivers/CMSIS/Include/cmsis_gcc.h ****   \return          0  Function succeeded
ARM GAS  /tmp/ccoREEzA.s 			page 38


 905:Drivers/CMSIS/Include/cmsis_gcc.h ****   \return          1  Function failed
 906:Drivers/CMSIS/Include/cmsis_gcc.h ****  */
 907:Drivers/CMSIS/Include/cmsis_gcc.h **** __STATIC_FORCEINLINE uint32_t __STLEXH(uint16_t value, volatile uint16_t *ptr)
 908:Drivers/CMSIS/Include/cmsis_gcc.h **** {
 909:Drivers/CMSIS/Include/cmsis_gcc.h ****    uint32_t result;
 910:Drivers/CMSIS/Include/cmsis_gcc.h **** 
 911:Drivers/CMSIS/Include/cmsis_gcc.h ****    __ASM volatile ("stlexh %0, %2, %1" : "=&r" (result), "=Q" (*ptr) : "r" ((uint32_t)value) : "mem
 912:Drivers/CMSIS/Include/cmsis_gcc.h ****    return(result);
 913:Drivers/CMSIS/Include/cmsis_gcc.h **** }
 914:Drivers/CMSIS/Include/cmsis_gcc.h **** 
 915:Drivers/CMSIS/Include/cmsis_gcc.h **** 
 916:Drivers/CMSIS/Include/cmsis_gcc.h **** /**
 917:Drivers/CMSIS/Include/cmsis_gcc.h ****   \brief   Store-Release Exclusive (32 bit)
 918:Drivers/CMSIS/Include/cmsis_gcc.h ****   \details Executes a STL exclusive instruction for 32 bit values.
 919:Drivers/CMSIS/Include/cmsis_gcc.h ****   \param [in]  value  Value to store
 920:Drivers/CMSIS/Include/cmsis_gcc.h ****   \param [in]    ptr  Pointer to location
 921:Drivers/CMSIS/Include/cmsis_gcc.h ****   \return          0  Function succeeded
 922:Drivers/CMSIS/Include/cmsis_gcc.h ****   \return          1  Function failed
 923:Drivers/CMSIS/Include/cmsis_gcc.h ****  */
 924:Drivers/CMSIS/Include/cmsis_gcc.h **** __STATIC_FORCEINLINE uint32_t __STLEX(uint32_t value, volatile uint32_t *ptr)
 925:Drivers/CMSIS/Include/cmsis_gcc.h **** {
 926:Drivers/CMSIS/Include/cmsis_gcc.h ****    uint32_t result;
 927:Drivers/CMSIS/Include/cmsis_gcc.h **** 
 928:Drivers/CMSIS/Include/cmsis_gcc.h ****    __ASM volatile ("stlex %0, %2, %1" : "=&r" (result), "=Q" (*ptr) : "r" ((uint32_t)value) : "memo
 929:Drivers/CMSIS/Include/cmsis_gcc.h ****    return(result);
 930:Drivers/CMSIS/Include/cmsis_gcc.h **** }
 931:Drivers/CMSIS/Include/cmsis_gcc.h **** 
 932:Drivers/CMSIS/Include/cmsis_gcc.h **** #endif /* ((defined (__ARM_ARCH_8M_MAIN__ ) && (__ARM_ARCH_8M_MAIN__ == 1)) || \
 933:Drivers/CMSIS/Include/cmsis_gcc.h ****            (defined (__ARM_ARCH_8M_BASE__ ) && (__ARM_ARCH_8M_BASE__ == 1))    ) */
 934:Drivers/CMSIS/Include/cmsis_gcc.h **** 
 935:Drivers/CMSIS/Include/cmsis_gcc.h **** /*@}*/ /* end of group CMSIS_Core_InstructionInterface */
 936:Drivers/CMSIS/Include/cmsis_gcc.h **** 
 937:Drivers/CMSIS/Include/cmsis_gcc.h **** 
 938:Drivers/CMSIS/Include/cmsis_gcc.h **** /* ###########################  Core Function Access  ########################### */
 939:Drivers/CMSIS/Include/cmsis_gcc.h **** /** \ingroup  CMSIS_Core_FunctionInterface
 940:Drivers/CMSIS/Include/cmsis_gcc.h ****     \defgroup CMSIS_Core_RegAccFunctions CMSIS Core Register Access Functions
 941:Drivers/CMSIS/Include/cmsis_gcc.h ****   @{
 942:Drivers/CMSIS/Include/cmsis_gcc.h ****  */
 943:Drivers/CMSIS/Include/cmsis_gcc.h **** 
 944:Drivers/CMSIS/Include/cmsis_gcc.h **** /**
 945:Drivers/CMSIS/Include/cmsis_gcc.h ****   \brief   Enable IRQ Interrupts
 946:Drivers/CMSIS/Include/cmsis_gcc.h ****   \details Enables IRQ interrupts by clearing special-purpose register PRIMASK.
 947:Drivers/CMSIS/Include/cmsis_gcc.h ****            Can only be executed in Privileged modes.
 948:Drivers/CMSIS/Include/cmsis_gcc.h ****  */
 949:Drivers/CMSIS/Include/cmsis_gcc.h **** __STATIC_FORCEINLINE void __enable_irq(void)
 950:Drivers/CMSIS/Include/cmsis_gcc.h **** {
 951:Drivers/CMSIS/Include/cmsis_gcc.h ****   __ASM volatile ("cpsie i" : : : "memory");
 952:Drivers/CMSIS/Include/cmsis_gcc.h **** }
 953:Drivers/CMSIS/Include/cmsis_gcc.h **** 
 954:Drivers/CMSIS/Include/cmsis_gcc.h **** 
 955:Drivers/CMSIS/Include/cmsis_gcc.h **** /**
 956:Drivers/CMSIS/Include/cmsis_gcc.h ****   \brief   Disable IRQ Interrupts
 957:Drivers/CMSIS/Include/cmsis_gcc.h ****   \details Disables IRQ interrupts by setting special-purpose register PRIMASK.
 958:Drivers/CMSIS/Include/cmsis_gcc.h ****            Can only be executed in Privileged modes.
 959:Drivers/CMSIS/Include/cmsis_gcc.h ****  */
 960:Drivers/CMSIS/Include/cmsis_gcc.h **** __STATIC_FORCEINLINE void __disable_irq(void)
 961:Drivers/CMSIS/Include/cmsis_gcc.h **** {
ARM GAS  /tmp/ccoREEzA.s 			page 39


 962:Drivers/CMSIS/Include/cmsis_gcc.h ****   __ASM volatile ("cpsid i" : : : "memory");
 963:Drivers/CMSIS/Include/cmsis_gcc.h **** }
 964:Drivers/CMSIS/Include/cmsis_gcc.h **** 
 965:Drivers/CMSIS/Include/cmsis_gcc.h **** 
 966:Drivers/CMSIS/Include/cmsis_gcc.h **** /**
 967:Drivers/CMSIS/Include/cmsis_gcc.h ****   \brief   Get Control Register
 968:Drivers/CMSIS/Include/cmsis_gcc.h ****   \details Returns the content of the Control Register.
 969:Drivers/CMSIS/Include/cmsis_gcc.h ****   \return               Control Register value
 970:Drivers/CMSIS/Include/cmsis_gcc.h ****  */
 971:Drivers/CMSIS/Include/cmsis_gcc.h **** __STATIC_FORCEINLINE uint32_t __get_CONTROL(void)
 972:Drivers/CMSIS/Include/cmsis_gcc.h **** {
 973:Drivers/CMSIS/Include/cmsis_gcc.h ****   uint32_t result;
 974:Drivers/CMSIS/Include/cmsis_gcc.h **** 
 975:Drivers/CMSIS/Include/cmsis_gcc.h ****   __ASM volatile ("MRS %0, control" : "=r" (result) );
 976:Drivers/CMSIS/Include/cmsis_gcc.h ****   return(result);
 977:Drivers/CMSIS/Include/cmsis_gcc.h **** }
 978:Drivers/CMSIS/Include/cmsis_gcc.h **** 
 979:Drivers/CMSIS/Include/cmsis_gcc.h **** 
 980:Drivers/CMSIS/Include/cmsis_gcc.h **** #if (defined (__ARM_FEATURE_CMSE ) && (__ARM_FEATURE_CMSE == 3))
 981:Drivers/CMSIS/Include/cmsis_gcc.h **** /**
 982:Drivers/CMSIS/Include/cmsis_gcc.h ****   \brief   Get Control Register (non-secure)
 983:Drivers/CMSIS/Include/cmsis_gcc.h ****   \details Returns the content of the non-secure Control Register when in secure mode.
 984:Drivers/CMSIS/Include/cmsis_gcc.h ****   \return               non-secure Control Register value
 985:Drivers/CMSIS/Include/cmsis_gcc.h ****  */
 986:Drivers/CMSIS/Include/cmsis_gcc.h **** __STATIC_FORCEINLINE uint32_t __TZ_get_CONTROL_NS(void)
 987:Drivers/CMSIS/Include/cmsis_gcc.h **** {
 988:Drivers/CMSIS/Include/cmsis_gcc.h ****   uint32_t result;
 989:Drivers/CMSIS/Include/cmsis_gcc.h **** 
 990:Drivers/CMSIS/Include/cmsis_gcc.h ****   __ASM volatile ("MRS %0, control_ns" : "=r" (result) );
 991:Drivers/CMSIS/Include/cmsis_gcc.h ****   return(result);
 992:Drivers/CMSIS/Include/cmsis_gcc.h **** }
 993:Drivers/CMSIS/Include/cmsis_gcc.h **** #endif
 994:Drivers/CMSIS/Include/cmsis_gcc.h **** 
 995:Drivers/CMSIS/Include/cmsis_gcc.h **** 
 996:Drivers/CMSIS/Include/cmsis_gcc.h **** /**
 997:Drivers/CMSIS/Include/cmsis_gcc.h ****   \brief   Set Control Register
 998:Drivers/CMSIS/Include/cmsis_gcc.h ****   \details Writes the given value to the Control Register.
 999:Drivers/CMSIS/Include/cmsis_gcc.h ****   \param [in]    control  Control Register value to set
1000:Drivers/CMSIS/Include/cmsis_gcc.h ****  */
1001:Drivers/CMSIS/Include/cmsis_gcc.h **** __STATIC_FORCEINLINE void __set_CONTROL(uint32_t control)
1002:Drivers/CMSIS/Include/cmsis_gcc.h **** {
1003:Drivers/CMSIS/Include/cmsis_gcc.h ****   __ASM volatile ("MSR control, %0" : : "r" (control) : "memory");
1004:Drivers/CMSIS/Include/cmsis_gcc.h ****   __ISB();
1005:Drivers/CMSIS/Include/cmsis_gcc.h **** }
1006:Drivers/CMSIS/Include/cmsis_gcc.h **** 
1007:Drivers/CMSIS/Include/cmsis_gcc.h **** 
1008:Drivers/CMSIS/Include/cmsis_gcc.h **** #if (defined (__ARM_FEATURE_CMSE ) && (__ARM_FEATURE_CMSE == 3))
1009:Drivers/CMSIS/Include/cmsis_gcc.h **** /**
1010:Drivers/CMSIS/Include/cmsis_gcc.h ****   \brief   Set Control Register (non-secure)
1011:Drivers/CMSIS/Include/cmsis_gcc.h ****   \details Writes the given value to the non-secure Control Register when in secure state.
1012:Drivers/CMSIS/Include/cmsis_gcc.h ****   \param [in]    control  Control Register value to set
1013:Drivers/CMSIS/Include/cmsis_gcc.h ****  */
1014:Drivers/CMSIS/Include/cmsis_gcc.h **** __STATIC_FORCEINLINE void __TZ_set_CONTROL_NS(uint32_t control)
1015:Drivers/CMSIS/Include/cmsis_gcc.h **** {
1016:Drivers/CMSIS/Include/cmsis_gcc.h ****   __ASM volatile ("MSR control_ns, %0" : : "r" (control) : "memory");
1017:Drivers/CMSIS/Include/cmsis_gcc.h ****   __ISB();
1018:Drivers/CMSIS/Include/cmsis_gcc.h **** }
ARM GAS  /tmp/ccoREEzA.s 			page 40


1019:Drivers/CMSIS/Include/cmsis_gcc.h **** #endif
1020:Drivers/CMSIS/Include/cmsis_gcc.h **** 
1021:Drivers/CMSIS/Include/cmsis_gcc.h **** 
1022:Drivers/CMSIS/Include/cmsis_gcc.h **** /**
1023:Drivers/CMSIS/Include/cmsis_gcc.h ****   \brief   Get IPSR Register
1024:Drivers/CMSIS/Include/cmsis_gcc.h ****   \details Returns the content of the IPSR Register.
1025:Drivers/CMSIS/Include/cmsis_gcc.h ****   \return               IPSR Register value
1026:Drivers/CMSIS/Include/cmsis_gcc.h ****  */
1027:Drivers/CMSIS/Include/cmsis_gcc.h **** __STATIC_FORCEINLINE uint32_t __get_IPSR(void)
1028:Drivers/CMSIS/Include/cmsis_gcc.h **** {
1029:Drivers/CMSIS/Include/cmsis_gcc.h ****   uint32_t result;
1030:Drivers/CMSIS/Include/cmsis_gcc.h **** 
1031:Drivers/CMSIS/Include/cmsis_gcc.h ****   __ASM volatile ("MRS %0, ipsr" : "=r" (result) );
1032:Drivers/CMSIS/Include/cmsis_gcc.h ****   return(result);
1033:Drivers/CMSIS/Include/cmsis_gcc.h **** }
1034:Drivers/CMSIS/Include/cmsis_gcc.h **** 
1035:Drivers/CMSIS/Include/cmsis_gcc.h **** 
1036:Drivers/CMSIS/Include/cmsis_gcc.h **** /**
1037:Drivers/CMSIS/Include/cmsis_gcc.h ****   \brief   Get APSR Register
1038:Drivers/CMSIS/Include/cmsis_gcc.h ****   \details Returns the content of the APSR Register.
1039:Drivers/CMSIS/Include/cmsis_gcc.h ****   \return               APSR Register value
1040:Drivers/CMSIS/Include/cmsis_gcc.h ****  */
1041:Drivers/CMSIS/Include/cmsis_gcc.h **** __STATIC_FORCEINLINE uint32_t __get_APSR(void)
1042:Drivers/CMSIS/Include/cmsis_gcc.h **** {
1043:Drivers/CMSIS/Include/cmsis_gcc.h ****   uint32_t result;
1044:Drivers/CMSIS/Include/cmsis_gcc.h **** 
1045:Drivers/CMSIS/Include/cmsis_gcc.h ****   __ASM volatile ("MRS %0, apsr" : "=r" (result) );
1046:Drivers/CMSIS/Include/cmsis_gcc.h ****   return(result);
1047:Drivers/CMSIS/Include/cmsis_gcc.h **** }
1048:Drivers/CMSIS/Include/cmsis_gcc.h **** 
1049:Drivers/CMSIS/Include/cmsis_gcc.h **** 
1050:Drivers/CMSIS/Include/cmsis_gcc.h **** /**
1051:Drivers/CMSIS/Include/cmsis_gcc.h ****   \brief   Get xPSR Register
1052:Drivers/CMSIS/Include/cmsis_gcc.h ****   \details Returns the content of the xPSR Register.
1053:Drivers/CMSIS/Include/cmsis_gcc.h ****   \return               xPSR Register value
1054:Drivers/CMSIS/Include/cmsis_gcc.h ****  */
1055:Drivers/CMSIS/Include/cmsis_gcc.h **** __STATIC_FORCEINLINE uint32_t __get_xPSR(void)
1056:Drivers/CMSIS/Include/cmsis_gcc.h **** {
1057:Drivers/CMSIS/Include/cmsis_gcc.h ****   uint32_t result;
1058:Drivers/CMSIS/Include/cmsis_gcc.h **** 
1059:Drivers/CMSIS/Include/cmsis_gcc.h ****   __ASM volatile ("MRS %0, xpsr" : "=r" (result) );
1060:Drivers/CMSIS/Include/cmsis_gcc.h ****   return(result);
1061:Drivers/CMSIS/Include/cmsis_gcc.h **** }
1062:Drivers/CMSIS/Include/cmsis_gcc.h **** 
1063:Drivers/CMSIS/Include/cmsis_gcc.h **** 
1064:Drivers/CMSIS/Include/cmsis_gcc.h **** /**
1065:Drivers/CMSIS/Include/cmsis_gcc.h ****   \brief   Get Process Stack Pointer
1066:Drivers/CMSIS/Include/cmsis_gcc.h ****   \details Returns the current value of the Process Stack Pointer (PSP).
1067:Drivers/CMSIS/Include/cmsis_gcc.h ****   \return               PSP Register value
1068:Drivers/CMSIS/Include/cmsis_gcc.h ****  */
1069:Drivers/CMSIS/Include/cmsis_gcc.h **** __STATIC_FORCEINLINE uint32_t __get_PSP(void)
1070:Drivers/CMSIS/Include/cmsis_gcc.h **** {
1071:Drivers/CMSIS/Include/cmsis_gcc.h ****   uint32_t result;
1072:Drivers/CMSIS/Include/cmsis_gcc.h **** 
1073:Drivers/CMSIS/Include/cmsis_gcc.h ****   __ASM volatile ("MRS %0, psp"  : "=r" (result) );
1074:Drivers/CMSIS/Include/cmsis_gcc.h ****   return(result);
1075:Drivers/CMSIS/Include/cmsis_gcc.h **** }
ARM GAS  /tmp/ccoREEzA.s 			page 41


1076:Drivers/CMSIS/Include/cmsis_gcc.h **** 
1077:Drivers/CMSIS/Include/cmsis_gcc.h **** 
1078:Drivers/CMSIS/Include/cmsis_gcc.h **** #if (defined (__ARM_FEATURE_CMSE ) && (__ARM_FEATURE_CMSE == 3))
1079:Drivers/CMSIS/Include/cmsis_gcc.h **** /**
1080:Drivers/CMSIS/Include/cmsis_gcc.h ****   \brief   Get Process Stack Pointer (non-secure)
1081:Drivers/CMSIS/Include/cmsis_gcc.h ****   \details Returns the current value of the non-secure Process Stack Pointer (PSP) when in secure s
1082:Drivers/CMSIS/Include/cmsis_gcc.h ****   \return               PSP Register value
1083:Drivers/CMSIS/Include/cmsis_gcc.h ****  */
1084:Drivers/CMSIS/Include/cmsis_gcc.h **** __STATIC_FORCEINLINE uint32_t __TZ_get_PSP_NS(void)
1085:Drivers/CMSIS/Include/cmsis_gcc.h **** {
1086:Drivers/CMSIS/Include/cmsis_gcc.h ****   uint32_t result;
1087:Drivers/CMSIS/Include/cmsis_gcc.h **** 
1088:Drivers/CMSIS/Include/cmsis_gcc.h ****   __ASM volatile ("MRS %0, psp_ns"  : "=r" (result) );
1089:Drivers/CMSIS/Include/cmsis_gcc.h ****   return(result);
1090:Drivers/CMSIS/Include/cmsis_gcc.h **** }
1091:Drivers/CMSIS/Include/cmsis_gcc.h **** #endif
1092:Drivers/CMSIS/Include/cmsis_gcc.h **** 
1093:Drivers/CMSIS/Include/cmsis_gcc.h **** 
1094:Drivers/CMSIS/Include/cmsis_gcc.h **** /**
1095:Drivers/CMSIS/Include/cmsis_gcc.h ****   \brief   Set Process Stack Pointer
1096:Drivers/CMSIS/Include/cmsis_gcc.h ****   \details Assigns the given value to the Process Stack Pointer (PSP).
1097:Drivers/CMSIS/Include/cmsis_gcc.h ****   \param [in]    topOfProcStack  Process Stack Pointer value to set
1098:Drivers/CMSIS/Include/cmsis_gcc.h ****  */
1099:Drivers/CMSIS/Include/cmsis_gcc.h **** __STATIC_FORCEINLINE void __set_PSP(uint32_t topOfProcStack)
1100:Drivers/CMSIS/Include/cmsis_gcc.h **** {
1101:Drivers/CMSIS/Include/cmsis_gcc.h ****   __ASM volatile ("MSR psp, %0" : : "r" (topOfProcStack) : );
1102:Drivers/CMSIS/Include/cmsis_gcc.h **** }
1103:Drivers/CMSIS/Include/cmsis_gcc.h **** 
1104:Drivers/CMSIS/Include/cmsis_gcc.h **** 
1105:Drivers/CMSIS/Include/cmsis_gcc.h **** #if (defined (__ARM_FEATURE_CMSE ) && (__ARM_FEATURE_CMSE == 3))
1106:Drivers/CMSIS/Include/cmsis_gcc.h **** /**
1107:Drivers/CMSIS/Include/cmsis_gcc.h ****   \brief   Set Process Stack Pointer (non-secure)
1108:Drivers/CMSIS/Include/cmsis_gcc.h ****   \details Assigns the given value to the non-secure Process Stack Pointer (PSP) when in secure sta
1109:Drivers/CMSIS/Include/cmsis_gcc.h ****   \param [in]    topOfProcStack  Process Stack Pointer value to set
1110:Drivers/CMSIS/Include/cmsis_gcc.h ****  */
1111:Drivers/CMSIS/Include/cmsis_gcc.h **** __STATIC_FORCEINLINE void __TZ_set_PSP_NS(uint32_t topOfProcStack)
1112:Drivers/CMSIS/Include/cmsis_gcc.h **** {
1113:Drivers/CMSIS/Include/cmsis_gcc.h ****   __ASM volatile ("MSR psp_ns, %0" : : "r" (topOfProcStack) : );
1114:Drivers/CMSIS/Include/cmsis_gcc.h **** }
1115:Drivers/CMSIS/Include/cmsis_gcc.h **** #endif
1116:Drivers/CMSIS/Include/cmsis_gcc.h **** 
1117:Drivers/CMSIS/Include/cmsis_gcc.h **** 
1118:Drivers/CMSIS/Include/cmsis_gcc.h **** /**
1119:Drivers/CMSIS/Include/cmsis_gcc.h ****   \brief   Get Main Stack Pointer
1120:Drivers/CMSIS/Include/cmsis_gcc.h ****   \details Returns the current value of the Main Stack Pointer (MSP).
1121:Drivers/CMSIS/Include/cmsis_gcc.h ****   \return               MSP Register value
1122:Drivers/CMSIS/Include/cmsis_gcc.h ****  */
1123:Drivers/CMSIS/Include/cmsis_gcc.h **** __STATIC_FORCEINLINE uint32_t __get_MSP(void)
1124:Drivers/CMSIS/Include/cmsis_gcc.h **** {
1125:Drivers/CMSIS/Include/cmsis_gcc.h ****   uint32_t result;
1126:Drivers/CMSIS/Include/cmsis_gcc.h **** 
1127:Drivers/CMSIS/Include/cmsis_gcc.h ****   __ASM volatile ("MRS %0, msp" : "=r" (result) );
1128:Drivers/CMSIS/Include/cmsis_gcc.h ****   return(result);
1129:Drivers/CMSIS/Include/cmsis_gcc.h **** }
1130:Drivers/CMSIS/Include/cmsis_gcc.h **** 
1131:Drivers/CMSIS/Include/cmsis_gcc.h **** 
1132:Drivers/CMSIS/Include/cmsis_gcc.h **** #if (defined (__ARM_FEATURE_CMSE ) && (__ARM_FEATURE_CMSE == 3))
ARM GAS  /tmp/ccoREEzA.s 			page 42


1133:Drivers/CMSIS/Include/cmsis_gcc.h **** /**
1134:Drivers/CMSIS/Include/cmsis_gcc.h ****   \brief   Get Main Stack Pointer (non-secure)
1135:Drivers/CMSIS/Include/cmsis_gcc.h ****   \details Returns the current value of the non-secure Main Stack Pointer (MSP) when in secure stat
1136:Drivers/CMSIS/Include/cmsis_gcc.h ****   \return               MSP Register value
1137:Drivers/CMSIS/Include/cmsis_gcc.h ****  */
1138:Drivers/CMSIS/Include/cmsis_gcc.h **** __STATIC_FORCEINLINE uint32_t __TZ_get_MSP_NS(void)
1139:Drivers/CMSIS/Include/cmsis_gcc.h **** {
1140:Drivers/CMSIS/Include/cmsis_gcc.h ****   uint32_t result;
1141:Drivers/CMSIS/Include/cmsis_gcc.h **** 
1142:Drivers/CMSIS/Include/cmsis_gcc.h ****   __ASM volatile ("MRS %0, msp_ns" : "=r" (result) );
1143:Drivers/CMSIS/Include/cmsis_gcc.h ****   return(result);
1144:Drivers/CMSIS/Include/cmsis_gcc.h **** }
1145:Drivers/CMSIS/Include/cmsis_gcc.h **** #endif
1146:Drivers/CMSIS/Include/cmsis_gcc.h **** 
1147:Drivers/CMSIS/Include/cmsis_gcc.h **** 
1148:Drivers/CMSIS/Include/cmsis_gcc.h **** /**
1149:Drivers/CMSIS/Include/cmsis_gcc.h ****   \brief   Set Main Stack Pointer
1150:Drivers/CMSIS/Include/cmsis_gcc.h ****   \details Assigns the given value to the Main Stack Pointer (MSP).
1151:Drivers/CMSIS/Include/cmsis_gcc.h ****   \param [in]    topOfMainStack  Main Stack Pointer value to set
1152:Drivers/CMSIS/Include/cmsis_gcc.h ****  */
1153:Drivers/CMSIS/Include/cmsis_gcc.h **** __STATIC_FORCEINLINE void __set_MSP(uint32_t topOfMainStack)
1154:Drivers/CMSIS/Include/cmsis_gcc.h **** {
1155:Drivers/CMSIS/Include/cmsis_gcc.h ****   __ASM volatile ("MSR msp, %0" : : "r" (topOfMainStack) : );
1156:Drivers/CMSIS/Include/cmsis_gcc.h **** }
1157:Drivers/CMSIS/Include/cmsis_gcc.h **** 
1158:Drivers/CMSIS/Include/cmsis_gcc.h **** 
1159:Drivers/CMSIS/Include/cmsis_gcc.h **** #if (defined (__ARM_FEATURE_CMSE ) && (__ARM_FEATURE_CMSE == 3))
1160:Drivers/CMSIS/Include/cmsis_gcc.h **** /**
1161:Drivers/CMSIS/Include/cmsis_gcc.h ****   \brief   Set Main Stack Pointer (non-secure)
1162:Drivers/CMSIS/Include/cmsis_gcc.h ****   \details Assigns the given value to the non-secure Main Stack Pointer (MSP) when in secure state.
1163:Drivers/CMSIS/Include/cmsis_gcc.h ****   \param [in]    topOfMainStack  Main Stack Pointer value to set
1164:Drivers/CMSIS/Include/cmsis_gcc.h ****  */
1165:Drivers/CMSIS/Include/cmsis_gcc.h **** __STATIC_FORCEINLINE void __TZ_set_MSP_NS(uint32_t topOfMainStack)
1166:Drivers/CMSIS/Include/cmsis_gcc.h **** {
1167:Drivers/CMSIS/Include/cmsis_gcc.h ****   __ASM volatile ("MSR msp_ns, %0" : : "r" (topOfMainStack) : );
1168:Drivers/CMSIS/Include/cmsis_gcc.h **** }
1169:Drivers/CMSIS/Include/cmsis_gcc.h **** #endif
1170:Drivers/CMSIS/Include/cmsis_gcc.h **** 
1171:Drivers/CMSIS/Include/cmsis_gcc.h **** 
1172:Drivers/CMSIS/Include/cmsis_gcc.h **** #if (defined (__ARM_FEATURE_CMSE ) && (__ARM_FEATURE_CMSE == 3))
1173:Drivers/CMSIS/Include/cmsis_gcc.h **** /**
1174:Drivers/CMSIS/Include/cmsis_gcc.h ****   \brief   Get Stack Pointer (non-secure)
1175:Drivers/CMSIS/Include/cmsis_gcc.h ****   \details Returns the current value of the non-secure Stack Pointer (SP) when in secure state.
1176:Drivers/CMSIS/Include/cmsis_gcc.h ****   \return               SP Register value
1177:Drivers/CMSIS/Include/cmsis_gcc.h ****  */
1178:Drivers/CMSIS/Include/cmsis_gcc.h **** __STATIC_FORCEINLINE uint32_t __TZ_get_SP_NS(void)
1179:Drivers/CMSIS/Include/cmsis_gcc.h **** {
1180:Drivers/CMSIS/Include/cmsis_gcc.h ****   uint32_t result;
1181:Drivers/CMSIS/Include/cmsis_gcc.h **** 
1182:Drivers/CMSIS/Include/cmsis_gcc.h ****   __ASM volatile ("MRS %0, sp_ns" : "=r" (result) );
1183:Drivers/CMSIS/Include/cmsis_gcc.h ****   return(result);
1184:Drivers/CMSIS/Include/cmsis_gcc.h **** }
1185:Drivers/CMSIS/Include/cmsis_gcc.h **** 
1186:Drivers/CMSIS/Include/cmsis_gcc.h **** 
1187:Drivers/CMSIS/Include/cmsis_gcc.h **** /**
1188:Drivers/CMSIS/Include/cmsis_gcc.h ****   \brief   Set Stack Pointer (non-secure)
1189:Drivers/CMSIS/Include/cmsis_gcc.h ****   \details Assigns the given value to the non-secure Stack Pointer (SP) when in secure state.
ARM GAS  /tmp/ccoREEzA.s 			page 43


1190:Drivers/CMSIS/Include/cmsis_gcc.h ****   \param [in]    topOfStack  Stack Pointer value to set
1191:Drivers/CMSIS/Include/cmsis_gcc.h ****  */
1192:Drivers/CMSIS/Include/cmsis_gcc.h **** __STATIC_FORCEINLINE void __TZ_set_SP_NS(uint32_t topOfStack)
1193:Drivers/CMSIS/Include/cmsis_gcc.h **** {
1194:Drivers/CMSIS/Include/cmsis_gcc.h ****   __ASM volatile ("MSR sp_ns, %0" : : "r" (topOfStack) : );
1195:Drivers/CMSIS/Include/cmsis_gcc.h **** }
1196:Drivers/CMSIS/Include/cmsis_gcc.h **** #endif
1197:Drivers/CMSIS/Include/cmsis_gcc.h **** 
1198:Drivers/CMSIS/Include/cmsis_gcc.h **** 
1199:Drivers/CMSIS/Include/cmsis_gcc.h **** /**
1200:Drivers/CMSIS/Include/cmsis_gcc.h ****   \brief   Get Priority Mask
1201:Drivers/CMSIS/Include/cmsis_gcc.h ****   \details Returns the current state of the priority mask bit from the Priority Mask Register.
1202:Drivers/CMSIS/Include/cmsis_gcc.h ****   \return               Priority Mask value
1203:Drivers/CMSIS/Include/cmsis_gcc.h ****  */
1204:Drivers/CMSIS/Include/cmsis_gcc.h **** __STATIC_FORCEINLINE uint32_t __get_PRIMASK(void)
 694              		.loc 2 1204 31 view .LVU170
 695              	.LBB25:
1205:Drivers/CMSIS/Include/cmsis_gcc.h **** {
1206:Drivers/CMSIS/Include/cmsis_gcc.h ****   uint32_t result;
 696              		.loc 2 1206 3 view .LVU171
1207:Drivers/CMSIS/Include/cmsis_gcc.h **** 
1208:Drivers/CMSIS/Include/cmsis_gcc.h ****   __ASM volatile ("MRS %0, primask" : "=r" (result) );
 697              		.loc 2 1208 3 view .LVU172
 698              		.syntax unified
 699              	@ 1208 "Drivers/CMSIS/Include/cmsis_gcc.h" 1
 700 0006 EFF31084 		MRS r4, primask
 701              	@ 0 "" 2
 702              	.LVL53:
1209:Drivers/CMSIS/Include/cmsis_gcc.h ****   return(result);
 703              		.loc 2 1209 3 view .LVU173
 704              		.loc 2 1209 3 is_stmt 0 view .LVU174
 705              		.thumb
 706              		.syntax unified
 707              	.LBE25:
 708              	.LBE24:
 225:Utilities/timer/stm32_timer.c ****     UTIL_TIMER_Object_t* prev = TimerListHead;
 709              		.loc 1 225 5 is_stmt 1 discriminator 1 view .LVU175
 710              	.LBB26:
 711              	.LBI26:
 960:Drivers/CMSIS/Include/cmsis_gcc.h **** {
 712              		.loc 2 960 27 view .LVU176
 713              	.LBB27:
 962:Drivers/CMSIS/Include/cmsis_gcc.h **** }
 714              		.loc 2 962 3 view .LVU177
 715              		.syntax unified
 716              	@ 962 "Drivers/CMSIS/Include/cmsis_gcc.h" 1
 717 000a 72B6     		cpsid i
 718              	@ 0 "" 2
 719              		.thumb
 720              		.syntax unified
 721              	.LBE27:
 722              	.LBE26:
 226:Utilities/timer/stm32_timer.c ****     UTIL_TIMER_Object_t* cur = TimerListHead;
 723              		.loc 1 226 5 view .LVU178
 226:Utilities/timer/stm32_timer.c ****     UTIL_TIMER_Object_t* cur = TimerListHead;
 724              		.loc 1 226 26 is_stmt 0 view .LVU179
 725 000c 154B     		ldr	r3, .L78
ARM GAS  /tmp/ccoREEzA.s 			page 44


 726 000e 1968     		ldr	r1, [r3]
 727              	.LVL54:
 227:Utilities/timer/stm32_timer.c ****     TimerObject->IsReloadStopped = 1U;
 728              		.loc 1 227 5 is_stmt 1 view .LVU180
 228:Utilities/timer/stm32_timer.c ****     
 729              		.loc 1 228 5 view .LVU181
 228:Utilities/timer/stm32_timer.c ****     
 730              		.loc 1 228 34 is_stmt 0 view .LVU182
 731 0010 0123     		movs	r3, #1
 732 0012 8372     		strb	r3, [r0, #10]
 231:Utilities/timer/stm32_timer.c ****     {
 733              		.loc 1 231 5 is_stmt 1 view .LVU183
 231:Utilities/timer/stm32_timer.c ****     {
 734              		.loc 1 231 7 is_stmt 0 view .LVU184
 735 0014 E1B1     		cbz	r1, .L64
 233:Utilities/timer/stm32_timer.c ****       
 736              		.loc 1 233 7 is_stmt 1 view .LVU185
 233:Utilities/timer/stm32_timer.c ****       
 737              		.loc 1 233 30 is_stmt 0 view .LVU186
 738 0016 0023     		movs	r3, #0
 739 0018 4372     		strb	r3, [r0, #9]
 235:Utilities/timer/stm32_timer.c ****       {
 740              		.loc 1 235 7 is_stmt 1 view .LVU187
 235:Utilities/timer/stm32_timer.c ****       {
 741              		.loc 1 235 9 is_stmt 0 view .LVU188
 742 001a 8842     		cmp	r0, r1
 743 001c 06D0     		beq	.L76
 227:Utilities/timer/stm32_timer.c ****     TimerObject->IsReloadStopped = 1U;
 744              		.loc 1 227 26 view .LVU189
 745 001e 0B46     		mov	r3, r1
 746              	.LVL55:
 747              	.L65:
 251:Utilities/timer/stm32_timer.c ****         {
 748              		.loc 1 251 20 is_stmt 1 view .LVU190
 749 0020 B3B1     		cbz	r3, .L64
 253:Utilities/timer/stm32_timer.c ****           {
 750              		.loc 1 253 11 view .LVU191
 253:Utilities/timer/stm32_timer.c ****           {
 751              		.loc 1 253 13 is_stmt 0 view .LVU192
 752 0022 9342     		cmp	r3, r2
 753 0024 11D0     		beq	.L77
 269:Utilities/timer/stm32_timer.c ****             cur = cur->Next;
 754              		.loc 1 269 13 is_stmt 1 view .LVU193
 755              	.LVL56:
 270:Utilities/timer/stm32_timer.c ****           }
 756              		.loc 1 270 13 view .LVU194
 269:Utilities/timer/stm32_timer.c ****             cur = cur->Next;
 757              		.loc 1 269 18 is_stmt 0 view .LVU195
 758 0026 1946     		mov	r1, r3
 270:Utilities/timer/stm32_timer.c ****           }
 759              		.loc 1 270 17 view .LVU196
 760 0028 5B69     		ldr	r3, [r3, #20]
 761              	.LVL57:
 270:Utilities/timer/stm32_timer.c ****           }
 762              		.loc 1 270 17 view .LVU197
 763 002a F9E7     		b	.L65
 764              	.LVL58:
ARM GAS  /tmp/ccoREEzA.s 			page 45


 765              	.L76:
 237:Utilities/timer/stm32_timer.c ****           if( TimerListHead->Next != NULL )
 766              		.loc 1 237 11 is_stmt 1 view .LVU198
 237:Utilities/timer/stm32_timer.c ****           if( TimerListHead->Next != NULL )
 767              		.loc 1 237 36 is_stmt 0 view .LVU199
 768 002c 0B72     		strb	r3, [r1, #8]
 238:Utilities/timer/stm32_timer.c ****           {
 769              		.loc 1 238 11 is_stmt 1 view .LVU200
 238:Utilities/timer/stm32_timer.c ****           {
 770              		.loc 1 238 28 is_stmt 0 view .LVU201
 771 002e 4869     		ldr	r0, [r1, #20]
 772              	.LVL59:
 238:Utilities/timer/stm32_timer.c ****           {
 773              		.loc 1 238 13 view .LVU202
 774 0030 20B1     		cbz	r0, .L66
 240:Utilities/timer/stm32_timer.c ****             TimerSetTimeout( TimerListHead );
 775              		.loc 1 240 13 is_stmt 1 view .LVU203
 240:Utilities/timer/stm32_timer.c ****             TimerSetTimeout( TimerListHead );
 776              		.loc 1 240 27 is_stmt 0 view .LVU204
 777 0032 0C4B     		ldr	r3, .L78
 778 0034 1860     		str	r0, [r3]
 241:Utilities/timer/stm32_timer.c ****           }
 779              		.loc 1 241 13 is_stmt 1 view .LVU205
 780 0036 FFF7FEFF 		bl	TimerSetTimeout
 781              	.LVL60:
 241:Utilities/timer/stm32_timer.c ****           }
 782              		.loc 1 241 13 is_stmt 0 view .LVU206
 783 003a 09E0     		b	.L64
 784              	.LVL61:
 785              	.L66:
 245:Utilities/timer/stm32_timer.c ****             TimerListHead = NULL;
 786              		.loc 1 245 13 is_stmt 1 view .LVU207
 245:Utilities/timer/stm32_timer.c ****             TimerListHead = NULL;
 787              		.loc 1 245 29 is_stmt 0 view .LVU208
 788 003c 0A4B     		ldr	r3, .L78+4
 789 003e DB68     		ldr	r3, [r3, #12]
 245:Utilities/timer/stm32_timer.c ****             TimerListHead = NULL;
 790              		.loc 1 245 13 view .LVU209
 791 0040 9847     		blx	r3
 792              	.LVL62:
 246:Utilities/timer/stm32_timer.c ****           }
 793              		.loc 1 246 13 is_stmt 1 view .LVU210
 246:Utilities/timer/stm32_timer.c ****           }
 794              		.loc 1 246 27 is_stmt 0 view .LVU211
 795 0042 084B     		ldr	r3, .L78
 796 0044 0022     		movs	r2, #0
 797 0046 1A60     		str	r2, [r3]
 798 0048 02E0     		b	.L64
 799              	.LVL63:
 800              	.L77:
 255:Utilities/timer/stm32_timer.c ****             {
 801              		.loc 1 255 13 is_stmt 1 view .LVU212
 255:Utilities/timer/stm32_timer.c ****             {
 802              		.loc 1 255 20 is_stmt 0 view .LVU213
 803 004a 5B69     		ldr	r3, [r3, #20]
 804              	.LVL64:
 255:Utilities/timer/stm32_timer.c ****             {
ARM GAS  /tmp/ccoREEzA.s 			page 46


 805              		.loc 1 255 15 view .LVU214
 806 004c 23B1     		cbz	r3, .L68
 257:Utilities/timer/stm32_timer.c ****               prev->Next = cur;
 807              		.loc 1 257 15 is_stmt 1 view .LVU215
 808              	.LVL65:
 258:Utilities/timer/stm32_timer.c ****             }
 809              		.loc 1 258 15 view .LVU216
 258:Utilities/timer/stm32_timer.c ****             }
 810              		.loc 1 258 26 is_stmt 0 view .LVU217
 811 004e 4B61     		str	r3, [r1, #20]
 812              	.LVL66:
 813              	.L64:
 276:Utilities/timer/stm32_timer.c ****   }
 814              		.loc 1 276 5 is_stmt 1 view .LVU218
 815              	.LBB28:
 816              	.LBI28:
1210:Drivers/CMSIS/Include/cmsis_gcc.h **** }
1211:Drivers/CMSIS/Include/cmsis_gcc.h **** 
1212:Drivers/CMSIS/Include/cmsis_gcc.h **** 
1213:Drivers/CMSIS/Include/cmsis_gcc.h **** #if (defined (__ARM_FEATURE_CMSE ) && (__ARM_FEATURE_CMSE == 3))
1214:Drivers/CMSIS/Include/cmsis_gcc.h **** /**
1215:Drivers/CMSIS/Include/cmsis_gcc.h ****   \brief   Get Priority Mask (non-secure)
1216:Drivers/CMSIS/Include/cmsis_gcc.h ****   \details Returns the current state of the non-secure priority mask bit from the Priority Mask Reg
1217:Drivers/CMSIS/Include/cmsis_gcc.h ****   \return               Priority Mask value
1218:Drivers/CMSIS/Include/cmsis_gcc.h ****  */
1219:Drivers/CMSIS/Include/cmsis_gcc.h **** __STATIC_FORCEINLINE uint32_t __TZ_get_PRIMASK_NS(void)
1220:Drivers/CMSIS/Include/cmsis_gcc.h **** {
1221:Drivers/CMSIS/Include/cmsis_gcc.h ****   uint32_t result;
1222:Drivers/CMSIS/Include/cmsis_gcc.h **** 
1223:Drivers/CMSIS/Include/cmsis_gcc.h ****   __ASM volatile ("MRS %0, primask_ns" : "=r" (result) );
1224:Drivers/CMSIS/Include/cmsis_gcc.h ****   return(result);
1225:Drivers/CMSIS/Include/cmsis_gcc.h **** }
1226:Drivers/CMSIS/Include/cmsis_gcc.h **** #endif
1227:Drivers/CMSIS/Include/cmsis_gcc.h **** 
1228:Drivers/CMSIS/Include/cmsis_gcc.h **** 
1229:Drivers/CMSIS/Include/cmsis_gcc.h **** /**
1230:Drivers/CMSIS/Include/cmsis_gcc.h ****   \brief   Set Priority Mask
1231:Drivers/CMSIS/Include/cmsis_gcc.h ****   \details Assigns the given value to the Priority Mask Register.
1232:Drivers/CMSIS/Include/cmsis_gcc.h ****   \param [in]    priMask  Priority Mask
1233:Drivers/CMSIS/Include/cmsis_gcc.h ****  */
1234:Drivers/CMSIS/Include/cmsis_gcc.h **** __STATIC_FORCEINLINE void __set_PRIMASK(uint32_t priMask)
 817              		.loc 2 1234 27 view .LVU219
 818              	.LBB29:
1235:Drivers/CMSIS/Include/cmsis_gcc.h **** {
1236:Drivers/CMSIS/Include/cmsis_gcc.h ****   __ASM volatile ("MSR primask, %0" : : "r" (priMask) : "memory");
 819              		.loc 2 1236 3 view .LVU220
 820              		.syntax unified
 821              	@ 1236 "Drivers/CMSIS/Include/cmsis_gcc.h" 1
 822 0050 84F31088 		MSR primask, r4
 823              	@ 0 "" 2
 824              	.LVL67:
1237:Drivers/CMSIS/Include/cmsis_gcc.h **** }
 825              		.loc 2 1237 1 is_stmt 0 view .LVU221
 826              		.thumb
 827              		.syntax unified
 828 0054 0020     		movs	r0, #0
 829              	.LVL68:
ARM GAS  /tmp/ccoREEzA.s 			page 47


 830              		.loc 2 1237 1 view .LVU222
 831              	.LBE29:
 832              	.LBE28:
 833              	.LBE23:
 282:Utilities/timer/stm32_timer.c **** }
 834              		.loc 1 282 3 is_stmt 1 view .LVU223
 283:Utilities/timer/stm32_timer.c **** 
 835              		.loc 1 283 1 is_stmt 0 view .LVU224
 836 0056 10BD     		pop	{r4, pc}
 837              	.LVL69:
 838              	.L68:
 839              	.LBB30:
 262:Utilities/timer/stm32_timer.c ****               prev->Next = cur;
 840              		.loc 1 262 15 is_stmt 1 view .LVU225
 263:Utilities/timer/stm32_timer.c ****             }
 841              		.loc 1 263 15 view .LVU226
 263:Utilities/timer/stm32_timer.c ****             }
 842              		.loc 1 263 26 is_stmt 0 view .LVU227
 843 0058 0023     		movs	r3, #0
 844 005a 4B61     		str	r3, [r1, #20]
 845 005c F8E7     		b	.L64
 846              	.LVL70:
 847              	.L70:
 848              		.cfi_def_cfa_offset 0
 849              		.cfi_restore 4
 850              		.cfi_restore 14
 263:Utilities/timer/stm32_timer.c ****             }
 851              		.loc 1 263 26 view .LVU228
 852              	.LBE30:
 280:Utilities/timer/stm32_timer.c ****   }
 853              		.loc 1 280 9 view .LVU229
 854 005e 0120     		movs	r0, #1
 855              	.LVL71:
 282:Utilities/timer/stm32_timer.c **** }
 856              		.loc 1 282 3 is_stmt 1 view .LVU230
 283:Utilities/timer/stm32_timer.c **** 
 857              		.loc 1 283 1 is_stmt 0 view .LVU231
 858 0060 7047     		bx	lr
 859              	.L79:
 860 0062 00BF     		.align	2
 861              	.L78:
 862 0064 00000000 		.word	TimerListHead
 863 0068 00000000 		.word	UTIL_TimerDriver
 864              		.cfi_endproc
 865              	.LFE111:
 867              		.section	.text.TimerInsertTimer,"ax",%progbits
 868              		.align	1
 869              		.global	TimerInsertTimer
 870              		.syntax unified
 871              		.thumb
 872              		.thumb_func
 874              	TimerInsertTimer:
 875              	.LVL72:
 876              	.LFB123:
 485:Utilities/timer/stm32_timer.c **** 
 486:Utilities/timer/stm32_timer.c **** /**
 487:Utilities/timer/stm32_timer.c ****  * @brief Adds a timer to the list.
ARM GAS  /tmp/ccoREEzA.s 			page 48


 488:Utilities/timer/stm32_timer.c ****  *
 489:Utilities/timer/stm32_timer.c ****  * @remark The list is automatically sorted. The list head always contains the
 490:Utilities/timer/stm32_timer.c ****  *     next timer to expire.
 491:Utilities/timer/stm32_timer.c ****  *
 492:Utilities/timer/stm32_timer.c ****  * @param TimerObject Structure containing the timer object parameters
 493:Utilities/timer/stm32_timer.c ****  */
 494:Utilities/timer/stm32_timer.c **** void TimerInsertTimer( UTIL_TIMER_Object_t *TimerObject)
 495:Utilities/timer/stm32_timer.c **** {
 877              		.loc 1 495 1 is_stmt 1 view -0
 878              		.cfi_startproc
 879              		@ args = 0, pretend = 0, frame = 0
 880              		@ frame_needed = 0, uses_anonymous_args = 0
 881              		@ link register save eliminated.
 496:Utilities/timer/stm32_timer.c ****   UTIL_TIMER_Object_t* cur = TimerListHead;
 882              		.loc 1 496 3 view .LVU233
 883              		.loc 1 496 24 is_stmt 0 view .LVU234
 884 0000 094B     		ldr	r3, .L87
 885 0002 1A68     		ldr	r2, [r3]
 886              	.LVL73:
 497:Utilities/timer/stm32_timer.c ****   UTIL_TIMER_Object_t* next = TimerListHead->Next;
 887              		.loc 1 497 3 is_stmt 1 view .LVU235
 888              		.loc 1 497 24 is_stmt 0 view .LVU236
 889 0004 5369     		ldr	r3, [r2, #20]
 890              	.LVL74:
 498:Utilities/timer/stm32_timer.c **** 
 499:Utilities/timer/stm32_timer.c ****   while (cur->Next != NULL )
 891              		.loc 1 499 3 is_stmt 1 view .LVU237
 892              		.loc 1 499 9 is_stmt 0 view .LVU238
 893 0006 01E0     		b	.L81
 894              	.L86:
 500:Utilities/timer/stm32_timer.c ****   {  
 501:Utilities/timer/stm32_timer.c ****     if( TimerObject->Timestamp  > next->Timestamp )
 502:Utilities/timer/stm32_timer.c ****     {
 503:Utilities/timer/stm32_timer.c ****         cur = next;
 895              		.loc 1 503 9 is_stmt 1 view .LVU239
 896              	.LVL75:
 504:Utilities/timer/stm32_timer.c ****         next = next->Next;
 897              		.loc 1 504 9 view .LVU240
 503:Utilities/timer/stm32_timer.c ****         next = next->Next;
 898              		.loc 1 503 13 is_stmt 0 view .LVU241
 899 0008 1A46     		mov	r2, r3
 900              		.loc 1 504 14 view .LVU242
 901 000a 5B69     		ldr	r3, [r3, #20]
 902              	.LVL76:
 903              	.L81:
 499:Utilities/timer/stm32_timer.c ****   {  
 904              		.loc 1 499 20 is_stmt 1 view .LVU243
 499:Utilities/timer/stm32_timer.c ****   {  
 905              		.loc 1 499 13 is_stmt 0 view .LVU244
 906 000c 5169     		ldr	r1, [r2, #20]
 499:Utilities/timer/stm32_timer.c ****   {  
 907              		.loc 1 499 20 view .LVU245
 908 000e 39B1     		cbz	r1, .L85
 501:Utilities/timer/stm32_timer.c ****     {
 909              		.loc 1 501 5 is_stmt 1 view .LVU246
 501:Utilities/timer/stm32_timer.c ****     {
 910              		.loc 1 501 39 is_stmt 0 view .LVU247
ARM GAS  /tmp/ccoREEzA.s 			page 49


 911 0010 1968     		ldr	r1, [r3]
 501:Utilities/timer/stm32_timer.c ****     {
 912              		.loc 1 501 7 view .LVU248
 913 0012 D0F800C0 		ldr	ip, [r0]
 914 0016 8C45     		cmp	ip, r1
 915 0018 F6D8     		bhi	.L86
 505:Utilities/timer/stm32_timer.c ****     }
 506:Utilities/timer/stm32_timer.c ****     else
 507:Utilities/timer/stm32_timer.c ****     {
 508:Utilities/timer/stm32_timer.c ****         cur->Next = TimerObject;
 916              		.loc 1 508 9 is_stmt 1 view .LVU249
 917              		.loc 1 508 19 is_stmt 0 view .LVU250
 918 001a 5061     		str	r0, [r2, #20]
 509:Utilities/timer/stm32_timer.c ****         TimerObject->Next = next;
 919              		.loc 1 509 9 is_stmt 1 view .LVU251
 920              		.loc 1 509 27 is_stmt 0 view .LVU252
 921 001c 4361     		str	r3, [r0, #20]
 510:Utilities/timer/stm32_timer.c ****         return;
 922              		.loc 1 510 9 is_stmt 1 view .LVU253
 923 001e 7047     		bx	lr
 924              	.L85:
 511:Utilities/timer/stm32_timer.c **** 
 512:Utilities/timer/stm32_timer.c ****     }
 513:Utilities/timer/stm32_timer.c ****   }
 514:Utilities/timer/stm32_timer.c ****   cur->Next = TimerObject;
 925              		.loc 1 514 3 view .LVU254
 926              		.loc 1 514 13 is_stmt 0 view .LVU255
 927 0020 5061     		str	r0, [r2, #20]
 515:Utilities/timer/stm32_timer.c ****   TimerObject->Next = NULL;
 928              		.loc 1 515 3 is_stmt 1 view .LVU256
 929              		.loc 1 515 21 is_stmt 0 view .LVU257
 930 0022 0023     		movs	r3, #0
 931              	.LVL77:
 932              		.loc 1 515 21 view .LVU258
 933 0024 4361     		str	r3, [r0, #20]
 516:Utilities/timer/stm32_timer.c **** }
 934              		.loc 1 516 1 view .LVU259
 935 0026 7047     		bx	lr
 936              	.L88:
 937              		.align	2
 938              	.L87:
 939 0028 00000000 		.word	TimerListHead
 940              		.cfi_endproc
 941              	.LFE123:
 943              		.section	.text.TimerInsertNewHeadTimer,"ax",%progbits
 944              		.align	1
 945              		.global	TimerInsertNewHeadTimer
 946              		.syntax unified
 947              		.thumb
 948              		.thumb_func
 950              	TimerInsertNewHeadTimer:
 951              	.LVL78:
 952              	.LFB124:
 517:Utilities/timer/stm32_timer.c **** 
 518:Utilities/timer/stm32_timer.c **** /**
 519:Utilities/timer/stm32_timer.c ****  * @brief Adds or replace the head timer of the list.
 520:Utilities/timer/stm32_timer.c ****  *
ARM GAS  /tmp/ccoREEzA.s 			page 50


 521:Utilities/timer/stm32_timer.c ****  * @param TimerObject Structure containing the timer object parameters
 522:Utilities/timer/stm32_timer.c ****  *
 523:Utilities/timer/stm32_timer.c ****  * @remark The list is automatically sorted. The list head always contains the
 524:Utilities/timer/stm32_timer.c ****  *         next timer to expire.
 525:Utilities/timer/stm32_timer.c ****  */
 526:Utilities/timer/stm32_timer.c **** void TimerInsertNewHeadTimer( UTIL_TIMER_Object_t *TimerObject )
 527:Utilities/timer/stm32_timer.c **** {
 953              		.loc 1 527 1 is_stmt 1 view -0
 954              		.cfi_startproc
 955              		@ args = 0, pretend = 0, frame = 0
 956              		@ frame_needed = 0, uses_anonymous_args = 0
 957              		.loc 1 527 1 is_stmt 0 view .LVU261
 958 0000 08B5     		push	{r3, lr}
 959              		.cfi_def_cfa_offset 8
 960              		.cfi_offset 3, -8
 961              		.cfi_offset 14, -4
 528:Utilities/timer/stm32_timer.c ****   UTIL_TIMER_Object_t* cur = TimerListHead;
 962              		.loc 1 528 3 is_stmt 1 view .LVU262
 963              		.loc 1 528 24 is_stmt 0 view .LVU263
 964 0002 054B     		ldr	r3, .L92
 965 0004 1B68     		ldr	r3, [r3]
 966              	.LVL79:
 529:Utilities/timer/stm32_timer.c **** 
 530:Utilities/timer/stm32_timer.c ****   if( cur != NULL )
 967              		.loc 1 530 3 is_stmt 1 view .LVU264
 968              		.loc 1 530 5 is_stmt 0 view .LVU265
 969 0006 0BB1     		cbz	r3, .L90
 531:Utilities/timer/stm32_timer.c ****   {
 532:Utilities/timer/stm32_timer.c ****     cur->IsPending = 0;
 970              		.loc 1 532 5 is_stmt 1 view .LVU266
 971              		.loc 1 532 20 is_stmt 0 view .LVU267
 972 0008 0022     		movs	r2, #0
 973 000a 1A72     		strb	r2, [r3, #8]
 974              	.L90:
 533:Utilities/timer/stm32_timer.c ****   }
 534:Utilities/timer/stm32_timer.c **** 
 535:Utilities/timer/stm32_timer.c ****   TimerObject->Next = cur;
 975              		.loc 1 535 3 is_stmt 1 view .LVU268
 976              		.loc 1 535 21 is_stmt 0 view .LVU269
 977 000c 4361     		str	r3, [r0, #20]
 536:Utilities/timer/stm32_timer.c ****   TimerListHead = TimerObject;
 978              		.loc 1 536 3 is_stmt 1 view .LVU270
 979              		.loc 1 536 17 is_stmt 0 view .LVU271
 980 000e 024B     		ldr	r3, .L92
 981              	.LVL80:
 982              		.loc 1 536 17 view .LVU272
 983 0010 1860     		str	r0, [r3]
 984              	.LVL81:
 537:Utilities/timer/stm32_timer.c ****   TimerSetTimeout( TimerListHead );
 985              		.loc 1 537 3 is_stmt 1 view .LVU273
 986 0012 FFF7FEFF 		bl	TimerSetTimeout
 987              	.LVL82:
 538:Utilities/timer/stm32_timer.c **** }
 988              		.loc 1 538 1 is_stmt 0 view .LVU274
 989 0016 08BD     		pop	{r3, pc}
 990              	.L93:
 991              		.align	2
ARM GAS  /tmp/ccoREEzA.s 			page 51


 992              	.L92:
 993 0018 00000000 		.word	TimerListHead
 994              		.cfi_endproc
 995              	.LFE124:
 997              		.section	.text.UTIL_TIMER_Start,"ax",%progbits
 998              		.align	1
 999              		.global	UTIL_TIMER_Start
 1000              		.syntax unified
 1001              		.thumb
 1002              		.thumb_func
 1004              	UTIL_TIMER_Start:
 1005              	.LVL83:
 1006              	.LFB109:
 150:Utilities/timer/stm32_timer.c ****   UTIL_TIMER_Status_t  ret = UTIL_TIMER_OK;
 1007              		.loc 1 150 1 is_stmt 1 view -0
 1008              		.cfi_startproc
 1009              		@ args = 0, pretend = 0, frame = 0
 1010              		@ frame_needed = 0, uses_anonymous_args = 0
 150:Utilities/timer/stm32_timer.c ****   UTIL_TIMER_Status_t  ret = UTIL_TIMER_OK;
 1011              		.loc 1 150 1 is_stmt 0 view .LVU276
 1012 0000 F8B5     		push	{r3, r4, r5, r6, r7, lr}
 1013              		.cfi_def_cfa_offset 24
 1014              		.cfi_offset 3, -24
 1015              		.cfi_offset 4, -20
 1016              		.cfi_offset 5, -16
 1017              		.cfi_offset 6, -12
 1018              		.cfi_offset 7, -8
 1019              		.cfi_offset 14, -4
 151:Utilities/timer/stm32_timer.c ****   uint32_t elapsedTime;
 1020              		.loc 1 151 3 is_stmt 1 view .LVU277
 1021              	.LVL84:
 152:Utilities/timer/stm32_timer.c ****   uint32_t minValue;
 1022              		.loc 1 152 3 view .LVU278
 153:Utilities/timer/stm32_timer.c ****   uint32_t ticks;
 1023              		.loc 1 153 3 view .LVU279
 154:Utilities/timer/stm32_timer.c ****     
 1024              		.loc 1 154 3 view .LVU280
 156:Utilities/timer/stm32_timer.c ****   {
 1025              		.loc 1 156 3 view .LVU281
 156:Utilities/timer/stm32_timer.c ****   {
 1026              		.loc 1 156 5 is_stmt 0 view .LVU282
 1027 0002 0028     		cmp	r0, #0
 1028 0004 36D0     		beq	.L100
 1029 0006 0446     		mov	r4, r0
 156:Utilities/timer/stm32_timer.c ****   {
 1030              		.loc 1 156 35 discriminator 1 view .LVU283
 1031 0008 FFF7FEFF 		bl	TimerExists
 1032              	.LVL85:
 156:Utilities/timer/stm32_timer.c ****   {
 1033              		.loc 1 156 30 discriminator 1 view .LVU284
 1034 000c 0028     		cmp	r0, #0
 1035 000e 34D1     		bne	.L101
 156:Utilities/timer/stm32_timer.c ****   {
 1036              		.loc 1 156 88 discriminator 2 view .LVU285
 1037 0010 657A     		ldrb	r5, [r4, #9]	@ zero_extendqisi2
 156:Utilities/timer/stm32_timer.c ****   {
 1038              		.loc 1 156 73 discriminator 2 view .LVU286
ARM GAS  /tmp/ccoREEzA.s 			page 52


 1039 0012 002D     		cmp	r5, #0
 1040 0014 33D1     		bne	.L102
 1041              	.LBB31:
 158:Utilities/timer/stm32_timer.c ****     ticks = TimerObject->ReloadValue;
 1042              		.loc 1 158 5 is_stmt 1 view .LVU287
 1043              	.LBB32:
 1044              	.LBI32:
1204:Drivers/CMSIS/Include/cmsis_gcc.h **** {
 1045              		.loc 2 1204 31 view .LVU288
 1046              	.LBB33:
1206:Drivers/CMSIS/Include/cmsis_gcc.h **** 
 1047              		.loc 2 1206 3 view .LVU289
1208:Drivers/CMSIS/Include/cmsis_gcc.h ****   return(result);
 1048              		.loc 2 1208 3 view .LVU290
 1049              		.syntax unified
 1050              	@ 1208 "Drivers/CMSIS/Include/cmsis_gcc.h" 1
 1051 0016 EFF31086 		MRS r6, primask
 1052              	@ 0 "" 2
 1053              	.LVL86:
1209:Drivers/CMSIS/Include/cmsis_gcc.h **** }
 1054              		.loc 2 1209 3 view .LVU291
1209:Drivers/CMSIS/Include/cmsis_gcc.h **** }
 1055              		.loc 2 1209 3 is_stmt 0 view .LVU292
 1056              		.thumb
 1057              		.syntax unified
 1058              	.LBE33:
 1059              	.LBE32:
 158:Utilities/timer/stm32_timer.c ****     ticks = TimerObject->ReloadValue;
 1060              		.loc 1 158 5 is_stmt 1 discriminator 1 view .LVU293
 1061              	.LBB34:
 1062              	.LBI34:
 960:Drivers/CMSIS/Include/cmsis_gcc.h **** {
 1063              		.loc 2 960 27 view .LVU294
 1064              	.LBB35:
 962:Drivers/CMSIS/Include/cmsis_gcc.h **** }
 1065              		.loc 2 962 3 view .LVU295
 1066              		.syntax unified
 1067              	@ 962 "Drivers/CMSIS/Include/cmsis_gcc.h" 1
 1068 001a 72B6     		cpsid i
 1069              	@ 0 "" 2
 1070              		.thumb
 1071              		.syntax unified
 1072              	.LBE35:
 1073              	.LBE34:
 159:Utilities/timer/stm32_timer.c ****     minValue = UTIL_TimerDriver.GetMinimumTimeout( );
 1074              		.loc 1 159 5 view .LVU296
 159:Utilities/timer/stm32_timer.c ****     minValue = UTIL_TimerDriver.GetMinimumTimeout( );
 1075              		.loc 1 159 11 is_stmt 0 view .LVU297
 1076 001c 6768     		ldr	r7, [r4, #4]
 1077              	.LVL87:
 160:Utilities/timer/stm32_timer.c ****     
 1078              		.loc 1 160 5 is_stmt 1 view .LVU298
 160:Utilities/timer/stm32_timer.c ****     
 1079              		.loc 1 160 32 is_stmt 0 view .LVU299
 1080 001e 194B     		ldr	r3, .L105
 1081 0020 1B6A     		ldr	r3, [r3, #32]
 160:Utilities/timer/stm32_timer.c ****     
ARM GAS  /tmp/ccoREEzA.s 			page 53


 1082              		.loc 1 160 16 view .LVU300
 1083 0022 9847     		blx	r3
 1084              	.LVL88:
 162:Utilities/timer/stm32_timer.c ****     {
 1085              		.loc 1 162 5 is_stmt 1 view .LVU301
 162:Utilities/timer/stm32_timer.c ****     {
 1086              		.loc 1 162 7 is_stmt 0 view .LVU302
 1087 0024 8742     		cmp	r7, r0
 1088 0026 00D3     		bcc	.L96
 159:Utilities/timer/stm32_timer.c ****     minValue = UTIL_TimerDriver.GetMinimumTimeout( );
 1089              		.loc 1 159 11 view .LVU303
 1090 0028 3846     		mov	r0, r7
 1091              	.LVL89:
 1092              	.L96:
 167:Utilities/timer/stm32_timer.c ****     TimerObject->IsPending = 0U;
 1093              		.loc 1 167 5 is_stmt 1 view .LVU304
 167:Utilities/timer/stm32_timer.c ****     TimerObject->IsPending = 0U;
 1094              		.loc 1 167 28 is_stmt 0 view .LVU305
 1095 002a 2060     		str	r0, [r4]
 168:Utilities/timer/stm32_timer.c ****     TimerObject->IsRunning = 1U;
 1096              		.loc 1 168 5 is_stmt 1 view .LVU306
 168:Utilities/timer/stm32_timer.c ****     TimerObject->IsRunning = 1U;
 1097              		.loc 1 168 28 is_stmt 0 view .LVU307
 1098 002c 0023     		movs	r3, #0
 1099 002e 2372     		strb	r3, [r4, #8]
 169:Utilities/timer/stm32_timer.c ****     TimerObject->IsReloadStopped = 0U;
 1100              		.loc 1 169 5 is_stmt 1 view .LVU308
 169:Utilities/timer/stm32_timer.c ****     TimerObject->IsReloadStopped = 0U;
 1101              		.loc 1 169 28 is_stmt 0 view .LVU309
 1102 0030 0122     		movs	r2, #1
 1103 0032 6272     		strb	r2, [r4, #9]
 170:Utilities/timer/stm32_timer.c ****     if( TimerListHead == NULL )
 1104              		.loc 1 170 5 is_stmt 1 view .LVU310
 170:Utilities/timer/stm32_timer.c ****     if( TimerListHead == NULL )
 1105              		.loc 1 170 34 is_stmt 0 view .LVU311
 1106 0034 A372     		strb	r3, [r4, #10]
 171:Utilities/timer/stm32_timer.c ****     {
 1107              		.loc 1 171 5 is_stmt 1 view .LVU312
 171:Utilities/timer/stm32_timer.c ****     {
 1108              		.loc 1 171 23 is_stmt 0 view .LVU313
 1109 0036 144B     		ldr	r3, .L105+4
 1110 0038 1B68     		ldr	r3, [r3]
 171:Utilities/timer/stm32_timer.c ****     {
 1111              		.loc 1 171 7 view .LVU314
 1112 003a 83B1     		cbz	r3, .L104
 178:Utilities/timer/stm32_timer.c ****       TimerObject->Timestamp += elapsedTime;
 1113              		.loc 1 178 7 is_stmt 1 view .LVU315
 178:Utilities/timer/stm32_timer.c ****       TimerObject->Timestamp += elapsedTime;
 1114              		.loc 1 178 37 is_stmt 0 view .LVU316
 1115 003c 114B     		ldr	r3, .L105
 1116 003e 9B69     		ldr	r3, [r3, #24]
 178:Utilities/timer/stm32_timer.c ****       TimerObject->Timestamp += elapsedTime;
 1117              		.loc 1 178 21 view .LVU317
 1118 0040 9847     		blx	r3
 1119              	.LVL90:
 179:Utilities/timer/stm32_timer.c ****       
 1120              		.loc 1 179 7 is_stmt 1 view .LVU318
ARM GAS  /tmp/ccoREEzA.s 			page 54


 179:Utilities/timer/stm32_timer.c ****       
 1121              		.loc 1 179 18 is_stmt 0 view .LVU319
 1122 0042 2368     		ldr	r3, [r4]
 179:Utilities/timer/stm32_timer.c ****       
 1123              		.loc 1 179 30 view .LVU320
 1124 0044 1844     		add	r0, r0, r3
 1125              	.LVL91:
 179:Utilities/timer/stm32_timer.c ****       
 1126              		.loc 1 179 30 view .LVU321
 1127 0046 2060     		str	r0, [r4]
 181:Utilities/timer/stm32_timer.c ****       {
 1128              		.loc 1 181 7 is_stmt 1 view .LVU322
 181:Utilities/timer/stm32_timer.c ****       {
 1129              		.loc 1 181 49 is_stmt 0 view .LVU323
 1130 0048 0F4B     		ldr	r3, .L105+4
 1131 004a 1B68     		ldr	r3, [r3]
 1132 004c 1B68     		ldr	r3, [r3]
 181:Utilities/timer/stm32_timer.c ****       {
 1133              		.loc 1 181 9 view .LVU324
 1134 004e 9842     		cmp	r0, r3
 1135 0050 0CD2     		bcs	.L99
 183:Utilities/timer/stm32_timer.c ****       }
 1136              		.loc 1 183 9 is_stmt 1 view .LVU325
 1137 0052 2046     		mov	r0, r4
 1138 0054 FFF7FEFF 		bl	TimerInsertNewHeadTimer
 1139              	.LVL92:
 1140              	.L98:
 190:Utilities/timer/stm32_timer.c ****   }
 1141              		.loc 1 190 5 view .LVU326
 1142              	.LBB36:
 1143              	.LBI36:
1234:Drivers/CMSIS/Include/cmsis_gcc.h **** {
 1144              		.loc 2 1234 27 view .LVU327
 1145              	.LBB37:
1236:Drivers/CMSIS/Include/cmsis_gcc.h **** }
 1146              		.loc 2 1236 3 view .LVU328
 1147              		.syntax unified
 1148              	@ 1236 "Drivers/CMSIS/Include/cmsis_gcc.h" 1
 1149 0058 86F31088 		MSR primask, r6
 1150              	@ 0 "" 2
 1151              	.LVL93:
 1152              		.loc 2 1237 1 is_stmt 0 view .LVU329
 1153              		.thumb
 1154              		.syntax unified
 1155 005c 0BE0     		b	.L95
 1156              	.LVL94:
 1157              	.L104:
 1158              		.loc 2 1237 1 view .LVU330
 1159              	.LBE37:
 1160              	.LBE36:
 173:Utilities/timer/stm32_timer.c ****       TimerInsertNewHeadTimer( TimerObject ); /* insert a timeout at now+obj->Timestamp */
 1161              		.loc 1 173 7 is_stmt 1 view .LVU331
 173:Utilities/timer/stm32_timer.c ****       TimerInsertNewHeadTimer( TimerObject ); /* insert a timeout at now+obj->Timestamp */
 1162              		.loc 1 173 23 is_stmt 0 view .LVU332
 1163 005e 094B     		ldr	r3, .L105
 1164 0060 1B69     		ldr	r3, [r3, #16]
 173:Utilities/timer/stm32_timer.c ****       TimerInsertNewHeadTimer( TimerObject ); /* insert a timeout at now+obj->Timestamp */
ARM GAS  /tmp/ccoREEzA.s 			page 55


 1165              		.loc 1 173 7 view .LVU333
 1166 0062 9847     		blx	r3
 1167              	.LVL95:
 174:Utilities/timer/stm32_timer.c ****     }
 1168              		.loc 1 174 7 is_stmt 1 view .LVU334
 1169 0064 2046     		mov	r0, r4
 1170 0066 FFF7FEFF 		bl	TimerInsertNewHeadTimer
 1171              	.LVL96:
 1172 006a F5E7     		b	.L98
 1173              	.LVL97:
 1174              	.L99:
 187:Utilities/timer/stm32_timer.c ****       }
 1175              		.loc 1 187 9 view .LVU335
 1176 006c 2046     		mov	r0, r4
 1177 006e FFF7FEFF 		bl	TimerInsertTimer
 1178              	.LVL98:
 1179 0072 F1E7     		b	.L98
 1180              	.LVL99:
 1181              	.L100:
 187:Utilities/timer/stm32_timer.c ****       }
 1182              		.loc 1 187 9 is_stmt 0 view .LVU336
 1183              	.LBE31:
 194:Utilities/timer/stm32_timer.c ****   }
 1184              		.loc 1 194 9 view .LVU337
 1185 0074 0125     		movs	r5, #1
 1186              	.LVL100:
 1187              	.L95:
 196:Utilities/timer/stm32_timer.c **** }
 1188              		.loc 1 196 3 is_stmt 1 view .LVU338
 197:Utilities/timer/stm32_timer.c **** 
 1189              		.loc 1 197 1 is_stmt 0 view .LVU339
 1190 0076 2846     		mov	r0, r5
 1191 0078 F8BD     		pop	{r3, r4, r5, r6, r7, pc}
 1192              	.LVL101:
 1193              	.L101:
 194:Utilities/timer/stm32_timer.c ****   }
 1194              		.loc 1 194 9 view .LVU340
 1195 007a 0125     		movs	r5, #1
 1196 007c FBE7     		b	.L95
 1197              	.L102:
 1198 007e 0125     		movs	r5, #1
 1199 0080 F9E7     		b	.L95
 1200              	.L106:
 1201 0082 00BF     		.align	2
 1202              	.L105:
 1203 0084 00000000 		.word	UTIL_TimerDriver
 1204 0088 00000000 		.word	TimerListHead
 1205              		.cfi_endproc
 1206              	.LFE109:
 1208              		.section	.text.UTIL_TIMER_StartWithPeriod,"ax",%progbits
 1209              		.align	1
 1210              		.global	UTIL_TIMER_StartWithPeriod
 1211              		.syntax unified
 1212              		.thumb
 1213              		.thumb_func
 1215              	UTIL_TIMER_StartWithPeriod:
 1216              	.LVL102:
ARM GAS  /tmp/ccoREEzA.s 			page 56


 1217              	.LFB110:
 200:Utilities/timer/stm32_timer.c ****   UTIL_TIMER_Status_t  ret = UTIL_TIMER_OK;
 1218              		.loc 1 200 1 is_stmt 1 view -0
 1219              		.cfi_startproc
 1220              		@ args = 0, pretend = 0, frame = 0
 1221              		@ frame_needed = 0, uses_anonymous_args = 0
 201:Utilities/timer/stm32_timer.c **** 
 1222              		.loc 1 201 3 view .LVU342
 203:Utilities/timer/stm32_timer.c ****   {
 1223              		.loc 1 203 3 view .LVU343
 203:Utilities/timer/stm32_timer.c ****   {
 1224              		.loc 1 203 5 is_stmt 0 view .LVU344
 1225 0000 90B1     		cbz	r0, .L110
 200:Utilities/timer/stm32_timer.c ****   UTIL_TIMER_Status_t  ret = UTIL_TIMER_OK;
 1226              		.loc 1 200 1 view .LVU345
 1227 0002 10B5     		push	{r4, lr}
 1228              		.cfi_def_cfa_offset 8
 1229              		.cfi_offset 4, -8
 1230              		.cfi_offset 14, -4
 1231 0004 0446     		mov	r4, r0
 209:Utilities/timer/stm32_timer.c ****     if(TimerExists(TimerObject))
 1232              		.loc 1 209 5 is_stmt 1 view .LVU346
 209:Utilities/timer/stm32_timer.c ****     if(TimerExists(TimerObject))
 1233              		.loc 1 209 48 is_stmt 0 view .LVU347
 1234 0006 094B     		ldr	r3, .L116
 1235 0008 5B6A     		ldr	r3, [r3, #36]
 209:Utilities/timer/stm32_timer.c ****     if(TimerExists(TimerObject))
 1236              		.loc 1 209 32 view .LVU348
 1237 000a 0846     		mov	r0, r1
 1238              	.LVL103:
 209:Utilities/timer/stm32_timer.c ****     if(TimerExists(TimerObject))
 1239              		.loc 1 209 32 view .LVU349
 1240 000c 9847     		blx	r3
 1241              	.LVL104:
 209:Utilities/timer/stm32_timer.c ****     if(TimerExists(TimerObject))
 1242              		.loc 1 209 30 discriminator 1 view .LVU350
 1243 000e 6060     		str	r0, [r4, #4]
 210:Utilities/timer/stm32_timer.c ****     {
 1244              		.loc 1 210 5 is_stmt 1 view .LVU351
 210:Utilities/timer/stm32_timer.c ****     {
 1245              		.loc 1 210 8 is_stmt 0 view .LVU352
 1246 0010 2046     		mov	r0, r4
 1247 0012 FFF7FEFF 		bl	TimerExists
 1248              	.LVL105:
 210:Utilities/timer/stm32_timer.c ****     {
 1249              		.loc 1 210 7 discriminator 1 view .LVU353
 1250 0016 18B9     		cbnz	r0, .L115
 1251              	.L109:
 214:Utilities/timer/stm32_timer.c ****   }
 1252              		.loc 1 214 5 is_stmt 1 view .LVU354
 214:Utilities/timer/stm32_timer.c ****   }
 1253              		.loc 1 214 11 is_stmt 0 view .LVU355
 1254 0018 2046     		mov	r0, r4
 1255 001a FFF7FEFF 		bl	UTIL_TIMER_Start
 1256              	.LVL106:
 216:Utilities/timer/stm32_timer.c **** }
 1257              		.loc 1 216 3 is_stmt 1 view .LVU356
ARM GAS  /tmp/ccoREEzA.s 			page 57


 217:Utilities/timer/stm32_timer.c **** 
 1258              		.loc 1 217 1 is_stmt 0 view .LVU357
 1259 001e 10BD     		pop	{r4, pc}
 1260              	.LVL107:
 1261              	.L115:
 212:Utilities/timer/stm32_timer.c ****     }
 1262              		.loc 1 212 7 is_stmt 1 view .LVU358
 212:Utilities/timer/stm32_timer.c ****     }
 1263              		.loc 1 212 13 is_stmt 0 view .LVU359
 1264 0020 2046     		mov	r0, r4
 1265 0022 FFF7FEFF 		bl	UTIL_TIMER_Stop
 1266              	.LVL108:
 1267 0026 F7E7     		b	.L109
 1268              	.LVL109:
 1269              	.L110:
 1270              		.cfi_def_cfa_offset 0
 1271              		.cfi_restore 4
 1272              		.cfi_restore 14
 205:Utilities/timer/stm32_timer.c ****   }
 1273              		.loc 1 205 9 view .LVU360
 1274 0028 0120     		movs	r0, #1
 1275              	.LVL110:
 216:Utilities/timer/stm32_timer.c **** }
 1276              		.loc 1 216 3 is_stmt 1 view .LVU361
 217:Utilities/timer/stm32_timer.c **** 
 1277              		.loc 1 217 1 is_stmt 0 view .LVU362
 1278 002a 7047     		bx	lr
 1279              	.L117:
 1280              		.align	2
 1281              	.L116:
 1282 002c 00000000 		.word	UTIL_TimerDriver
 1283              		.cfi_endproc
 1284              	.LFE110:
 1286              		.section	.text.UTIL_TIMER_SetPeriod,"ax",%progbits
 1287              		.align	1
 1288              		.global	UTIL_TIMER_SetPeriod
 1289              		.syntax unified
 1290              		.thumb
 1291              		.thumb_func
 1293              	UTIL_TIMER_SetPeriod:
 1294              	.LVL111:
 1295              	.LFB112:
 286:Utilities/timer/stm32_timer.c ****   UTIL_TIMER_Status_t  ret = UTIL_TIMER_OK;
 1296              		.loc 1 286 1 is_stmt 1 view -0
 1297              		.cfi_startproc
 1298              		@ args = 0, pretend = 0, frame = 0
 1299              		@ frame_needed = 0, uses_anonymous_args = 0
 287:Utilities/timer/stm32_timer.c ****   
 1300              		.loc 1 287 3 view .LVU364
 289:Utilities/timer/stm32_timer.c ****   {
 1301              		.loc 1 289 3 view .LVU365
 289:Utilities/timer/stm32_timer.c ****   {
 1302              		.loc 1 289 5 is_stmt 0 view .LVU366
 1303 0000 98B1     		cbz	r0, .L120
 286:Utilities/timer/stm32_timer.c ****   UTIL_TIMER_Status_t  ret = UTIL_TIMER_OK;
 1304              		.loc 1 286 1 view .LVU367
 1305 0002 10B5     		push	{r4, lr}
ARM GAS  /tmp/ccoREEzA.s 			page 58


 1306              		.cfi_def_cfa_offset 8
 1307              		.cfi_offset 4, -8
 1308              		.cfi_offset 14, -4
 1309 0004 0446     		mov	r4, r0
 295:Utilities/timer/stm32_timer.c ****     if(TimerExists(TimerObject))
 1310              		.loc 1 295 5 is_stmt 1 view .LVU368
 295:Utilities/timer/stm32_timer.c ****     if(TimerExists(TimerObject))
 1311              		.loc 1 295 48 is_stmt 0 view .LVU369
 1312 0006 0A4B     		ldr	r3, .L127
 1313 0008 5B6A     		ldr	r3, [r3, #36]
 295:Utilities/timer/stm32_timer.c ****     if(TimerExists(TimerObject))
 1314              		.loc 1 295 32 view .LVU370
 1315 000a 0846     		mov	r0, r1
 1316              	.LVL112:
 295:Utilities/timer/stm32_timer.c ****     if(TimerExists(TimerObject))
 1317              		.loc 1 295 32 view .LVU371
 1318 000c 9847     		blx	r3
 1319              	.LVL113:
 295:Utilities/timer/stm32_timer.c ****     if(TimerExists(TimerObject))
 1320              		.loc 1 295 30 discriminator 1 view .LVU372
 1321 000e 6060     		str	r0, [r4, #4]
 296:Utilities/timer/stm32_timer.c ****     {
 1322              		.loc 1 296 5 is_stmt 1 view .LVU373
 296:Utilities/timer/stm32_timer.c ****     {
 1323              		.loc 1 296 8 is_stmt 0 view .LVU374
 1324 0010 2046     		mov	r0, r4
 1325 0012 FFF7FEFF 		bl	TimerExists
 1326              	.LVL114:
 296:Utilities/timer/stm32_timer.c ****     {
 1327              		.loc 1 296 7 discriminator 1 view .LVU375
 1328 0016 08B9     		cbnz	r0, .L126
 287:Utilities/timer/stm32_timer.c ****   
 1329              		.loc 1 287 24 view .LVU376
 1330 0018 0020     		movs	r0, #0
 1331              	.LVL115:
 1332              	.L119:
 302:Utilities/timer/stm32_timer.c **** }
 1333              		.loc 1 302 3 is_stmt 1 view .LVU377
 303:Utilities/timer/stm32_timer.c **** 
 1334              		.loc 1 303 1 is_stmt 0 view .LVU378
 1335 001a 10BD     		pop	{r4, pc}
 1336              	.LVL116:
 1337              	.L126:
 298:Utilities/timer/stm32_timer.c ****       ret = UTIL_TIMER_Start(TimerObject);
 1338              		.loc 1 298 7 is_stmt 1 view .LVU379
 298:Utilities/timer/stm32_timer.c ****       ret = UTIL_TIMER_Start(TimerObject);
 1339              		.loc 1 298 13 is_stmt 0 view .LVU380
 1340 001c 2046     		mov	r0, r4
 1341 001e FFF7FEFF 		bl	UTIL_TIMER_Stop
 1342              	.LVL117:
 299:Utilities/timer/stm32_timer.c ****     }
 1343              		.loc 1 299 7 is_stmt 1 view .LVU381
 299:Utilities/timer/stm32_timer.c ****     }
 1344              		.loc 1 299 13 is_stmt 0 view .LVU382
 1345 0022 2046     		mov	r0, r4
 1346 0024 FFF7FEFF 		bl	UTIL_TIMER_Start
 1347              	.LVL118:
ARM GAS  /tmp/ccoREEzA.s 			page 59


 299:Utilities/timer/stm32_timer.c ****     }
 1348              		.loc 1 299 13 view .LVU383
 1349 0028 F7E7     		b	.L119
 1350              	.LVL119:
 1351              	.L120:
 1352              		.cfi_def_cfa_offset 0
 1353              		.cfi_restore 4
 1354              		.cfi_restore 14
 291:Utilities/timer/stm32_timer.c ****   }
 1355              		.loc 1 291 8 view .LVU384
 1356 002a 0120     		movs	r0, #1
 1357              	.LVL120:
 302:Utilities/timer/stm32_timer.c **** }
 1358              		.loc 1 302 3 is_stmt 1 view .LVU385
 303:Utilities/timer/stm32_timer.c **** 
 1359              		.loc 1 303 1 is_stmt 0 view .LVU386
 1360 002c 7047     		bx	lr
 1361              	.L128:
 1362 002e 00BF     		.align	2
 1363              	.L127:
 1364 0030 00000000 		.word	UTIL_TimerDriver
 1365              		.cfi_endproc
 1366              	.LFE112:
 1368              		.section	.text.UTIL_TIMER_IRQ_Handler,"ax",%progbits
 1369              		.align	1
 1370              		.global	UTIL_TIMER_IRQ_Handler
 1371              		.syntax unified
 1372              		.thumb
 1373              		.thumb_func
 1375              	UTIL_TIMER_IRQ_Handler:
 1376              	.LFB117:
 366:Utilities/timer/stm32_timer.c ****   UTIL_TIMER_Object_t* cur;
 1377              		.loc 1 366 1 is_stmt 1 view -0
 1378              		.cfi_startproc
 1379              		@ args = 0, pretend = 0, frame = 0
 1380              		@ frame_needed = 0, uses_anonymous_args = 0
 1381 0000 70B5     		push	{r4, r5, r6, lr}
 1382              		.cfi_def_cfa_offset 16
 1383              		.cfi_offset 4, -16
 1384              		.cfi_offset 5, -12
 1385              		.cfi_offset 6, -8
 1386              		.cfi_offset 14, -4
 367:Utilities/timer/stm32_timer.c ****   uint32_t old, now, DeltaContext;
 1387              		.loc 1 367 3 view .LVU388
 368:Utilities/timer/stm32_timer.c **** 
 1388              		.loc 1 368 3 view .LVU389
 370:Utilities/timer/stm32_timer.c **** 
 1389              		.loc 1 370 3 view .LVU390
 1390              	.LBB38:
 1391              	.LBI38:
1204:Drivers/CMSIS/Include/cmsis_gcc.h **** {
 1392              		.loc 2 1204 31 view .LVU391
 1393              	.LBB39:
1206:Drivers/CMSIS/Include/cmsis_gcc.h **** 
 1394              		.loc 2 1206 3 view .LVU392
1208:Drivers/CMSIS/Include/cmsis_gcc.h ****   return(result);
 1395              		.loc 2 1208 3 view .LVU393
ARM GAS  /tmp/ccoREEzA.s 			page 60


 1396              		.syntax unified
 1397              	@ 1208 "Drivers/CMSIS/Include/cmsis_gcc.h" 1
 1398 0002 EFF31085 		MRS r5, primask
 1399              	@ 0 "" 2
 1400              	.LVL121:
1209:Drivers/CMSIS/Include/cmsis_gcc.h **** }
 1401              		.loc 2 1209 3 view .LVU394
1209:Drivers/CMSIS/Include/cmsis_gcc.h **** }
 1402              		.loc 2 1209 3 is_stmt 0 view .LVU395
 1403              		.thumb
 1404              		.syntax unified
 1405              	.LBE39:
 1406              	.LBE38:
 370:Utilities/timer/stm32_timer.c **** 
 1407              		.loc 1 370 3 is_stmt 1 discriminator 1 view .LVU396
 1408              	.LBB40:
 1409              	.LBI40:
 960:Drivers/CMSIS/Include/cmsis_gcc.h **** {
 1410              		.loc 2 960 27 view .LVU397
 1411              	.LBB41:
 962:Drivers/CMSIS/Include/cmsis_gcc.h **** }
 1412              		.loc 2 962 3 view .LVU398
 1413              		.syntax unified
 1414              	@ 962 "Drivers/CMSIS/Include/cmsis_gcc.h" 1
 1415 0006 72B6     		cpsid i
 1416              	@ 0 "" 2
 1417              		.thumb
 1418              		.syntax unified
 1419              	.LBE41:
 1420              	.LBE40:
 372:Utilities/timer/stm32_timer.c ****   now  =  UTIL_TimerDriver.SetTimerContext( );
 1421              		.loc 1 372 3 view .LVU399
 372:Utilities/timer/stm32_timer.c ****   now  =  UTIL_TimerDriver.SetTimerContext( );
 1422              		.loc 1 372 27 is_stmt 0 view .LVU400
 1423 0008 1E4C     		ldr	r4, .L142
 1424 000a 6369     		ldr	r3, [r4, #20]
 372:Utilities/timer/stm32_timer.c ****   now  =  UTIL_TimerDriver.SetTimerContext( );
 1425              		.loc 1 372 11 view .LVU401
 1426 000c 9847     		blx	r3
 1427              	.LVL122:
 1428 000e 0646     		mov	r6, r0
 1429              	.LVL123:
 373:Utilities/timer/stm32_timer.c **** 
 1430              		.loc 1 373 3 is_stmt 1 view .LVU402
 373:Utilities/timer/stm32_timer.c **** 
 1431              		.loc 1 373 27 is_stmt 0 view .LVU403
 1432 0010 2369     		ldr	r3, [r4, #16]
 373:Utilities/timer/stm32_timer.c **** 
 1433              		.loc 1 373 11 view .LVU404
 1434 0012 9847     		blx	r3
 1435              	.LVL124:
 375:Utilities/timer/stm32_timer.c ****   
 1436              		.loc 1 375 3 is_stmt 1 view .LVU405
 375:Utilities/timer/stm32_timer.c ****   
 1437              		.loc 1 375 16 is_stmt 0 view .LVU406
 1438 0014 841B     		subs	r4, r0, r6
 1439              	.LVL125:
ARM GAS  /tmp/ccoREEzA.s 			page 61


 379:Utilities/timer/stm32_timer.c ****   {
 1440              		.loc 1 379 3 is_stmt 1 view .LVU407
 379:Utilities/timer/stm32_timer.c ****   {
 1441              		.loc 1 379 22 is_stmt 0 view .LVU408
 1442 0016 1C4B     		ldr	r3, .L142+4
 1443 0018 1B68     		ldr	r3, [r3]
 379:Utilities/timer/stm32_timer.c ****   {
 1444              		.loc 1 379 6 view .LVU409
 1445 001a 23B9     		cbnz	r3, .L133
 1446 001c 18E0     		b	.L134
 1447              	.LVL126:
 1448              	.L131:
 389:Utilities/timer/stm32_timer.c ****       }
 1449              		.loc 1 389 9 is_stmt 1 view .LVU410
 389:Utilities/timer/stm32_timer.c ****       }
 1450              		.loc 1 389 24 is_stmt 0 view .LVU411
 1451 001e 0022     		movs	r2, #0
 1452 0020 1A60     		str	r2, [r3]
 1453              	.L132:
 391:Utilities/timer/stm32_timer.c ****     } while(cur != NULL);
 1454              		.loc 1 391 7 is_stmt 1 view .LVU412
 391:Utilities/timer/stm32_timer.c ****     } while(cur != NULL);
 1455              		.loc 1 391 11 is_stmt 0 view .LVU413
 1456 0022 5B69     		ldr	r3, [r3, #20]
 1457              	.LVL127:
 392:Utilities/timer/stm32_timer.c ****   }
 1458              		.loc 1 392 17 is_stmt 1 view .LVU414
 1459 0024 A3B1     		cbz	r3, .L134
 1460              	.LVL128:
 1461              	.L133:
 382:Utilities/timer/stm32_timer.c ****       if (cur->Timestamp > DeltaContext)
 1462              		.loc 1 382 2 view .LVU415
 383:Utilities/timer/stm32_timer.c ****       {
 1463              		.loc 1 383 7 view .LVU416
 383:Utilities/timer/stm32_timer.c ****       {
 1464              		.loc 1 383 14 is_stmt 0 view .LVU417
 1465 0026 1A68     		ldr	r2, [r3]
 383:Utilities/timer/stm32_timer.c ****       {
 1466              		.loc 1 383 10 view .LVU418
 1467 0028 A242     		cmp	r2, r4
 1468 002a F8D9     		bls	.L131
 385:Utilities/timer/stm32_timer.c ****       }
 1469              		.loc 1 385 9 is_stmt 1 view .LVU419
 385:Utilities/timer/stm32_timer.c ****       }
 1470              		.loc 1 385 24 is_stmt 0 view .LVU420
 1471 002c 311A     		subs	r1, r6, r0
 1472 002e 0A44     		add	r2, r2, r1
 1473 0030 1A60     		str	r2, [r3]
 1474 0032 F6E7     		b	.L132
 1475              	.LVL129:
 1476              	.L137:
 398:Utilities/timer/stm32_timer.c ****       TimerListHead = TimerListHead->Next;
 1477              		.loc 1 398 7 is_stmt 1 view .LVU421
 398:Utilities/timer/stm32_timer.c ****       TimerListHead = TimerListHead->Next;
 1478              		.loc 1 398 11 is_stmt 0 view .LVU422
 1479 0034 144B     		ldr	r3, .L142+4
 1480 0036 1C68     		ldr	r4, [r3]
ARM GAS  /tmp/ccoREEzA.s 			page 62


 1481              	.LVL130:
 399:Utilities/timer/stm32_timer.c ****       cur->IsPending = 0;
 1482              		.loc 1 399 7 is_stmt 1 view .LVU423
 399:Utilities/timer/stm32_timer.c ****       cur->IsPending = 0;
 1483              		.loc 1 399 36 is_stmt 0 view .LVU424
 1484 0038 6269     		ldr	r2, [r4, #20]
 399:Utilities/timer/stm32_timer.c ****       cur->IsPending = 0;
 1485              		.loc 1 399 21 view .LVU425
 1486 003a 1A60     		str	r2, [r3]
 400:Utilities/timer/stm32_timer.c ****       cur->IsRunning = 0;
 1487              		.loc 1 400 7 is_stmt 1 view .LVU426
 400:Utilities/timer/stm32_timer.c ****       cur->IsRunning = 0;
 1488              		.loc 1 400 22 is_stmt 0 view .LVU427
 1489 003c 0023     		movs	r3, #0
 1490 003e 2372     		strb	r3, [r4, #8]
 401:Utilities/timer/stm32_timer.c ****       cur->Callback(cur->argument);
 1491              		.loc 1 401 7 is_stmt 1 view .LVU428
 401:Utilities/timer/stm32_timer.c ****       cur->Callback(cur->argument);
 1492              		.loc 1 401 22 is_stmt 0 view .LVU429
 1493 0040 6372     		strb	r3, [r4, #9]
 402:Utilities/timer/stm32_timer.c ****       if(( cur->Mode == UTIL_TIMER_PERIODIC) && (cur->IsReloadStopped == 0U))
 1494              		.loc 1 402 7 is_stmt 1 view .LVU430
 402:Utilities/timer/stm32_timer.c ****       if(( cur->Mode == UTIL_TIMER_PERIODIC) && (cur->IsReloadStopped == 0U))
 1495              		.loc 1 402 10 is_stmt 0 view .LVU431
 1496 0042 E368     		ldr	r3, [r4, #12]
 402:Utilities/timer/stm32_timer.c ****       if(( cur->Mode == UTIL_TIMER_PERIODIC) && (cur->IsReloadStopped == 0U))
 1497              		.loc 1 402 7 view .LVU432
 1498 0044 2069     		ldr	r0, [r4, #16]
 1499 0046 9847     		blx	r3
 1500              	.LVL131:
 403:Utilities/timer/stm32_timer.c ****       {
 1501              		.loc 1 403 7 is_stmt 1 view .LVU433
 403:Utilities/timer/stm32_timer.c ****       {
 1502              		.loc 1 403 46 is_stmt 0 view .LVU434
 1503 0048 6389     		ldrh	r3, [r4, #10]
 403:Utilities/timer/stm32_timer.c ****       {
 1504              		.loc 1 403 9 view .LVU435
 1505 004a B3F5807F 		cmp	r3, #256
 1506 004e 12D0     		beq	.L140
 1507              	.LVL132:
 1508              	.L134:
 396:Utilities/timer/stm32_timer.c ****   {
 1509              		.loc 1 396 34 is_stmt 1 view .LVU436
 396:Utilities/timer/stm32_timer.c ****   {
 1510              		.loc 1 396 25 is_stmt 0 view .LVU437
 1511 0050 0D4B     		ldr	r3, .L142+4
 1512 0052 1B68     		ldr	r3, [r3]
 396:Utilities/timer/stm32_timer.c ****   {
 1513              		.loc 1 396 34 view .LVU438
 1514 0054 3BB1     		cbz	r3, .L136
 396:Utilities/timer/stm32_timer.c ****   {
 1515              		.loc 1 396 52 discriminator 1 view .LVU439
 1516 0056 1C68     		ldr	r4, [r3]
 396:Utilities/timer/stm32_timer.c ****   {
 1517              		.loc 1 396 34 discriminator 1 view .LVU440
 1518 0058 002C     		cmp	r4, #0
 1519 005a EBD0     		beq	.L137
ARM GAS  /tmp/ccoREEzA.s 			page 63


 396:Utilities/timer/stm32_timer.c ****   {
 1520              		.loc 1 396 118 discriminator 2 view .LVU441
 1521 005c 094B     		ldr	r3, .L142
 1522 005e 9B69     		ldr	r3, [r3, #24]
 396:Utilities/timer/stm32_timer.c ****   {
 1523              		.loc 1 396 102 discriminator 2 view .LVU442
 1524 0060 9847     		blx	r3
 1525              	.LVL133:
 396:Utilities/timer/stm32_timer.c ****   {
 1526              		.loc 1 396 71 discriminator 1 view .LVU443
 1527 0062 8442     		cmp	r4, r0
 1528 0064 E6D3     		bcc	.L137
 1529              	.L136:
 410:Utilities/timer/stm32_timer.c ****   {
 1530              		.loc 1 410 3 is_stmt 1 view .LVU444
 410:Utilities/timer/stm32_timer.c ****   {
 1531              		.loc 1 410 22 is_stmt 0 view .LVU445
 1532 0066 084B     		ldr	r3, .L142+4
 1533 0068 1868     		ldr	r0, [r3]
 410:Utilities/timer/stm32_timer.c ****   {
 1534              		.loc 1 410 5 view .LVU446
 1535 006a 08B1     		cbz	r0, .L138
 410:Utilities/timer/stm32_timer.c ****   {
 1536              		.loc 1 410 49 discriminator 1 view .LVU447
 1537 006c 037A     		ldrb	r3, [r0, #8]	@ zero_extendqisi2
 410:Utilities/timer/stm32_timer.c ****   {
 1538              		.loc 1 410 32 discriminator 1 view .LVU448
 1539 006e 33B1     		cbz	r3, .L141
 1540              	.L138:
 414:Utilities/timer/stm32_timer.c **** }
 1541              		.loc 1 414 3 is_stmt 1 view .LVU449
 1542              	.LVL134:
 1543              	.LBB42:
 1544              	.LBI42:
1234:Drivers/CMSIS/Include/cmsis_gcc.h **** {
 1545              		.loc 2 1234 27 view .LVU450
 1546              	.LBB43:
1236:Drivers/CMSIS/Include/cmsis_gcc.h **** }
 1547              		.loc 2 1236 3 view .LVU451
 1548              		.syntax unified
 1549              	@ 1236 "Drivers/CMSIS/Include/cmsis_gcc.h" 1
 1550 0070 85F31088 		MSR primask, r5
 1551              	@ 0 "" 2
 1552              	.LVL135:
1236:Drivers/CMSIS/Include/cmsis_gcc.h **** }
 1553              		.loc 2 1236 3 is_stmt 0 view .LVU452
 1554              		.thumb
 1555              		.syntax unified
 1556              	.LBE43:
 1557              	.LBE42:
 415:Utilities/timer/stm32_timer.c **** 
 1558              		.loc 1 415 1 view .LVU453
 1559 0074 70BD     		pop	{r4, r5, r6, pc}
 1560              	.LVL136:
 1561              	.L140:
 405:Utilities/timer/stm32_timer.c ****       }
 1562              		.loc 1 405 9 is_stmt 1 view .LVU454
ARM GAS  /tmp/ccoREEzA.s 			page 64


 405:Utilities/timer/stm32_timer.c ****       }
 1563              		.loc 1 405 15 is_stmt 0 view .LVU455
 1564 0076 2046     		mov	r0, r4
 1565 0078 FFF7FEFF 		bl	UTIL_TIMER_Start
 1566              	.LVL137:
 1567 007c E8E7     		b	.L134
 1568              	.LVL138:
 1569              	.L141:
 412:Utilities/timer/stm32_timer.c ****   }
 1570              		.loc 1 412 5 is_stmt 1 view .LVU456
 1571 007e FFF7FEFF 		bl	TimerSetTimeout
 1572              	.LVL139:
 1573 0082 F5E7     		b	.L138
 1574              	.L143:
 1575              		.align	2
 1576              	.L142:
 1577 0084 00000000 		.word	UTIL_TimerDriver
 1578 0088 00000000 		.word	TimerListHead
 1579              		.cfi_endproc
 1580              	.LFE117:
 1582              		.section	.bss.TimerListHead,"aw",%nobits
 1583              		.align	2
 1586              	TimerListHead:
 1587 0000 00000000 		.space	4
 1588              		.text
 1589              	.Letext0:
 1590              		.file 3 "/home/zgsdlv/.arduino15/packages/STMicroelectronics/tools/xpack-arm-none-eabi-gcc/14.2.1-
 1591              		.file 4 "/home/zgsdlv/.arduino15/packages/STMicroelectronics/tools/xpack-arm-none-eabi-gcc/14.2.1-
 1592              		.file 5 "Utilities/timer/stm32_timer.h"
ARM GAS  /tmp/ccoREEzA.s 			page 65

