ARM GAS  /tmp/ccViP0k0.s 			page 1


   1              		.cpu cortex-m4
   2              		.arch armv7e-m
   3              		.fpu softvfp
   4              		.eabi_attribute 20, 1
   5              		.eabi_attribute 21, 1
   6              		.eabi_attribute 23, 3
   7              		.eabi_attribute 24, 1
   8              		.eabi_attribute 25, 1
   9              		.eabi_attribute 26, 1
  10              		.eabi_attribute 30, 1
  11              		.eabi_attribute 34, 1
  12              		.eabi_attribute 18, 4
  13              		.file	"stm32_systime.c"
  14              		.text
  15              	.Ltext0:
  16              		.cfi_sections	.debug_frame
  17              		.file 1 "Utilities/misc/stm32_systime.c"
  18              		.section	.text.CalendarDiv86400,"ax",%progbits
  19              		.align	1
  20              		.syntax unified
  21              		.thumb
  22              		.thumb_func
  24              	CalendarDiv86400:
  25              	.LVL0:
  26              	.LFB13:
   1:Utilities/misc/stm32_systime.c **** /*!
   2:Utilities/misc/stm32_systime.c ****  * \file      stm32_systime.c
   3:Utilities/misc/stm32_systime.c ****  *
   4:Utilities/misc/stm32_systime.c ****  * \brief     System time functions implementation
   5:Utilities/misc/stm32_systime.c ****  *
   6:Utilities/misc/stm32_systime.c ****  * \copyright Revised BSD License, see section \ref LICENSE.
   7:Utilities/misc/stm32_systime.c ****  *
   8:Utilities/misc/stm32_systime.c ****  * \code
   9:Utilities/misc/stm32_systime.c ****  *                ______                              _
  10:Utilities/misc/stm32_systime.c ****  *               / _____)             _              | |
  11:Utilities/misc/stm32_systime.c ****  *              ( (____  _____ ____ _| |_ _____  ____| |__
  12:Utilities/misc/stm32_systime.c ****  *               \____ \| ___ |    (_   _) ___ |/ ___)  _ \
  13:Utilities/misc/stm32_systime.c ****  *               _____) ) ____| | | || |_| ____( (___| | | |
  14:Utilities/misc/stm32_systime.c ****  *              (______/|_____)_|_|_| \__)_____)\____)_| |_|
  15:Utilities/misc/stm32_systime.c ****  *              (C)2013-2018 Semtech - STMicroelectronics
  16:Utilities/misc/stm32_systime.c ****  *
  17:Utilities/misc/stm32_systime.c ****  * \endcode
  18:Utilities/misc/stm32_systime.c ****  *
  19:Utilities/misc/stm32_systime.c ****  * \author    Miguel Luis ( Semtech )
  20:Utilities/misc/stm32_systime.c ****  *
  21:Utilities/misc/stm32_systime.c ****  * \author    Gregory Cristian ( Semtech )
  22:Utilities/misc/stm32_systime.c ****  *
  23:Utilities/misc/stm32_systime.c ****  * \author    MCD Application Team ( STMicroelectronics International )
  24:Utilities/misc/stm32_systime.c ****  */
  25:Utilities/misc/stm32_systime.c **** /**
  26:Utilities/misc/stm32_systime.c ****   ******************************************************************************
  27:Utilities/misc/stm32_systime.c ****   * @file    stm32_systime.c
  28:Utilities/misc/stm32_systime.c ****   * @author  MCD Application Team
  29:Utilities/misc/stm32_systime.c ****   * @brief   System time functions implementation
  30:Utilities/misc/stm32_systime.c ****   ******************************************************************************
  31:Utilities/misc/stm32_systime.c ****   * @attention
  32:Utilities/misc/stm32_systime.c ****   *
ARM GAS  /tmp/ccViP0k0.s 			page 2


  33:Utilities/misc/stm32_systime.c ****   * Copyright (c) 2019 STMicroelectronics.
  34:Utilities/misc/stm32_systime.c ****   * All rights reserved.
  35:Utilities/misc/stm32_systime.c ****   *
  36:Utilities/misc/stm32_systime.c ****   * This software is licensed under terms that can be found in the LICENSE file
  37:Utilities/misc/stm32_systime.c ****   * in the root directory of this software component.
  38:Utilities/misc/stm32_systime.c ****   * If no LICENSE file comes with this software, it is provided AS-IS.
  39:Utilities/misc/stm32_systime.c ****   *
  40:Utilities/misc/stm32_systime.c ****   ******************************************************************************
  41:Utilities/misc/stm32_systime.c ****   */
  42:Utilities/misc/stm32_systime.c **** 
  43:Utilities/misc/stm32_systime.c **** /* Includes ------------------------------------------------------------------*/
  44:Utilities/misc/stm32_systime.c **** #include <stdio.h>
  45:Utilities/misc/stm32_systime.c **** #include "stm32_systime.h"
  46:Utilities/misc/stm32_systime.c **** 
  47:Utilities/misc/stm32_systime.c **** /** @addtogroup SYS_TIME
  48:Utilities/misc/stm32_systime.c ****   * @{
  49:Utilities/misc/stm32_systime.c ****   */
  50:Utilities/misc/stm32_systime.c **** 
  51:Utilities/misc/stm32_systime.c **** /* Private defines -----------------------------------------------------------*/
  52:Utilities/misc/stm32_systime.c **** /**
  53:Utilities/misc/stm32_systime.c ****  * @defgroup SYS_TIME_private_defines SYS_TIME private defines
  54:Utilities/misc/stm32_systime.c ****  *  @{
  55:Utilities/misc/stm32_systime.c ****  */
  56:Utilities/misc/stm32_systime.c **** 
  57:Utilities/misc/stm32_systime.c **** /**
  58:Utilities/misc/stm32_systime.c ****   * @brief number of day in leap year up to the end of February
  59:Utilities/misc/stm32_systime.c ****   *
  60:Utilities/misc/stm32_systime.c ****   */
  61:Utilities/misc/stm32_systime.c **** #define END_OF_FEBRUARY_LEAP             60 //31+29
  62:Utilities/misc/stm32_systime.c **** 
  63:Utilities/misc/stm32_systime.c **** /**
  64:Utilities/misc/stm32_systime.c ****   * @brief number of day in leap year up to the end of july
  65:Utilities/misc/stm32_systime.c ****   *
  66:Utilities/misc/stm32_systime.c ****   */
  67:Utilities/misc/stm32_systime.c **** #define END_OF_JULY_LEAP              213 //31+29+...
  68:Utilities/misc/stm32_systime.c **** 
  69:Utilities/misc/stm32_systime.c **** /**
  70:Utilities/misc/stm32_systime.c ****   * @brief number of day in normal year up to the end of February
  71:Utilities/misc/stm32_systime.c ****   *
  72:Utilities/misc/stm32_systime.c ****   */
  73:Utilities/misc/stm32_systime.c **** #define END_OF_FEBRUARY_NORM             59 //31+28
  74:Utilities/misc/stm32_systime.c **** 
  75:Utilities/misc/stm32_systime.c **** /**
  76:Utilities/misc/stm32_systime.c ****   * @brief number of day in normal year up to the end of july
  77:Utilities/misc/stm32_systime.c ****   *
  78:Utilities/misc/stm32_systime.c ****   */
  79:Utilities/misc/stm32_systime.c **** #define END_OF_JULY_NORM              212 //31+28+...
  80:Utilities/misc/stm32_systime.c **** 
  81:Utilities/misc/stm32_systime.c **** /**
  82:Utilities/misc/stm32_systime.c ****   * @brief delta is referenced to Unix time
  83:Utilities/misc/stm32_systime.c ****   * @note UNIX time 0 = starts at 01:00:00, 01/01/1970
  84:Utilities/misc/stm32_systime.c ****   * but calculation is easier from Monday 1st January 1968
  85:Utilities/misc/stm32_systime.c ****   *
  86:Utilities/misc/stm32_systime.c ****   */
  87:Utilities/misc/stm32_systime.c **** #define CALC_REF_YEAR                  68
  88:Utilities/misc/stm32_systime.c **** 
  89:Utilities/misc/stm32_systime.c **** /**
ARM GAS  /tmp/ccViP0k0.s 			page 3


  90:Utilities/misc/stm32_systime.c ****   * @brief delta is referenced to Unix time
  91:Utilities/misc/stm32_systime.c ****   * @note UNIX time 0 = starts at 01:00:00, 01/01/1970
  92:Utilities/misc/stm32_systime.c ****   * but calculation is easier from Monday 1st January 1968
  93:Utilities/misc/stm32_systime.c ****   *
  94:Utilities/misc/stm32_systime.c ****   */
  95:Utilities/misc/stm32_systime.c **** #define CALC_REF_YEAR_TO_UNIX_REF_YEAR_COMPENSATION_IN_SECONDS  ( ( TM_DAYS_IN_LEAP_YEAR + TM_DAYS_
  96:Utilities/misc/stm32_systime.c **** 
  97:Utilities/misc/stm32_systime.c **** /**
  98:Utilities/misc/stm32_systime.c ****   * @brief month correction table of a normal year. To calculate the day number within a year
  99:Utilities/misc/stm32_systime.c ****   * @note error compensation is between 0 and 2 days. 2 bits per month
 100:Utilities/misc/stm32_systime.c ****   *
 101:Utilities/misc/stm32_systime.c ****   */
 102:Utilities/misc/stm32_systime.c **** #define  DAYS_IN_MONTH_CORRECTION_NORM        ( (uint32_t )0x99AAA0 )
 103:Utilities/misc/stm32_systime.c **** 
 104:Utilities/misc/stm32_systime.c **** /**
 105:Utilities/misc/stm32_systime.c ****   * @brief month correction table of a leap year. To calculate the day number within a year
 106:Utilities/misc/stm32_systime.c ****   * @note error compensation is between 0 and 2 days. 2 bits per month
 107:Utilities/misc/stm32_systime.c ****   *
 108:Utilities/misc/stm32_systime.c ****   */
 109:Utilities/misc/stm32_systime.c **** #define  DAYS_IN_MONTH_CORRECTION_LEAP        ( (uint32_t )0x445550 )
 110:Utilities/misc/stm32_systime.c **** 
 111:Utilities/misc/stm32_systime.c **** /**
 112:Utilities/misc/stm32_systime.c ****   * @brief find  X/365.25
 113:Utilities/misc/stm32_systime.c ****   *
 114:Utilities/misc/stm32_systime.c ****   */
 115:Utilities/misc/stm32_systime.c **** /* 365.25 = (366 + 365 + 365 + 365)/4 */
 116:Utilities/misc/stm32_systime.c **** #define DIV_365_25( X )                 ( ( ( X ) * 91867 + 22750 ) >> 25 )
 117:Utilities/misc/stm32_systime.c **** 
 118:Utilities/misc/stm32_systime.c **** /**
 119:Utilities/misc/stm32_systime.c ****   * @brief find the nearest quotient of X/86400 (8640 number of seconds in one week)
 120:Utilities/misc/stm32_systime.c ****   *
 121:Utilities/misc/stm32_systime.c ****   */
 122:Utilities/misc/stm32_systime.c **** #define DIV_APPROX_86400( X )             ( ( ( X ) >> 18 ) + ( ( X ) >> 17 ) )
 123:Utilities/misc/stm32_systime.c **** 
 124:Utilities/misc/stm32_systime.c **** /**
 125:Utilities/misc/stm32_systime.c ****   * @brief find the nearest quotient of X/1000
 126:Utilities/misc/stm32_systime.c ****   *
 127:Utilities/misc/stm32_systime.c ****   */
 128:Utilities/misc/stm32_systime.c **** #define DIV_APPROX_1000( X )            ( ( ( X ) >> 10 ) +( ( X ) >> 16 ) + ( ( X ) >> 17 ) )
 129:Utilities/misc/stm32_systime.c **** 
 130:Utilities/misc/stm32_systime.c **** /**
 131:Utilities/misc/stm32_systime.c ****   * @brief find the nearest quotient of X/60
 132:Utilities/misc/stm32_systime.c ****   *
 133:Utilities/misc/stm32_systime.c ****   */
 134:Utilities/misc/stm32_systime.c **** #define DIV_APPROX_60( X )              ( ( ( X ) * 17476 ) >> 20 )
 135:Utilities/misc/stm32_systime.c **** 
 136:Utilities/misc/stm32_systime.c **** /**
 137:Utilities/misc/stm32_systime.c ****   * @brief find the nearest quotient of X/61
 138:Utilities/misc/stm32_systime.c ****   *
 139:Utilities/misc/stm32_systime.c ****   */
 140:Utilities/misc/stm32_systime.c **** #define DIV_APPROX_61( X )              ( ( ( X ) * 68759 ) >> 22 )
 141:Utilities/misc/stm32_systime.c **** 
 142:Utilities/misc/stm32_systime.c **** /**
 143:Utilities/misc/stm32_systime.c ****   * @brief Calculates mod(x,7)
 144:Utilities/misc/stm32_systime.c ****   *
 145:Utilities/misc/stm32_systime.c ****   */
 146:Utilities/misc/stm32_systime.c **** #define MODULO_7( X )                 ( ( X ) -( ( ( ( ( X ) + 1 ) * 299593 ) >> 21 ) * 7 ) )
ARM GAS  /tmp/ccViP0k0.s 			page 4


 147:Utilities/misc/stm32_systime.c **** 
 148:Utilities/misc/stm32_systime.c **** /**
 149:Utilities/misc/stm32_systime.c ****   * @brief Calculates ceiling( X / N )
 150:Utilities/misc/stm32_systime.c ****   *
 151:Utilities/misc/stm32_systime.c ****   */
 152:Utilities/misc/stm32_systime.c **** #define DIVC( X, N )                ( ( ( X ) + ( N ) -1 ) / ( N ) )
 153:Utilities/misc/stm32_systime.c **** 
 154:Utilities/misc/stm32_systime.c **** /**
 155:Utilities/misc/stm32_systime.c ****   * @brief Calculates ceiling( X / 4 )
 156:Utilities/misc/stm32_systime.c ****   *
 157:Utilities/misc/stm32_systime.c ****   */
 158:Utilities/misc/stm32_systime.c **** #define DIVC_BY_4( X )                ( ( ( X ) + 3 ) >>2 )
 159:Utilities/misc/stm32_systime.c **** 
 160:Utilities/misc/stm32_systime.c **** /**
 161:Utilities/misc/stm32_systime.c ****   * @brief Calculates ceiling( X / 2 )
 162:Utilities/misc/stm32_systime.c ****   *
 163:Utilities/misc/stm32_systime.c ****   */
 164:Utilities/misc/stm32_systime.c **** #define DIVC_BY_2( X )                ( ( ( X ) + 1 ) >> 1 )
 165:Utilities/misc/stm32_systime.c **** /**
 166:Utilities/misc/stm32_systime.c ****   *  @}
 167:Utilities/misc/stm32_systime.c ****   */
 168:Utilities/misc/stm32_systime.c **** 
 169:Utilities/misc/stm32_systime.c **** /* Private constants -----------------------------------------------------------*/
 170:Utilities/misc/stm32_systime.c **** /**
 171:Utilities/misc/stm32_systime.c ****  * @defgroup SYSTIME_private_variable SYSTIME private constants
 172:Utilities/misc/stm32_systime.c ****  *  @{
 173:Utilities/misc/stm32_systime.c ****  */
 174:Utilities/misc/stm32_systime.c **** const char *WeekDayString[]={ "Sun", "Mon", "Tue", "Wed", "Thu", "Fri", "Sat" };
 175:Utilities/misc/stm32_systime.c **** /**
 176:Utilities/misc/stm32_systime.c ****   *  @}
 177:Utilities/misc/stm32_systime.c ****   */
 178:Utilities/misc/stm32_systime.c **** 
 179:Utilities/misc/stm32_systime.c **** /* Private function prototypes -----------------------------------------------*/
 180:Utilities/misc/stm32_systime.c **** 
 181:Utilities/misc/stm32_systime.c **** /**
 182:Utilities/misc/stm32_systime.c ****  * @defgroup SYSTIME_private_function_prototypes SYSTIME private function prototypes
 183:Utilities/misc/stm32_systime.c ****  *  @{
 184:Utilities/misc/stm32_systime.c ****  */
 185:Utilities/misc/stm32_systime.c **** static uint32_t CalendarGetMonth( uint32_t days, uint32_t year );
 186:Utilities/misc/stm32_systime.c **** static void CalendarDiv86400( uint32_t in, uint32_t* out, uint32_t* remainder );
 187:Utilities/misc/stm32_systime.c **** static uint32_t CalendarDiv61( uint32_t in );
 188:Utilities/misc/stm32_systime.c **** static void CalendarDiv60( uint32_t in, uint32_t* out, uint32_t* remainder );
 189:Utilities/misc/stm32_systime.c **** /**
 190:Utilities/misc/stm32_systime.c ****   *  @}
 191:Utilities/misc/stm32_systime.c ****   */
 192:Utilities/misc/stm32_systime.c **** 
 193:Utilities/misc/stm32_systime.c **** /* Functions Definition ------------------------------------------------------*/
 194:Utilities/misc/stm32_systime.c **** /**
 195:Utilities/misc/stm32_systime.c ****   * @addtogroup SYSTIME_exported_function
 196:Utilities/misc/stm32_systime.c ****   *  @{
 197:Utilities/misc/stm32_systime.c ****   */
 198:Utilities/misc/stm32_systime.c **** 
 199:Utilities/misc/stm32_systime.c **** SysTime_t SysTimeAdd( SysTime_t a, SysTime_t b )
 200:Utilities/misc/stm32_systime.c **** {
 201:Utilities/misc/stm32_systime.c ****   SysTime_t c =  { .Seconds = 0, .SubSeconds = 0 };
 202:Utilities/misc/stm32_systime.c **** 
 203:Utilities/misc/stm32_systime.c ****   c.Seconds = a.Seconds + b.Seconds;
ARM GAS  /tmp/ccViP0k0.s 			page 5


 204:Utilities/misc/stm32_systime.c ****   c.SubSeconds = a.SubSeconds + b.SubSeconds;
 205:Utilities/misc/stm32_systime.c ****   if( c.SubSeconds >= 1000 )
 206:Utilities/misc/stm32_systime.c ****   {
 207:Utilities/misc/stm32_systime.c ****     c.Seconds++;
 208:Utilities/misc/stm32_systime.c ****     c.SubSeconds -= 1000;
 209:Utilities/misc/stm32_systime.c ****   }
 210:Utilities/misc/stm32_systime.c ****   return c;
 211:Utilities/misc/stm32_systime.c **** }
 212:Utilities/misc/stm32_systime.c **** 
 213:Utilities/misc/stm32_systime.c **** SysTime_t SysTimeSub( SysTime_t a, SysTime_t b )
 214:Utilities/misc/stm32_systime.c **** {
 215:Utilities/misc/stm32_systime.c ****   SysTime_t c = { .Seconds = 0, .SubSeconds = 0 };
 216:Utilities/misc/stm32_systime.c **** 
 217:Utilities/misc/stm32_systime.c ****   c.Seconds = a.Seconds - b.Seconds;
 218:Utilities/misc/stm32_systime.c ****   c.SubSeconds = a.SubSeconds - b.SubSeconds;
 219:Utilities/misc/stm32_systime.c ****   if( c.SubSeconds < 0 )
 220:Utilities/misc/stm32_systime.c ****   {
 221:Utilities/misc/stm32_systime.c ****     c.Seconds--;
 222:Utilities/misc/stm32_systime.c ****     c.SubSeconds += 1000;
 223:Utilities/misc/stm32_systime.c ****   }
 224:Utilities/misc/stm32_systime.c ****   return c;
 225:Utilities/misc/stm32_systime.c **** }
 226:Utilities/misc/stm32_systime.c **** 
 227:Utilities/misc/stm32_systime.c **** void SysTimeSet( SysTime_t sysTime )
 228:Utilities/misc/stm32_systime.c **** {
 229:Utilities/misc/stm32_systime.c ****   SysTime_t DeltaTime;
 230:Utilities/misc/stm32_systime.c **** 
 231:Utilities/misc/stm32_systime.c ****   SysTime_t calendarTime = { .Seconds = 0, .SubSeconds = 0 };
 232:Utilities/misc/stm32_systime.c **** 
 233:Utilities/misc/stm32_systime.c ****   calendarTime.Seconds = UTIL_SYSTIMDriver.GetCalendarTime( ( uint16_t* )&calendarTime.SubSeconds )
 234:Utilities/misc/stm32_systime.c **** 
 235:Utilities/misc/stm32_systime.c ****   // sysTime is UNIX epoch
 236:Utilities/misc/stm32_systime.c ****   DeltaTime = SysTimeSub( sysTime, calendarTime );
 237:Utilities/misc/stm32_systime.c **** 
 238:Utilities/misc/stm32_systime.c ****   UTIL_SYSTIMDriver.BKUPWrite_Seconds( DeltaTime.Seconds );
 239:Utilities/misc/stm32_systime.c ****   UTIL_SYSTIMDriver.BKUPWrite_SubSeconds( ( uint32_t ) DeltaTime.SubSeconds );
 240:Utilities/misc/stm32_systime.c **** }
 241:Utilities/misc/stm32_systime.c **** 
 242:Utilities/misc/stm32_systime.c **** SysTime_t SysTimeGet( void )
 243:Utilities/misc/stm32_systime.c **** {
 244:Utilities/misc/stm32_systime.c ****   SysTime_t calendarTime = { .Seconds = 0, .SubSeconds = 0 };
 245:Utilities/misc/stm32_systime.c ****   SysTime_t sysTime = { .Seconds = 0, .SubSeconds = 0 };
 246:Utilities/misc/stm32_systime.c ****   SysTime_t DeltaTime;
 247:Utilities/misc/stm32_systime.c **** 
 248:Utilities/misc/stm32_systime.c ****   calendarTime.Seconds = UTIL_SYSTIMDriver.GetCalendarTime( ( uint16_t* )&calendarTime.SubSeconds )
 249:Utilities/misc/stm32_systime.c **** 
 250:Utilities/misc/stm32_systime.c ****   DeltaTime.SubSeconds = (int16_t)UTIL_SYSTIMDriver.BKUPRead_SubSeconds();
 251:Utilities/misc/stm32_systime.c ****   DeltaTime.Seconds = UTIL_SYSTIMDriver.BKUPRead_Seconds();
 252:Utilities/misc/stm32_systime.c **** 
 253:Utilities/misc/stm32_systime.c ****   sysTime = SysTimeAdd( DeltaTime, calendarTime );
 254:Utilities/misc/stm32_systime.c **** 
 255:Utilities/misc/stm32_systime.c ****   return sysTime;
 256:Utilities/misc/stm32_systime.c **** }
 257:Utilities/misc/stm32_systime.c **** 
 258:Utilities/misc/stm32_systime.c **** 
 259:Utilities/misc/stm32_systime.c **** SysTime_t SysTimeGetMcuTime( void )
 260:Utilities/misc/stm32_systime.c **** {
ARM GAS  /tmp/ccViP0k0.s 			page 6


 261:Utilities/misc/stm32_systime.c ****   SysTime_t calendarTime = { .Seconds = 0, .SubSeconds = 0 };
 262:Utilities/misc/stm32_systime.c **** 
 263:Utilities/misc/stm32_systime.c ****   calendarTime.Seconds = UTIL_SYSTIMDriver.GetCalendarTime( ( uint16_t* )&calendarTime.SubSeconds )
 264:Utilities/misc/stm32_systime.c **** 
 265:Utilities/misc/stm32_systime.c ****   return calendarTime;
 266:Utilities/misc/stm32_systime.c **** }
 267:Utilities/misc/stm32_systime.c **** 
 268:Utilities/misc/stm32_systime.c **** uint32_t SysTimeToMs( SysTime_t sysTime )
 269:Utilities/misc/stm32_systime.c **** {
 270:Utilities/misc/stm32_systime.c ****   SysTime_t DeltaTime;
 271:Utilities/misc/stm32_systime.c ****   DeltaTime.SubSeconds = (int16_t)UTIL_SYSTIMDriver.BKUPRead_SubSeconds();
 272:Utilities/misc/stm32_systime.c ****   DeltaTime.Seconds = UTIL_SYSTIMDriver.BKUPRead_Seconds();
 273:Utilities/misc/stm32_systime.c **** 
 274:Utilities/misc/stm32_systime.c ****   SysTime_t calendarTime = SysTimeSub( sysTime, DeltaTime );
 275:Utilities/misc/stm32_systime.c ****   return calendarTime.Seconds * 1000 + calendarTime.SubSeconds;
 276:Utilities/misc/stm32_systime.c **** }
 277:Utilities/misc/stm32_systime.c **** 
 278:Utilities/misc/stm32_systime.c **** SysTime_t SysTimeFromMs( uint32_t timeMs )
 279:Utilities/misc/stm32_systime.c **** {
 280:Utilities/misc/stm32_systime.c ****   uint32_t seconds = timeMs / 1000;
 281:Utilities/misc/stm32_systime.c ****   SysTime_t sysTime = { .Seconds = seconds, .SubSeconds =  timeMs - seconds * 1000 };
 282:Utilities/misc/stm32_systime.c ****   SysTime_t DeltaTime = { 0 };
 283:Utilities/misc/stm32_systime.c **** 
 284:Utilities/misc/stm32_systime.c ****   DeltaTime.SubSeconds = (int16_t)UTIL_SYSTIMDriver.BKUPRead_SubSeconds();
 285:Utilities/misc/stm32_systime.c ****   DeltaTime.Seconds = UTIL_SYSTIMDriver.BKUPRead_Seconds();
 286:Utilities/misc/stm32_systime.c ****   return SysTimeAdd( sysTime, DeltaTime );
 287:Utilities/misc/stm32_systime.c **** }
 288:Utilities/misc/stm32_systime.c **** 
 289:Utilities/misc/stm32_systime.c **** uint32_t SysTimeMkTime( const struct tm* localtime )
 290:Utilities/misc/stm32_systime.c **** {
 291:Utilities/misc/stm32_systime.c ****   uint32_t nbdays;
 292:Utilities/misc/stm32_systime.c ****   uint32_t nbsecs;
 293:Utilities/misc/stm32_systime.c ****   uint32_t year = localtime->tm_year - CALC_REF_YEAR;
 294:Utilities/misc/stm32_systime.c ****   uint32_t correctionMonth[4] =
 295:Utilities/misc/stm32_systime.c ****   {
 296:Utilities/misc/stm32_systime.c ****     DAYS_IN_MONTH_CORRECTION_LEAP,
 297:Utilities/misc/stm32_systime.c ****     DAYS_IN_MONTH_CORRECTION_NORM,
 298:Utilities/misc/stm32_systime.c ****     DAYS_IN_MONTH_CORRECTION_NORM,
 299:Utilities/misc/stm32_systime.c ****     DAYS_IN_MONTH_CORRECTION_NORM
 300:Utilities/misc/stm32_systime.c ****   };
 301:Utilities/misc/stm32_systime.c **** 
 302:Utilities/misc/stm32_systime.c ****   nbdays = DIVC( ( TM_DAYS_IN_YEAR * 3 + TM_DAYS_IN_LEAP_YEAR ) * year, 4 );
 303:Utilities/misc/stm32_systime.c **** 
 304:Utilities/misc/stm32_systime.c ****   nbdays += ( DIVC_BY_2( ( localtime->tm_mon ) * ( 30 + 31 ) ) -
 305:Utilities/misc/stm32_systime.c ****         ( ( ( correctionMonth[year % 4] >> ( ( localtime->tm_mon ) * 2 ) ) & 0x03 ) ) );
 306:Utilities/misc/stm32_systime.c **** 
 307:Utilities/misc/stm32_systime.c ****   nbdays += ( localtime->tm_mday - 1 );
 308:Utilities/misc/stm32_systime.c **** 
 309:Utilities/misc/stm32_systime.c ****   // Convert from days to seconds
 310:Utilities/misc/stm32_systime.c ****   nbsecs = nbdays * TM_SECONDS_IN_1DAY;
 311:Utilities/misc/stm32_systime.c **** 
 312:Utilities/misc/stm32_systime.c ****   nbsecs += ( ( uint32_t )localtime->tm_sec +
 313:Utilities/misc/stm32_systime.c ****         ( ( uint32_t )localtime->tm_min * TM_SECONDS_IN_1MINUTE ) +
 314:Utilities/misc/stm32_systime.c ****         ( ( uint32_t )localtime->tm_hour * TM_SECONDS_IN_1HOUR ) );
 315:Utilities/misc/stm32_systime.c ****   return nbsecs - CALC_REF_YEAR_TO_UNIX_REF_YEAR_COMPENSATION_IN_SECONDS;
 316:Utilities/misc/stm32_systime.c **** }
 317:Utilities/misc/stm32_systime.c **** 
ARM GAS  /tmp/ccViP0k0.s 			page 7


 318:Utilities/misc/stm32_systime.c **** void SysTimeLocalTime( const uint32_t timestamp, struct tm *localtime )
 319:Utilities/misc/stm32_systime.c **** {
 320:Utilities/misc/stm32_systime.c ****   uint32_t correctionMonth[4] =
 321:Utilities/misc/stm32_systime.c ****   {
 322:Utilities/misc/stm32_systime.c ****     DAYS_IN_MONTH_CORRECTION_LEAP,
 323:Utilities/misc/stm32_systime.c ****     DAYS_IN_MONTH_CORRECTION_NORM,
 324:Utilities/misc/stm32_systime.c ****     DAYS_IN_MONTH_CORRECTION_NORM,
 325:Utilities/misc/stm32_systime.c ****     DAYS_IN_MONTH_CORRECTION_NORM
 326:Utilities/misc/stm32_systime.c ****   };
 327:Utilities/misc/stm32_systime.c ****   uint32_t weekDays = 1; // Monday 1st January 1968
 328:Utilities/misc/stm32_systime.c ****   uint32_t seconds;
 329:Utilities/misc/stm32_systime.c ****   uint32_t minutes;
 330:Utilities/misc/stm32_systime.c ****   uint32_t days;
 331:Utilities/misc/stm32_systime.c ****   uint32_t divOut;
 332:Utilities/misc/stm32_systime.c ****   uint32_t divReminder;
 333:Utilities/misc/stm32_systime.c **** 
 334:Utilities/misc/stm32_systime.c ****   CalendarDiv86400( timestamp + CALC_REF_YEAR_TO_UNIX_REF_YEAR_COMPENSATION_IN_SECONDS, &days, &sec
 335:Utilities/misc/stm32_systime.c **** 
 336:Utilities/misc/stm32_systime.c ****   // Calculates seconds
 337:Utilities/misc/stm32_systime.c ****   CalendarDiv60( seconds, &minutes, &divReminder );
 338:Utilities/misc/stm32_systime.c ****   localtime->tm_sec = ( uint8_t )divReminder;
 339:Utilities/misc/stm32_systime.c **** 
 340:Utilities/misc/stm32_systime.c ****   // Calculates minutes and hours
 341:Utilities/misc/stm32_systime.c ****   CalendarDiv60( minutes, &divOut, &divReminder);
 342:Utilities/misc/stm32_systime.c ****   localtime->tm_min = ( uint8_t )divReminder;
 343:Utilities/misc/stm32_systime.c ****   localtime->tm_hour = ( uint8_t )divOut;
 344:Utilities/misc/stm32_systime.c **** 
 345:Utilities/misc/stm32_systime.c ****   // Calculates year
 346:Utilities/misc/stm32_systime.c ****   localtime->tm_year = DIV_365_25( days );
 347:Utilities/misc/stm32_systime.c ****   days-= DIVC_BY_4( ( TM_DAYS_IN_YEAR * 3 + TM_DAYS_IN_LEAP_YEAR ) * localtime->tm_year );
 348:Utilities/misc/stm32_systime.c **** 
 349:Utilities/misc/stm32_systime.c ****   localtime->tm_yday = days;
 350:Utilities/misc/stm32_systime.c **** 
 351:Utilities/misc/stm32_systime.c ****   // Calculates month
 352:Utilities/misc/stm32_systime.c ****   localtime->tm_mon = CalendarGetMonth( days, localtime->tm_year );
 353:Utilities/misc/stm32_systime.c **** 
 354:Utilities/misc/stm32_systime.c ****   // calculates weekdays
 355:Utilities/misc/stm32_systime.c ****   weekDays += DIVC_BY_4( ( localtime->tm_year * 5 ) );
 356:Utilities/misc/stm32_systime.c ****   weekDays += days;
 357:Utilities/misc/stm32_systime.c ****   localtime->tm_wday = MODULO_7( weekDays );
 358:Utilities/misc/stm32_systime.c **** 
 359:Utilities/misc/stm32_systime.c ****   days -= ( DIVC_BY_2( ( localtime->tm_mon ) * ( 30 + 31 ) ) -
 360:Utilities/misc/stm32_systime.c ****         ( ( ( correctionMonth[localtime->tm_year % 4] >> ( ( localtime->tm_mon ) * 2 ) ) & 0x03 ) )
 361:Utilities/misc/stm32_systime.c **** 
 362:Utilities/misc/stm32_systime.c ****   // Convert 0 to 1 indexed.
 363:Utilities/misc/stm32_systime.c ****   localtime->tm_mday = days + 1;
 364:Utilities/misc/stm32_systime.c **** 
 365:Utilities/misc/stm32_systime.c ****   localtime->tm_year += CALC_REF_YEAR;
 366:Utilities/misc/stm32_systime.c **** 
 367:Utilities/misc/stm32_systime.c ****   localtime->tm_isdst = -1;
 368:Utilities/misc/stm32_systime.c **** }
 369:Utilities/misc/stm32_systime.c **** 
 370:Utilities/misc/stm32_systime.c **** /**
 371:Utilities/misc/stm32_systime.c ****   *  @}
 372:Utilities/misc/stm32_systime.c ****   */
 373:Utilities/misc/stm32_systime.c **** 
 374:Utilities/misc/stm32_systime.c **** /**************************** Private functions *******************************/
ARM GAS  /tmp/ccViP0k0.s 			page 8


 375:Utilities/misc/stm32_systime.c **** 
 376:Utilities/misc/stm32_systime.c **** /**
 377:Utilities/misc/stm32_systime.c ****   *  @addtogroup SYSTIME_private_function
 378:Utilities/misc/stm32_systime.c ****   *
 379:Utilities/misc/stm32_systime.c ****   *  @{
 380:Utilities/misc/stm32_systime.c ****   */
 381:Utilities/misc/stm32_systime.c **** static uint32_t CalendarGetMonth( uint32_t days, uint32_t year )
 382:Utilities/misc/stm32_systime.c **** {
 383:Utilities/misc/stm32_systime.c ****   uint32_t month;
 384:Utilities/misc/stm32_systime.c ****   if( ( year % 4 ) == 0 )
 385:Utilities/misc/stm32_systime.c ****   {   /*leap year*/
 386:Utilities/misc/stm32_systime.c ****     if( days < END_OF_FEBRUARY_LEAP )
 387:Utilities/misc/stm32_systime.c ****     {   // January or February
 388:Utilities/misc/stm32_systime.c ****       // month =  days * 2 / ( 30 + 31 );
 389:Utilities/misc/stm32_systime.c ****       month = CalendarDiv61( days * 2 );
 390:Utilities/misc/stm32_systime.c ****     }
 391:Utilities/misc/stm32_systime.c ****     else if( days < END_OF_JULY_LEAP )
 392:Utilities/misc/stm32_systime.c ****     {
 393:Utilities/misc/stm32_systime.c ****       month = CalendarDiv61( ( days - END_OF_FEBRUARY_LEAP ) * 2 ) + 2;
 394:Utilities/misc/stm32_systime.c ****     }
 395:Utilities/misc/stm32_systime.c ****     else
 396:Utilities/misc/stm32_systime.c ****     {
 397:Utilities/misc/stm32_systime.c ****       month = CalendarDiv61( ( days - END_OF_JULY_LEAP ) * 2 ) + 7;
 398:Utilities/misc/stm32_systime.c ****     }
 399:Utilities/misc/stm32_systime.c ****   }
 400:Utilities/misc/stm32_systime.c ****   else
 401:Utilities/misc/stm32_systime.c ****   {
 402:Utilities/misc/stm32_systime.c ****     if( days < END_OF_FEBRUARY_NORM )
 403:Utilities/misc/stm32_systime.c ****     {   // January or February
 404:Utilities/misc/stm32_systime.c ****       month = CalendarDiv61( days * 2 );
 405:Utilities/misc/stm32_systime.c ****     }
 406:Utilities/misc/stm32_systime.c ****     else if( days < END_OF_JULY_NORM )
 407:Utilities/misc/stm32_systime.c ****     {
 408:Utilities/misc/stm32_systime.c ****       month = CalendarDiv61( ( days - END_OF_FEBRUARY_NORM ) * 2 ) + 2;
 409:Utilities/misc/stm32_systime.c ****     }
 410:Utilities/misc/stm32_systime.c ****     else
 411:Utilities/misc/stm32_systime.c ****     {
 412:Utilities/misc/stm32_systime.c ****       month = CalendarDiv61( ( days - END_OF_JULY_NORM ) * 2 ) + 7;
 413:Utilities/misc/stm32_systime.c ****     }
 414:Utilities/misc/stm32_systime.c ****   }
 415:Utilities/misc/stm32_systime.c ****   return month;
 416:Utilities/misc/stm32_systime.c **** }
 417:Utilities/misc/stm32_systime.c **** 
 418:Utilities/misc/stm32_systime.c **** static void CalendarDiv86400( uint32_t in, uint32_t* out, uint32_t* remainder )
 419:Utilities/misc/stm32_systime.c **** {
  27              		.loc 1 419 1 view -0
  28              		.cfi_startproc
  29              		@ args = 0, pretend = 0, frame = 0
  30              		@ frame_needed = 0, uses_anonymous_args = 0
  31              		@ link register save eliminated.
  32              		.loc 1 419 1 is_stmt 0 view .LVU1
  33 0000 30B4     		push	{r4, r5}
  34              		.cfi_def_cfa_offset 8
  35              		.cfi_offset 4, -8
  36              		.cfi_offset 5, -4
 420:Utilities/misc/stm32_systime.c **** #if 0
 421:Utilities/misc/stm32_systime.c ****   *remainder = in % SECONDS_IN_1DAY;
ARM GAS  /tmp/ccViP0k0.s 			page 9


 422:Utilities/misc/stm32_systime.c ****   *out     = in / SECONDS_IN_1DAY;
 423:Utilities/misc/stm32_systime.c **** #else
 424:Utilities/misc/stm32_systime.c ****   uint32_t outTemp = 0;
  37              		.loc 1 424 3 is_stmt 1 view .LVU2
  38              	.LVL1:
 425:Utilities/misc/stm32_systime.c ****   uint32_t divResult = DIV_APPROX_86400( in );
  39              		.loc 1 425 3 view .LVU3
  40              		.loc 1 425 24 is_stmt 0 view .LVU4
  41 0002 430C     		lsrs	r3, r0, #17
  42              		.loc 1 425 12 view .LVU5
  43 0004 03EB9043 		add	r3, r3, r0, lsr #18
  44              	.LVL2:
 426:Utilities/misc/stm32_systime.c **** 
 427:Utilities/misc/stm32_systime.c ****   while( divResult >=1 )
  45              		.loc 1 427 3 is_stmt 1 view .LVU6
 424:Utilities/misc/stm32_systime.c ****   uint32_t divResult = DIV_APPROX_86400( in );
  46              		.loc 1 424 12 is_stmt 0 view .LVU7
  47 0008 0024     		movs	r4, #0
  48              		.loc 1 427 8 view .LVU8
  49 000a 06E0     		b	.L2
  50              	.LVL3:
  51              	.L3:
 428:Utilities/misc/stm32_systime.c ****   {
 429:Utilities/misc/stm32_systime.c ****     outTemp += divResult;
  52              		.loc 1 429 5 is_stmt 1 view .LVU9
  53              		.loc 1 429 13 is_stmt 0 view .LVU10
  54 000c 1C44     		add	r4, r4, r3
  55              	.LVL4:
 430:Utilities/misc/stm32_systime.c ****     in -= divResult * 86400;
  56              		.loc 1 430 5 is_stmt 1 view .LVU11
  57              		.loc 1 430 8 is_stmt 0 view .LVU12
  58 000e 0A4D     		ldr	r5, .L6
  59 0010 05FB1300 		mls	r0, r5, r3, r0
  60              	.LVL5:
 431:Utilities/misc/stm32_systime.c ****     divResult= DIV_APPROX_86400( in );
  61              		.loc 1 431 5 is_stmt 1 view .LVU13
  62              		.loc 1 431 16 is_stmt 0 view .LVU14
  63 0014 430C     		lsrs	r3, r0, #17
  64              	.LVL6:
  65              		.loc 1 431 14 view .LVU15
  66 0016 03EB9043 		add	r3, r3, r0, lsr #18
  67              	.LVL7:
  68              	.L2:
 427:Utilities/misc/stm32_systime.c ****   {
  69              		.loc 1 427 20 is_stmt 1 view .LVU16
  70 001a 002B     		cmp	r3, #0
  71 001c F6D1     		bne	.L3
 432:Utilities/misc/stm32_systime.c ****   }
 433:Utilities/misc/stm32_systime.c ****   if( in >= 86400 )
  72              		.loc 1 433 3 view .LVU17
  73              		.loc 1 433 5 is_stmt 0 view .LVU18
  74 001e 074B     		ldr	r3, .L6+4
  75              	.LVL8:
  76              		.loc 1 433 5 view .LVU19
  77 0020 9842     		cmp	r0, r3
  78 0022 04D9     		bls	.L4
 434:Utilities/misc/stm32_systime.c ****   {
ARM GAS  /tmp/ccViP0k0.s 			page 10


 435:Utilities/misc/stm32_systime.c ****     outTemp += 1;
  79              		.loc 1 435 5 is_stmt 1 view .LVU20
  80              		.loc 1 435 13 is_stmt 0 view .LVU21
  81 0024 0134     		adds	r4, r4, #1
  82              	.LVL9:
 436:Utilities/misc/stm32_systime.c ****     in -= 86400;
  83              		.loc 1 436 5 is_stmt 1 view .LVU22
  84              		.loc 1 436 8 is_stmt 0 view .LVU23
  85 0026 A0F5A830 		sub	r0, r0, #86016
  86              	.LVL10:
  87              		.loc 1 436 8 view .LVU24
  88 002a A0F5C070 		sub	r0, r0, #384
  89              	.LVL11:
  90              	.L4:
 437:Utilities/misc/stm32_systime.c ****   }
 438:Utilities/misc/stm32_systime.c **** 
 439:Utilities/misc/stm32_systime.c ****   *remainder = in;
  91              		.loc 1 439 3 is_stmt 1 view .LVU25
  92              		.loc 1 439 14 is_stmt 0 view .LVU26
  93 002e 1060     		str	r0, [r2]
 440:Utilities/misc/stm32_systime.c ****   *out = outTemp;
  94              		.loc 1 440 3 is_stmt 1 view .LVU27
  95              		.loc 1 440 8 is_stmt 0 view .LVU28
  96 0030 0C60     		str	r4, [r1]
 441:Utilities/misc/stm32_systime.c **** #endif
 442:Utilities/misc/stm32_systime.c **** }
  97              		.loc 1 442 1 view .LVU29
  98 0032 30BC     		pop	{r4, r5}
  99              		.cfi_restore 5
 100              		.cfi_restore 4
 101              		.cfi_def_cfa_offset 0
 102              	.LVL12:
 103              		.loc 1 442 1 view .LVU30
 104 0034 7047     		bx	lr
 105              	.L7:
 106 0036 00BF     		.align	2
 107              	.L6:
 108 0038 80510100 		.word	86400
 109 003c 7F510100 		.word	86399
 110              		.cfi_endproc
 111              	.LFE13:
 113              		.section	.text.CalendarDiv61,"ax",%progbits
 114              		.align	1
 115              		.syntax unified
 116              		.thumb
 117              		.thumb_func
 119              	CalendarDiv61:
 120              	.LVL13:
 121              	.LFB14:
 443:Utilities/misc/stm32_systime.c **** 
 444:Utilities/misc/stm32_systime.c **** static uint32_t CalendarDiv61( uint32_t in )
 445:Utilities/misc/stm32_systime.c **** {
 122              		.loc 1 445 1 is_stmt 1 view -0
 123              		.cfi_startproc
 124              		@ args = 0, pretend = 0, frame = 0
 125              		@ frame_needed = 0, uses_anonymous_args = 0
 126              		@ link register save eliminated.
ARM GAS  /tmp/ccViP0k0.s 			page 11


 127              		.loc 1 445 1 is_stmt 0 view .LVU32
 128 0000 0246     		mov	r2, r0
 446:Utilities/misc/stm32_systime.c **** #if 0
 447:Utilities/misc/stm32_systime.c ****   return( in / 61 );
 448:Utilities/misc/stm32_systime.c **** #else
 449:Utilities/misc/stm32_systime.c ****   uint32_t outTemp = 0;
 129              		.loc 1 449 3 is_stmt 1 view .LVU33
 130              	.LVL14:
 450:Utilities/misc/stm32_systime.c ****   uint32_t divResult = DIV_APPROX_61( in );
 131              		.loc 1 450 3 view .LVU34
 132              		.loc 1 450 24 is_stmt 0 view .LVU35
 133 0002 0B4B     		ldr	r3, .L12
 134 0004 00FB03F3 		mul	r3, r0, r3
 135              		.loc 1 450 12 view .LVU36
 136 0008 9B0D     		lsrs	r3, r3, #22
 137              	.LVL15:
 451:Utilities/misc/stm32_systime.c ****   while( divResult >=1 )
 138              		.loc 1 451 3 is_stmt 1 view .LVU37
 449:Utilities/misc/stm32_systime.c ****   uint32_t divResult = DIV_APPROX_61( in );
 139              		.loc 1 449 12 is_stmt 0 view .LVU38
 140 000a 0020     		movs	r0, #0
 141              	.LVL16:
 142              		.loc 1 451 8 view .LVU39
 143 000c 09E0     		b	.L9
 144              	.LVL17:
 145              	.L10:
 452:Utilities/misc/stm32_systime.c ****   {
 453:Utilities/misc/stm32_systime.c ****     outTemp += divResult;
 146              		.loc 1 453 5 is_stmt 1 view .LVU40
 147              		.loc 1 453 13 is_stmt 0 view .LVU41
 148 000e 1844     		add	r0, r0, r3
 149              	.LVL18:
 454:Utilities/misc/stm32_systime.c ****     in -= divResult * 61;
 150              		.loc 1 454 5 is_stmt 1 view .LVU42
 151              		.loc 1 454 21 is_stmt 0 view .LVU43
 152 0010 C3EB0311 		rsb	r1, r3, r3, lsl #4
 153 0014 03EB8103 		add	r3, r3, r1, lsl #2
 154              	.LVL19:
 155              		.loc 1 454 8 view .LVU44
 156 0018 D21A     		subs	r2, r2, r3
 157              	.LVL20:
 455:Utilities/misc/stm32_systime.c ****     divResult = DIV_APPROX_61( in );
 158              		.loc 1 455 5 is_stmt 1 view .LVU45
 159              		.loc 1 455 17 is_stmt 0 view .LVU46
 160 001a 054B     		ldr	r3, .L12
 161 001c 02FB03F3 		mul	r3, r2, r3
 162              		.loc 1 455 15 view .LVU47
 163 0020 9B0D     		lsrs	r3, r3, #22
 164              	.LVL21:
 165              	.L9:
 451:Utilities/misc/stm32_systime.c ****   {
 166              		.loc 1 451 20 is_stmt 1 view .LVU48
 167 0022 002B     		cmp	r3, #0
 168 0024 F3D1     		bne	.L10
 456:Utilities/misc/stm32_systime.c ****   }
 457:Utilities/misc/stm32_systime.c ****   if( in >= 61 )
 169              		.loc 1 457 3 view .LVU49
ARM GAS  /tmp/ccViP0k0.s 			page 12


 170              		.loc 1 457 5 is_stmt 0 view .LVU50
 171 0026 3C2A     		cmp	r2, #60
 172 0028 00D9     		bls	.L8
 458:Utilities/misc/stm32_systime.c ****   {
 459:Utilities/misc/stm32_systime.c ****     outTemp += 1;
 173              		.loc 1 459 5 is_stmt 1 view .LVU51
 174              		.loc 1 459 13 is_stmt 0 view .LVU52
 175 002a 0130     		adds	r0, r0, #1
 176              	.LVL22:
 460:Utilities/misc/stm32_systime.c ****     in -= 61;
 177              		.loc 1 460 5 is_stmt 1 view .LVU53
 461:Utilities/misc/stm32_systime.c ****   }
 462:Utilities/misc/stm32_systime.c ****   return outTemp;
 178              		.loc 1 462 3 view .LVU54
 179              	.L8:
 463:Utilities/misc/stm32_systime.c **** #endif
 464:Utilities/misc/stm32_systime.c **** }
 180              		.loc 1 464 1 is_stmt 0 view .LVU55
 181 002c 7047     		bx	lr
 182              	.L13:
 183 002e 00BF     		.align	2
 184              	.L12:
 185 0030 970C0100 		.word	68759
 186              		.cfi_endproc
 187              	.LFE14:
 189              		.section	.text.CalendarGetMonth,"ax",%progbits
 190              		.align	1
 191              		.syntax unified
 192              		.thumb
 193              		.thumb_func
 195              	CalendarGetMonth:
 196              	.LVL23:
 197              	.LFB12:
 382:Utilities/misc/stm32_systime.c ****   uint32_t month;
 198              		.loc 1 382 1 is_stmt 1 view -0
 199              		.cfi_startproc
 200              		@ args = 0, pretend = 0, frame = 0
 201              		@ frame_needed = 0, uses_anonymous_args = 0
 382:Utilities/misc/stm32_systime.c ****   uint32_t month;
 202              		.loc 1 382 1 is_stmt 0 view .LVU57
 203 0000 08B5     		push	{r3, lr}
 204              		.cfi_def_cfa_offset 8
 205              		.cfi_offset 3, -8
 206              		.cfi_offset 14, -4
 383:Utilities/misc/stm32_systime.c ****   if( ( year % 4 ) == 0 )
 207              		.loc 1 383 3 is_stmt 1 view .LVU58
 384:Utilities/misc/stm32_systime.c ****   {   /*leap year*/
 208              		.loc 1 384 3 view .LVU59
 384:Utilities/misc/stm32_systime.c ****   {   /*leap year*/
 209              		.loc 1 384 5 is_stmt 0 view .LVU60
 210 0002 11F0030F 		tst	r1, #3
 211 0006 13D1     		bne	.L15
 386:Utilities/misc/stm32_systime.c ****     {   // January or February
 212              		.loc 1 386 5 is_stmt 1 view .LVU61
 386:Utilities/misc/stm32_systime.c ****     {   // January or February
 213              		.loc 1 386 7 is_stmt 0 view .LVU62
 214 0008 3B28     		cmp	r0, #59
ARM GAS  /tmp/ccViP0k0.s 			page 13


 215 000a 07D9     		bls	.L22
 391:Utilities/misc/stm32_systime.c ****     {
 216              		.loc 1 391 10 is_stmt 1 view .LVU63
 391:Utilities/misc/stm32_systime.c ****     {
 217              		.loc 1 391 12 is_stmt 0 view .LVU64
 218 000c D428     		cmp	r0, #212
 219 000e 09D8     		bhi	.L18
 393:Utilities/misc/stm32_systime.c ****     }
 220              		.loc 1 393 7 is_stmt 1 view .LVU65
 393:Utilities/misc/stm32_systime.c ****     }
 221              		.loc 1 393 37 is_stmt 0 view .LVU66
 222 0010 3C38     		subs	r0, r0, #60
 223              	.LVL24:
 393:Utilities/misc/stm32_systime.c ****     }
 224              		.loc 1 393 15 view .LVU67
 225 0012 4000     		lsls	r0, r0, #1
 226              	.LVL25:
 393:Utilities/misc/stm32_systime.c ****     }
 227              		.loc 1 393 15 view .LVU68
 228 0014 FFF7FEFF 		bl	CalendarDiv61
 229              	.LVL26:
 393:Utilities/misc/stm32_systime.c ****     }
 230              		.loc 1 393 13 discriminator 1 view .LVU69
 231 0018 0230     		adds	r0, r0, #2
 232              	.LVL27:
 233              	.L14:
 416:Utilities/misc/stm32_systime.c **** 
 234              		.loc 1 416 1 view .LVU70
 235 001a 08BD     		pop	{r3, pc}
 236              	.LVL28:
 237              	.L22:
 389:Utilities/misc/stm32_systime.c ****     }
 238              		.loc 1 389 7 is_stmt 1 view .LVU71
 389:Utilities/misc/stm32_systime.c ****     }
 239              		.loc 1 389 15 is_stmt 0 view .LVU72
 240 001c 4000     		lsls	r0, r0, #1
 241              	.LVL29:
 389:Utilities/misc/stm32_systime.c ****     }
 242              		.loc 1 389 15 view .LVU73
 243 001e FFF7FEFF 		bl	CalendarDiv61
 244              	.LVL30:
 389:Utilities/misc/stm32_systime.c ****     }
 245              		.loc 1 389 15 view .LVU74
 246 0022 FAE7     		b	.L14
 247              	.LVL31:
 248              	.L18:
 397:Utilities/misc/stm32_systime.c ****     }
 249              		.loc 1 397 7 is_stmt 1 view .LVU75
 397:Utilities/misc/stm32_systime.c ****     }
 250              		.loc 1 397 37 is_stmt 0 view .LVU76
 251 0024 D538     		subs	r0, r0, #213
 252              	.LVL32:
 397:Utilities/misc/stm32_systime.c ****     }
 253              		.loc 1 397 15 view .LVU77
 254 0026 4000     		lsls	r0, r0, #1
 255              	.LVL33:
 397:Utilities/misc/stm32_systime.c ****     }
ARM GAS  /tmp/ccViP0k0.s 			page 14


 256              		.loc 1 397 15 view .LVU78
 257 0028 FFF7FEFF 		bl	CalendarDiv61
 258              	.LVL34:
 397:Utilities/misc/stm32_systime.c ****     }
 259              		.loc 1 397 13 discriminator 1 view .LVU79
 260 002c 0730     		adds	r0, r0, #7
 261              	.LVL35:
 397:Utilities/misc/stm32_systime.c ****     }
 262              		.loc 1 397 13 discriminator 1 view .LVU80
 263 002e F4E7     		b	.L14
 264              	.LVL36:
 265              	.L15:
 402:Utilities/misc/stm32_systime.c ****     {   // January or February
 266              		.loc 1 402 5 is_stmt 1 view .LVU81
 402:Utilities/misc/stm32_systime.c ****     {   // January or February
 267              		.loc 1 402 7 is_stmt 0 view .LVU82
 268 0030 3A28     		cmp	r0, #58
 269 0032 07D9     		bls	.L23
 406:Utilities/misc/stm32_systime.c ****     {
 270              		.loc 1 406 10 is_stmt 1 view .LVU83
 406:Utilities/misc/stm32_systime.c ****     {
 271              		.loc 1 406 12 is_stmt 0 view .LVU84
 272 0034 D328     		cmp	r0, #211
 273 0036 09D8     		bhi	.L20
 408:Utilities/misc/stm32_systime.c ****     }
 274              		.loc 1 408 7 is_stmt 1 view .LVU85
 408:Utilities/misc/stm32_systime.c ****     }
 275              		.loc 1 408 37 is_stmt 0 view .LVU86
 276 0038 3B38     		subs	r0, r0, #59
 277              	.LVL37:
 408:Utilities/misc/stm32_systime.c ****     }
 278              		.loc 1 408 15 view .LVU87
 279 003a 4000     		lsls	r0, r0, #1
 280              	.LVL38:
 408:Utilities/misc/stm32_systime.c ****     }
 281              		.loc 1 408 15 view .LVU88
 282 003c FFF7FEFF 		bl	CalendarDiv61
 283              	.LVL39:
 408:Utilities/misc/stm32_systime.c ****     }
 284              		.loc 1 408 13 discriminator 1 view .LVU89
 285 0040 0230     		adds	r0, r0, #2
 286              	.LVL40:
 408:Utilities/misc/stm32_systime.c ****     }
 287              		.loc 1 408 13 discriminator 1 view .LVU90
 288 0042 EAE7     		b	.L14
 289              	.LVL41:
 290              	.L23:
 404:Utilities/misc/stm32_systime.c ****     }
 291              		.loc 1 404 7 is_stmt 1 view .LVU91
 404:Utilities/misc/stm32_systime.c ****     }
 292              		.loc 1 404 15 is_stmt 0 view .LVU92
 293 0044 4000     		lsls	r0, r0, #1
 294              	.LVL42:
 404:Utilities/misc/stm32_systime.c ****     }
 295              		.loc 1 404 15 view .LVU93
 296 0046 FFF7FEFF 		bl	CalendarDiv61
 297              	.LVL43:
ARM GAS  /tmp/ccViP0k0.s 			page 15


 404:Utilities/misc/stm32_systime.c ****     }
 298              		.loc 1 404 15 view .LVU94
 299 004a E6E7     		b	.L14
 300              	.LVL44:
 301              	.L20:
 412:Utilities/misc/stm32_systime.c ****     }
 302              		.loc 1 412 7 is_stmt 1 view .LVU95
 412:Utilities/misc/stm32_systime.c ****     }
 303              		.loc 1 412 37 is_stmt 0 view .LVU96
 304 004c D438     		subs	r0, r0, #212
 305              	.LVL45:
 412:Utilities/misc/stm32_systime.c ****     }
 306              		.loc 1 412 15 view .LVU97
 307 004e 4000     		lsls	r0, r0, #1
 308              	.LVL46:
 412:Utilities/misc/stm32_systime.c ****     }
 309              		.loc 1 412 15 view .LVU98
 310 0050 FFF7FEFF 		bl	CalendarDiv61
 311              	.LVL47:
 412:Utilities/misc/stm32_systime.c ****     }
 312              		.loc 1 412 13 discriminator 1 view .LVU99
 313 0054 0730     		adds	r0, r0, #7
 314              	.LVL48:
 415:Utilities/misc/stm32_systime.c **** }
 315              		.loc 1 415 3 is_stmt 1 view .LVU100
 415:Utilities/misc/stm32_systime.c **** }
 316              		.loc 1 415 10 is_stmt 0 view .LVU101
 317 0056 E0E7     		b	.L14
 318              		.cfi_endproc
 319              	.LFE12:
 321              		.section	.text.CalendarDiv60,"ax",%progbits
 322              		.align	1
 323              		.syntax unified
 324              		.thumb
 325              		.thumb_func
 327              	CalendarDiv60:
 328              	.LVL49:
 329              	.LFB15:
 465:Utilities/misc/stm32_systime.c **** 
 466:Utilities/misc/stm32_systime.c **** static void CalendarDiv60( uint32_t in, uint32_t* out, uint32_t* remainder )
 467:Utilities/misc/stm32_systime.c **** {
 330              		.loc 1 467 1 is_stmt 1 view -0
 331              		.cfi_startproc
 332              		@ args = 0, pretend = 0, frame = 0
 333              		@ frame_needed = 0, uses_anonymous_args = 0
 334              		@ link register save eliminated.
 335              		.loc 1 467 1 is_stmt 0 view .LVU103
 336 0000 10B4     		push	{r4}
 337              		.cfi_def_cfa_offset 4
 338              		.cfi_offset 4, -4
 468:Utilities/misc/stm32_systime.c **** #if 0
 469:Utilities/misc/stm32_systime.c ****   *remainder = in % 60;
 470:Utilities/misc/stm32_systime.c ****   *out     = in / 60;
 471:Utilities/misc/stm32_systime.c **** #else
 472:Utilities/misc/stm32_systime.c ****   uint32_t outTemp = 0;
 339              		.loc 1 472 3 is_stmt 1 view .LVU104
 340              	.LVL50:
ARM GAS  /tmp/ccViP0k0.s 			page 16


 473:Utilities/misc/stm32_systime.c ****   uint32_t divResult = DIV_APPROX_60( in );
 341              		.loc 1 473 3 view .LVU105
 342              		.loc 1 473 24 is_stmt 0 view .LVU106
 343 0002 44F24443 		movw	r3, #17476
 344 0006 00FB03F3 		mul	r3, r0, r3
 345              		.loc 1 473 12 view .LVU107
 346 000a 1B0D     		lsrs	r3, r3, #20
 347              	.LVL51:
 474:Utilities/misc/stm32_systime.c **** 
 475:Utilities/misc/stm32_systime.c ****   while( divResult >=1 )
 348              		.loc 1 475 3 is_stmt 1 view .LVU108
 472:Utilities/misc/stm32_systime.c ****   uint32_t divResult = DIV_APPROX_60( in );
 349              		.loc 1 472 12 is_stmt 0 view .LVU109
 350 000c 0024     		movs	r4, #0
 351              		.loc 1 475 8 view .LVU110
 352 000e 09E0     		b	.L25
 353              	.LVL52:
 354              	.L26:
 476:Utilities/misc/stm32_systime.c ****   {
 477:Utilities/misc/stm32_systime.c ****     outTemp += divResult;
 355              		.loc 1 477 5 is_stmt 1 view .LVU111
 356              		.loc 1 477 13 is_stmt 0 view .LVU112
 357 0010 1C44     		add	r4, r4, r3
 358              	.LVL53:
 478:Utilities/misc/stm32_systime.c ****     in -= divResult * 60;
 359              		.loc 1 478 5 is_stmt 1 view .LVU113
 360              		.loc 1 478 21 is_stmt 0 view .LVU114
 361 0012 C3EB0313 		rsb	r3, r3, r3, lsl #4
 362              	.LVL54:
 363              		.loc 1 478 8 view .LVU115
 364 0016 A0EB8300 		sub	r0, r0, r3, lsl #2
 365              	.LVL55:
 479:Utilities/misc/stm32_systime.c ****     divResult = DIV_APPROX_60( in );
 366              		.loc 1 479 5 is_stmt 1 view .LVU116
 367              		.loc 1 479 17 is_stmt 0 view .LVU117
 368 001a 44F24443 		movw	r3, #17476
 369 001e 00FB03F3 		mul	r3, r0, r3
 370              		.loc 1 479 15 view .LVU118
 371 0022 1B0D     		lsrs	r3, r3, #20
 372              	.LVL56:
 373              	.L25:
 475:Utilities/misc/stm32_systime.c ****   {
 374              		.loc 1 475 20 is_stmt 1 view .LVU119
 375 0024 002B     		cmp	r3, #0
 376 0026 F3D1     		bne	.L26
 480:Utilities/misc/stm32_systime.c ****   }
 481:Utilities/misc/stm32_systime.c ****   if( in >= 60 )
 377              		.loc 1 481 3 view .LVU120
 378              		.loc 1 481 5 is_stmt 0 view .LVU121
 379 0028 3B28     		cmp	r0, #59
 380 002a 01D9     		bls	.L27
 482:Utilities/misc/stm32_systime.c ****   {
 483:Utilities/misc/stm32_systime.c ****     outTemp += 1;
 381              		.loc 1 483 5 is_stmt 1 view .LVU122
 382              		.loc 1 483 13 is_stmt 0 view .LVU123
 383 002c 0134     		adds	r4, r4, #1
 384              	.LVL57:
ARM GAS  /tmp/ccViP0k0.s 			page 17


 484:Utilities/misc/stm32_systime.c ****     in -= 60;
 385              		.loc 1 484 5 is_stmt 1 view .LVU124
 386              		.loc 1 484 8 is_stmt 0 view .LVU125
 387 002e 3C38     		subs	r0, r0, #60
 388              	.LVL58:
 389              	.L27:
 485:Utilities/misc/stm32_systime.c ****   }
 486:Utilities/misc/stm32_systime.c ****   *remainder = in;
 390              		.loc 1 486 3 is_stmt 1 view .LVU126
 391              		.loc 1 486 14 is_stmt 0 view .LVU127
 392 0030 1060     		str	r0, [r2]
 487:Utilities/misc/stm32_systime.c ****   *out = outTemp;
 393              		.loc 1 487 3 is_stmt 1 view .LVU128
 394              		.loc 1 487 8 is_stmt 0 view .LVU129
 395 0032 0C60     		str	r4, [r1]
 488:Utilities/misc/stm32_systime.c **** #endif
 489:Utilities/misc/stm32_systime.c **** }
 396              		.loc 1 489 1 view .LVU130
 397 0034 10BC     		pop	{r4}
 398              		.cfi_restore 4
 399              		.cfi_def_cfa_offset 0
 400              	.LVL59:
 401              		.loc 1 489 1 view .LVU131
 402 0036 7047     		bx	lr
 403              		.cfi_endproc
 404              	.LFE15:
 406              		.section	.text.SysTimeAdd,"ax",%progbits
 407              		.align	1
 408              		.global	SysTimeAdd
 409              		.syntax unified
 410              		.thumb
 411              		.thumb_func
 413              	SysTimeAdd:
 414              	.LVL60:
 415              	.LFB3:
 200:Utilities/misc/stm32_systime.c ****   SysTime_t c =  { .Seconds = 0, .SubSeconds = 0 };
 416              		.loc 1 200 1 is_stmt 1 view -0
 417              		.cfi_startproc
 418              		@ args = 12, pretend = 8, frame = 8
 419              		@ frame_needed = 0, uses_anonymous_args = 0
 420              		@ link register save eliminated.
 200:Utilities/misc/stm32_systime.c ****   SysTime_t c =  { .Seconds = 0, .SubSeconds = 0 };
 421              		.loc 1 200 1 is_stmt 0 view .LVU133
 422 0000 82B0     		sub	sp, sp, #8
 423              		.cfi_def_cfa_offset 8
 424 0002 82B0     		sub	sp, sp, #8
 425              		.cfi_def_cfa_offset 16
 426 0004 0DF1080C 		add	ip, sp, #8
 427 0008 0CE90600 		stmdb	ip, {r1, r2}
 428 000c 0393     		str	r3, [sp, #12]
 201:Utilities/misc/stm32_systime.c **** 
 429              		.loc 1 201 3 is_stmt 1 view .LVU134
 201:Utilities/misc/stm32_systime.c **** 
 430              		.loc 1 201 13 is_stmt 0 view .LVU135
 431 000e 0022     		movs	r2, #0
 432 0010 0260     		str	r2, [r0]
 433 0012 8280     		strh	r2, [r0, #4]	@ movhi
ARM GAS  /tmp/ccViP0k0.s 			page 18


 203:Utilities/misc/stm32_systime.c ****   c.SubSeconds = a.SubSeconds + b.SubSeconds;
 434              		.loc 1 203 3 is_stmt 1 view .LVU136
 203:Utilities/misc/stm32_systime.c ****   c.SubSeconds = a.SubSeconds + b.SubSeconds;
 435              		.loc 1 203 25 is_stmt 0 view .LVU137
 436 0014 0B44     		add	r3, r3, r1
 203:Utilities/misc/stm32_systime.c ****   c.SubSeconds = a.SubSeconds + b.SubSeconds;
 437              		.loc 1 203 13 view .LVU138
 438 0016 0360     		str	r3, [r0]
 204:Utilities/misc/stm32_systime.c ****   if( c.SubSeconds >= 1000 )
 439              		.loc 1 204 3 is_stmt 1 view .LVU139
 204:Utilities/misc/stm32_systime.c ****   if( c.SubSeconds >= 1000 )
 440              		.loc 1 204 19 is_stmt 0 view .LVU140
 441 0018 BDF80420 		ldrh	r2, [sp, #4]
 204:Utilities/misc/stm32_systime.c ****   if( c.SubSeconds >= 1000 )
 442              		.loc 1 204 34 view .LVU141
 443 001c BDF81010 		ldrh	r1, [sp, #16]
 204:Utilities/misc/stm32_systime.c ****   if( c.SubSeconds >= 1000 )
 444              		.loc 1 204 31 view .LVU142
 445 0020 0A44     		add	r2, r2, r1
 446 0022 91B2     		uxth	r1, r2
 447 0024 12B2     		sxth	r2, r2
 204:Utilities/misc/stm32_systime.c ****   if( c.SubSeconds >= 1000 )
 448              		.loc 1 204 16 view .LVU143
 449 0026 8280     		strh	r2, [r0, #4]	@ movhi
 205:Utilities/misc/stm32_systime.c ****   {
 450              		.loc 1 205 3 is_stmt 1 view .LVU144
 205:Utilities/misc/stm32_systime.c ****   {
 451              		.loc 1 205 5 is_stmt 0 view .LVU145
 452 0028 B2F57A7F 		cmp	r2, #1000
 453 002c 04DB     		blt	.L29
 207:Utilities/misc/stm32_systime.c ****     c.SubSeconds -= 1000;
 454              		.loc 1 207 5 is_stmt 1 view .LVU146
 207:Utilities/misc/stm32_systime.c ****     c.SubSeconds -= 1000;
 455              		.loc 1 207 14 is_stmt 0 view .LVU147
 456 002e 0133     		adds	r3, r3, #1
 457 0030 0360     		str	r3, [r0]
 208:Utilities/misc/stm32_systime.c ****   }
 458              		.loc 1 208 5 is_stmt 1 view .LVU148
 208:Utilities/misc/stm32_systime.c ****   }
 459              		.loc 1 208 18 is_stmt 0 view .LVU149
 460 0032 A1F57A71 		sub	r1, r1, #1000
 461 0036 8180     		strh	r1, [r0, #4]	@ movhi
 210:Utilities/misc/stm32_systime.c **** }
 462              		.loc 1 210 3 is_stmt 1 view .LVU150
 463              	.L29:
 211:Utilities/misc/stm32_systime.c **** 
 464              		.loc 1 211 1 is_stmt 0 view .LVU151
 465 0038 02B0     		add	sp, sp, #8
 466              		.cfi_def_cfa_offset 8
 467              		@ sp needed
 468 003a 02B0     		add	sp, sp, #8
 469              		.cfi_def_cfa_offset 0
 470 003c 7047     		bx	lr
 471              		.cfi_endproc
 472              	.LFE3:
 474              		.section	.text.SysTimeSub,"ax",%progbits
 475              		.align	1
ARM GAS  /tmp/ccViP0k0.s 			page 19


 476              		.global	SysTimeSub
 477              		.syntax unified
 478              		.thumb
 479              		.thumb_func
 481              	SysTimeSub:
 482              	.LVL61:
 483              	.LFB4:
 214:Utilities/misc/stm32_systime.c ****   SysTime_t c = { .Seconds = 0, .SubSeconds = 0 };
 484              		.loc 1 214 1 is_stmt 1 view -0
 485              		.cfi_startproc
 486              		@ args = 12, pretend = 8, frame = 8
 487              		@ frame_needed = 0, uses_anonymous_args = 0
 488              		@ link register save eliminated.
 214:Utilities/misc/stm32_systime.c ****   SysTime_t c = { .Seconds = 0, .SubSeconds = 0 };
 489              		.loc 1 214 1 is_stmt 0 view .LVU153
 490 0000 82B0     		sub	sp, sp, #8
 491              		.cfi_def_cfa_offset 8
 492 0002 82B0     		sub	sp, sp, #8
 493              		.cfi_def_cfa_offset 16
 494 0004 0DF1080C 		add	ip, sp, #8
 495 0008 0CE90600 		stmdb	ip, {r1, r2}
 496 000c 0393     		str	r3, [sp, #12]
 215:Utilities/misc/stm32_systime.c **** 
 497              		.loc 1 215 3 is_stmt 1 view .LVU154
 215:Utilities/misc/stm32_systime.c **** 
 498              		.loc 1 215 13 is_stmt 0 view .LVU155
 499 000e 0022     		movs	r2, #0
 500 0010 0260     		str	r2, [r0]
 501 0012 8280     		strh	r2, [r0, #4]	@ movhi
 217:Utilities/misc/stm32_systime.c ****   c.SubSeconds = a.SubSeconds - b.SubSeconds;
 502              		.loc 1 217 3 is_stmt 1 view .LVU156
 217:Utilities/misc/stm32_systime.c ****   c.SubSeconds = a.SubSeconds - b.SubSeconds;
 503              		.loc 1 217 25 is_stmt 0 view .LVU157
 504 0014 CB1A     		subs	r3, r1, r3
 217:Utilities/misc/stm32_systime.c ****   c.SubSeconds = a.SubSeconds - b.SubSeconds;
 505              		.loc 1 217 13 view .LVU158
 506 0016 0360     		str	r3, [r0]
 218:Utilities/misc/stm32_systime.c ****   if( c.SubSeconds < 0 )
 507              		.loc 1 218 3 is_stmt 1 view .LVU159
 218:Utilities/misc/stm32_systime.c ****   if( c.SubSeconds < 0 )
 508              		.loc 1 218 19 is_stmt 0 view .LVU160
 509 0018 BDF80420 		ldrh	r2, [sp, #4]
 218:Utilities/misc/stm32_systime.c ****   if( c.SubSeconds < 0 )
 510              		.loc 1 218 34 view .LVU161
 511 001c BDF81010 		ldrh	r1, [sp, #16]
 218:Utilities/misc/stm32_systime.c ****   if( c.SubSeconds < 0 )
 512              		.loc 1 218 31 view .LVU162
 513 0020 521A     		subs	r2, r2, r1
 514 0022 91B2     		uxth	r1, r2
 515 0024 12B2     		sxth	r2, r2
 218:Utilities/misc/stm32_systime.c ****   if( c.SubSeconds < 0 )
 516              		.loc 1 218 16 view .LVU163
 517 0026 8280     		strh	r2, [r0, #4]	@ movhi
 219:Utilities/misc/stm32_systime.c ****   {
 518              		.loc 1 219 3 is_stmt 1 view .LVU164
 219:Utilities/misc/stm32_systime.c ****   {
 519              		.loc 1 219 5 is_stmt 0 view .LVU165
ARM GAS  /tmp/ccViP0k0.s 			page 20


 520 0028 002A     		cmp	r2, #0
 521 002a 02DB     		blt	.L35
 522              	.L32:
 225:Utilities/misc/stm32_systime.c **** 
 523              		.loc 1 225 1 view .LVU166
 524 002c 02B0     		add	sp, sp, #8
 525              		.cfi_remember_state
 526              		.cfi_def_cfa_offset 8
 527              		@ sp needed
 528 002e 02B0     		add	sp, sp, #8
 529              		.cfi_def_cfa_offset 0
 530 0030 7047     		bx	lr
 531              	.L35:
 532              		.cfi_restore_state
 221:Utilities/misc/stm32_systime.c ****     c.SubSeconds += 1000;
 533              		.loc 1 221 5 is_stmt 1 view .LVU167
 221:Utilities/misc/stm32_systime.c ****     c.SubSeconds += 1000;
 534              		.loc 1 221 14 is_stmt 0 view .LVU168
 535 0032 013B     		subs	r3, r3, #1
 536 0034 0360     		str	r3, [r0]
 222:Utilities/misc/stm32_systime.c ****   }
 537              		.loc 1 222 5 is_stmt 1 view .LVU169
 222:Utilities/misc/stm32_systime.c ****   }
 538              		.loc 1 222 18 is_stmt 0 view .LVU170
 539 0036 01F57A71 		add	r1, r1, #1000
 540 003a 8180     		strh	r1, [r0, #4]	@ movhi
 224:Utilities/misc/stm32_systime.c **** }
 541              		.loc 1 224 3 is_stmt 1 view .LVU171
 224:Utilities/misc/stm32_systime.c **** }
 542              		.loc 1 224 10 is_stmt 0 view .LVU172
 543 003c F6E7     		b	.L32
 544              		.cfi_endproc
 545              	.LFE4:
 547              		.section	.text.SysTimeSet,"ax",%progbits
 548              		.align	1
 549              		.global	SysTimeSet
 550              		.syntax unified
 551              		.thumb
 552              		.thumb_func
 554              	SysTimeSet:
 555              	.LFB5:
 228:Utilities/misc/stm32_systime.c ****   SysTime_t DeltaTime;
 556              		.loc 1 228 1 is_stmt 1 view -0
 557              		.cfi_startproc
 558              		@ args = 0, pretend = 0, frame = 24
 559              		@ frame_needed = 0, uses_anonymous_args = 0
 560 0000 30B5     		push	{r4, r5, lr}
 561              		.cfi_def_cfa_offset 12
 562              		.cfi_offset 4, -12
 563              		.cfi_offset 5, -8
 564              		.cfi_offset 14, -4
 565 0002 89B0     		sub	sp, sp, #36
 566              		.cfi_def_cfa_offset 48
 567 0004 02AC     		add	r4, sp, #8
 568 0006 84E80300 		stm	r4, {r0, r1}
 229:Utilities/misc/stm32_systime.c **** 
 569              		.loc 1 229 3 view .LVU174
ARM GAS  /tmp/ccViP0k0.s 			page 21


 231:Utilities/misc/stm32_systime.c **** 
 570              		.loc 1 231 3 view .LVU175
 231:Utilities/misc/stm32_systime.c **** 
 571              		.loc 1 231 13 is_stmt 0 view .LVU176
 572 000a 0023     		movs	r3, #0
 573 000c 0493     		str	r3, [sp, #16]
 574 000e ADF81430 		strh	r3, [sp, #20]	@ movhi
 233:Utilities/misc/stm32_systime.c **** 
 575              		.loc 1 233 3 is_stmt 1 view .LVU177
 233:Utilities/misc/stm32_systime.c **** 
 576              		.loc 1 233 43 is_stmt 0 view .LVU178
 577 0012 0B4D     		ldr	r5, .L38
 578 0014 2B69     		ldr	r3, [r5, #16]
 233:Utilities/misc/stm32_systime.c **** 
 579              		.loc 1 233 26 view .LVU179
 580 0016 05A8     		add	r0, sp, #20
 581 0018 9847     		blx	r3
 582              	.LVL62:
 583 001a 0346     		mov	r3, r0
 233:Utilities/misc/stm32_systime.c **** 
 584              		.loc 1 233 24 discriminator 1 view .LVU180
 585 001c 0490     		str	r0, [sp, #16]
 236:Utilities/misc/stm32_systime.c **** 
 586              		.loc 1 236 3 is_stmt 1 view .LVU181
 236:Utilities/misc/stm32_systime.c **** 
 587              		.loc 1 236 15 is_stmt 0 view .LVU182
 588 001e 059A     		ldr	r2, [sp, #20]
 589 0020 0092     		str	r2, [sp]
 590 0022 94E80600 		ldm	r4, {r1, r2}
 591 0026 06A8     		add	r0, sp, #24
 592 0028 FFF7FEFF 		bl	SysTimeSub
 593              	.LVL63:
 238:Utilities/misc/stm32_systime.c ****   UTIL_SYSTIMDriver.BKUPWrite_SubSeconds( ( uint32_t ) DeltaTime.SubSeconds );
 594              		.loc 1 238 3 is_stmt 1 view .LVU183
 238:Utilities/misc/stm32_systime.c ****   UTIL_SYSTIMDriver.BKUPWrite_SubSeconds( ( uint32_t ) DeltaTime.SubSeconds );
 595              		.loc 1 238 20 is_stmt 0 view .LVU184
 596 002c 2B68     		ldr	r3, [r5]
 238:Utilities/misc/stm32_systime.c ****   UTIL_SYSTIMDriver.BKUPWrite_SubSeconds( ( uint32_t ) DeltaTime.SubSeconds );
 597              		.loc 1 238 3 view .LVU185
 598 002e 0698     		ldr	r0, [sp, #24]
 599 0030 9847     		blx	r3
 600              	.LVL64:
 239:Utilities/misc/stm32_systime.c **** }
 601              		.loc 1 239 3 is_stmt 1 view .LVU186
 239:Utilities/misc/stm32_systime.c **** }
 602              		.loc 1 239 20 is_stmt 0 view .LVU187
 603 0032 AB68     		ldr	r3, [r5, #8]
 239:Utilities/misc/stm32_systime.c **** }
 604              		.loc 1 239 3 view .LVU188
 605 0034 BDF91C00 		ldrsh	r0, [sp, #28]
 606 0038 9847     		blx	r3
 607              	.LVL65:
 240:Utilities/misc/stm32_systime.c **** 
 608              		.loc 1 240 1 view .LVU189
 609 003a 09B0     		add	sp, sp, #36
 610              		.cfi_def_cfa_offset 12
 611              		@ sp needed
ARM GAS  /tmp/ccViP0k0.s 			page 22


 612 003c 30BD     		pop	{r4, r5, pc}
 613              	.L39:
 614 003e 00BF     		.align	2
 615              	.L38:
 616 0040 00000000 		.word	UTIL_SYSTIMDriver
 617              		.cfi_endproc
 618              	.LFE5:
 620              		.section	.text.SysTimeGet,"ax",%progbits
 621              		.align	1
 622              		.global	SysTimeGet
 623              		.syntax unified
 624              		.thumb
 625              		.thumb_func
 627              	SysTimeGet:
 628              	.LVL66:
 629              	.LFB6:
 243:Utilities/misc/stm32_systime.c ****   SysTime_t calendarTime = { .Seconds = 0, .SubSeconds = 0 };
 630              		.loc 1 243 1 is_stmt 1 view -0
 631              		.cfi_startproc
 632              		@ args = 0, pretend = 0, frame = 16
 633              		@ frame_needed = 0, uses_anonymous_args = 0
 243:Utilities/misc/stm32_systime.c ****   SysTime_t calendarTime = { .Seconds = 0, .SubSeconds = 0 };
 634              		.loc 1 243 1 is_stmt 0 view .LVU191
 635 0000 30B5     		push	{r4, r5, lr}
 636              		.cfi_def_cfa_offset 12
 637              		.cfi_offset 4, -12
 638              		.cfi_offset 5, -8
 639              		.cfi_offset 14, -4
 640 0002 87B0     		sub	sp, sp, #28
 641              		.cfi_def_cfa_offset 40
 642 0004 0446     		mov	r4, r0
 244:Utilities/misc/stm32_systime.c ****   SysTime_t sysTime = { .Seconds = 0, .SubSeconds = 0 };
 643              		.loc 1 244 3 is_stmt 1 view .LVU192
 244:Utilities/misc/stm32_systime.c ****   SysTime_t sysTime = { .Seconds = 0, .SubSeconds = 0 };
 644              		.loc 1 244 13 is_stmt 0 view .LVU193
 645 0006 0023     		movs	r3, #0
 646 0008 0493     		str	r3, [sp, #16]
 647 000a ADF81430 		strh	r3, [sp, #20]	@ movhi
 245:Utilities/misc/stm32_systime.c ****   SysTime_t DeltaTime;
 648              		.loc 1 245 3 is_stmt 1 view .LVU194
 245:Utilities/misc/stm32_systime.c ****   SysTime_t DeltaTime;
 649              		.loc 1 245 13 is_stmt 0 view .LVU195
 650 000e 0360     		str	r3, [r0]
 651 0010 8380     		strh	r3, [r0, #4]	@ movhi
 246:Utilities/misc/stm32_systime.c **** 
 652              		.loc 1 246 3 is_stmt 1 view .LVU196
 248:Utilities/misc/stm32_systime.c **** 
 653              		.loc 1 248 3 view .LVU197
 248:Utilities/misc/stm32_systime.c **** 
 654              		.loc 1 248 43 is_stmt 0 view .LVU198
 655 0012 0B4D     		ldr	r5, .L42
 656 0014 2B69     		ldr	r3, [r5, #16]
 248:Utilities/misc/stm32_systime.c **** 
 657              		.loc 1 248 26 view .LVU199
 658 0016 05A8     		add	r0, sp, #20
 659              	.LVL67:
 248:Utilities/misc/stm32_systime.c **** 
ARM GAS  /tmp/ccViP0k0.s 			page 23


 660              		.loc 1 248 26 view .LVU200
 661 0018 9847     		blx	r3
 662              	.LVL68:
 248:Utilities/misc/stm32_systime.c **** 
 663              		.loc 1 248 24 discriminator 1 view .LVU201
 664 001a 0490     		str	r0, [sp, #16]
 250:Utilities/misc/stm32_systime.c ****   DeltaTime.Seconds = UTIL_SYSTIMDriver.BKUPRead_Seconds();
 665              		.loc 1 250 3 is_stmt 1 view .LVU202
 250:Utilities/misc/stm32_systime.c ****   DeltaTime.Seconds = UTIL_SYSTIMDriver.BKUPRead_Seconds();
 666              		.loc 1 250 52 is_stmt 0 view .LVU203
 667 001c EB68     		ldr	r3, [r5, #12]
 250:Utilities/misc/stm32_systime.c ****   DeltaTime.Seconds = UTIL_SYSTIMDriver.BKUPRead_Seconds();
 668              		.loc 1 250 35 view .LVU204
 669 001e 9847     		blx	r3
 670              	.LVL69:
 250:Utilities/misc/stm32_systime.c ****   DeltaTime.Seconds = UTIL_SYSTIMDriver.BKUPRead_Seconds();
 671              		.loc 1 250 24 discriminator 1 view .LVU205
 672 0020 ADF80C00 		strh	r0, [sp, #12]	@ movhi
 251:Utilities/misc/stm32_systime.c **** 
 673              		.loc 1 251 3 is_stmt 1 view .LVU206
 251:Utilities/misc/stm32_systime.c **** 
 674              		.loc 1 251 40 is_stmt 0 view .LVU207
 675 0024 6B68     		ldr	r3, [r5, #4]
 251:Utilities/misc/stm32_systime.c **** 
 676              		.loc 1 251 23 view .LVU208
 677 0026 9847     		blx	r3
 678              	.LVL70:
 251:Utilities/misc/stm32_systime.c **** 
 679              		.loc 1 251 21 discriminator 1 view .LVU209
 680 0028 0290     		str	r0, [sp, #8]
 253:Utilities/misc/stm32_systime.c **** 
 681              		.loc 1 253 3 is_stmt 1 view .LVU210
 253:Utilities/misc/stm32_systime.c **** 
 682              		.loc 1 253 13 is_stmt 0 view .LVU211
 683 002a 059B     		ldr	r3, [sp, #20]
 684 002c 0093     		str	r3, [sp]
 685 002e 049B     		ldr	r3, [sp, #16]
 686 0030 02AA     		add	r2, sp, #8
 687 0032 06CA     		ldm	r2, {r1, r2}
 688 0034 2046     		mov	r0, r4
 689 0036 FFF7FEFF 		bl	SysTimeAdd
 690              	.LVL71:
 255:Utilities/misc/stm32_systime.c **** }
 691              		.loc 1 255 3 is_stmt 1 view .LVU212
 256:Utilities/misc/stm32_systime.c **** 
 692              		.loc 1 256 1 is_stmt 0 view .LVU213
 693 003a 2046     		mov	r0, r4
 694 003c 07B0     		add	sp, sp, #28
 695              		.cfi_def_cfa_offset 12
 696              		@ sp needed
 697 003e 30BD     		pop	{r4, r5, pc}
 698              	.LVL72:
 699              	.L43:
 256:Utilities/misc/stm32_systime.c **** 
 700              		.loc 1 256 1 view .LVU214
 701              		.align	2
 702              	.L42:
ARM GAS  /tmp/ccViP0k0.s 			page 24


 703 0040 00000000 		.word	UTIL_SYSTIMDriver
 704              		.cfi_endproc
 705              	.LFE6:
 707              		.section	.text.SysTimeGetMcuTime,"ax",%progbits
 708              		.align	1
 709              		.global	SysTimeGetMcuTime
 710              		.syntax unified
 711              		.thumb
 712              		.thumb_func
 714              	SysTimeGetMcuTime:
 715              	.LVL73:
 716              	.LFB7:
 260:Utilities/misc/stm32_systime.c ****   SysTime_t calendarTime = { .Seconds = 0, .SubSeconds = 0 };
 717              		.loc 1 260 1 is_stmt 1 view -0
 718              		.cfi_startproc
 719              		@ args = 0, pretend = 0, frame = 8
 720              		@ frame_needed = 0, uses_anonymous_args = 0
 260:Utilities/misc/stm32_systime.c ****   SysTime_t calendarTime = { .Seconds = 0, .SubSeconds = 0 };
 721              		.loc 1 260 1 is_stmt 0 view .LVU216
 722 0000 30B5     		push	{r4, r5, lr}
 723              		.cfi_def_cfa_offset 12
 724              		.cfi_offset 4, -12
 725              		.cfi_offset 5, -8
 726              		.cfi_offset 14, -4
 727 0002 83B0     		sub	sp, sp, #12
 728              		.cfi_def_cfa_offset 24
 729 0004 0446     		mov	r4, r0
 261:Utilities/misc/stm32_systime.c **** 
 730              		.loc 1 261 3 is_stmt 1 view .LVU217
 261:Utilities/misc/stm32_systime.c **** 
 731              		.loc 1 261 13 is_stmt 0 view .LVU218
 732 0006 0023     		movs	r3, #0
 733 0008 0093     		str	r3, [sp]
 734 000a ADF80430 		strh	r3, [sp, #4]	@ movhi
 263:Utilities/misc/stm32_systime.c **** 
 735              		.loc 1 263 3 is_stmt 1 view .LVU219
 263:Utilities/misc/stm32_systime.c **** 
 736              		.loc 1 263 43 is_stmt 0 view .LVU220
 737 000e 064B     		ldr	r3, .L46
 738 0010 1B69     		ldr	r3, [r3, #16]
 263:Utilities/misc/stm32_systime.c **** 
 739              		.loc 1 263 26 view .LVU221
 740 0012 01A8     		add	r0, sp, #4
 741              	.LVL74:
 263:Utilities/misc/stm32_systime.c **** 
 742              		.loc 1 263 26 view .LVU222
 743 0014 9847     		blx	r3
 744              	.LVL75:
 263:Utilities/misc/stm32_systime.c **** 
 745              		.loc 1 263 24 discriminator 1 view .LVU223
 746 0016 0090     		str	r0, [sp]
 265:Utilities/misc/stm32_systime.c **** }
 747              		.loc 1 265 3 is_stmt 1 view .LVU224
 265:Utilities/misc/stm32_systime.c **** }
 748              		.loc 1 265 10 is_stmt 0 view .LVU225
 749 0018 DDE90001 		ldrd	r0, r1, [sp]
 750 001c 84E80300 		stm	r4, {r0, r1}
ARM GAS  /tmp/ccViP0k0.s 			page 25


 266:Utilities/misc/stm32_systime.c **** 
 751              		.loc 1 266 1 view .LVU226
 752 0020 2046     		mov	r0, r4
 753 0022 03B0     		add	sp, sp, #12
 754              		.cfi_def_cfa_offset 12
 755              		@ sp needed
 756 0024 30BD     		pop	{r4, r5, pc}
 757              	.LVL76:
 758              	.L47:
 266:Utilities/misc/stm32_systime.c **** 
 759              		.loc 1 266 1 view .LVU227
 760 0026 00BF     		.align	2
 761              	.L46:
 762 0028 00000000 		.word	UTIL_SYSTIMDriver
 763              		.cfi_endproc
 764              	.LFE7:
 766              		.section	.text.SysTimeToMs,"ax",%progbits
 767              		.align	1
 768              		.global	SysTimeToMs
 769              		.syntax unified
 770              		.thumb
 771              		.thumb_func
 773              	SysTimeToMs:
 774              	.LFB8:
 269:Utilities/misc/stm32_systime.c ****   SysTime_t DeltaTime;
 775              		.loc 1 269 1 is_stmt 1 view -0
 776              		.cfi_startproc
 777              		@ args = 0, pretend = 0, frame = 24
 778              		@ frame_needed = 0, uses_anonymous_args = 0
 779 0000 30B5     		push	{r4, r5, lr}
 780              		.cfi_def_cfa_offset 12
 781              		.cfi_offset 4, -12
 782              		.cfi_offset 5, -8
 783              		.cfi_offset 14, -4
 784 0002 89B0     		sub	sp, sp, #36
 785              		.cfi_def_cfa_offset 48
 786 0004 02AC     		add	r4, sp, #8
 787 0006 84E80300 		stm	r4, {r0, r1}
 270:Utilities/misc/stm32_systime.c ****   DeltaTime.SubSeconds = (int16_t)UTIL_SYSTIMDriver.BKUPRead_SubSeconds();
 788              		.loc 1 270 3 view .LVU229
 271:Utilities/misc/stm32_systime.c ****   DeltaTime.Seconds = UTIL_SYSTIMDriver.BKUPRead_Seconds();
 789              		.loc 1 271 3 view .LVU230
 271:Utilities/misc/stm32_systime.c ****   DeltaTime.Seconds = UTIL_SYSTIMDriver.BKUPRead_Seconds();
 790              		.loc 1 271 52 is_stmt 0 view .LVU231
 791 000a 0C4D     		ldr	r5, .L50
 792 000c EB68     		ldr	r3, [r5, #12]
 271:Utilities/misc/stm32_systime.c ****   DeltaTime.Seconds = UTIL_SYSTIMDriver.BKUPRead_Seconds();
 793              		.loc 1 271 35 view .LVU232
 794 000e 9847     		blx	r3
 795              	.LVL77:
 271:Utilities/misc/stm32_systime.c ****   DeltaTime.Seconds = UTIL_SYSTIMDriver.BKUPRead_Seconds();
 796              		.loc 1 271 24 discriminator 1 view .LVU233
 797 0010 ADF81C00 		strh	r0, [sp, #28]	@ movhi
 272:Utilities/misc/stm32_systime.c **** 
 798              		.loc 1 272 3 is_stmt 1 view .LVU234
 272:Utilities/misc/stm32_systime.c **** 
 799              		.loc 1 272 40 is_stmt 0 view .LVU235
ARM GAS  /tmp/ccViP0k0.s 			page 26


 800 0014 6B68     		ldr	r3, [r5, #4]
 272:Utilities/misc/stm32_systime.c **** 
 801              		.loc 1 272 23 view .LVU236
 802 0016 9847     		blx	r3
 803              	.LVL78:
 804 0018 0346     		mov	r3, r0
 272:Utilities/misc/stm32_systime.c **** 
 805              		.loc 1 272 21 discriminator 1 view .LVU237
 806 001a 0690     		str	r0, [sp, #24]
 274:Utilities/misc/stm32_systime.c ****   return calendarTime.Seconds * 1000 + calendarTime.SubSeconds;
 807              		.loc 1 274 3 is_stmt 1 view .LVU238
 274:Utilities/misc/stm32_systime.c ****   return calendarTime.Seconds * 1000 + calendarTime.SubSeconds;
 808              		.loc 1 274 28 is_stmt 0 view .LVU239
 809 001c 079A     		ldr	r2, [sp, #28]
 810 001e 0092     		str	r2, [sp]
 811 0020 94E80600 		ldm	r4, {r1, r2}
 812 0024 04A8     		add	r0, sp, #16
 813 0026 FFF7FEFF 		bl	SysTimeSub
 814              	.LVL79:
 275:Utilities/misc/stm32_systime.c **** }
 815              		.loc 1 275 3 is_stmt 1 view .LVU240
 275:Utilities/misc/stm32_systime.c **** }
 816              		.loc 1 275 52 is_stmt 0 view .LVU241
 817 002a BDF91430 		ldrsh	r3, [sp, #20]
 276:Utilities/misc/stm32_systime.c **** 
 818              		.loc 1 276 1 view .LVU242
 819 002e 049A     		ldr	r2, [sp, #16]
 820 0030 4FF47A70 		mov	r0, #1000
 821 0034 00FB0230 		mla	r0, r0, r2, r3
 822 0038 09B0     		add	sp, sp, #36
 823              		.cfi_def_cfa_offset 12
 824              		@ sp needed
 825 003a 30BD     		pop	{r4, r5, pc}
 826              	.L51:
 827              		.align	2
 828              	.L50:
 829 003c 00000000 		.word	UTIL_SYSTIMDriver
 830              		.cfi_endproc
 831              	.LFE8:
 833              		.section	.text.SysTimeFromMs,"ax",%progbits
 834              		.align	1
 835              		.global	SysTimeFromMs
 836              		.syntax unified
 837              		.thumb
 838              		.thumb_func
 840              	SysTimeFromMs:
 841              	.LVL80:
 842              	.LFB9:
 279:Utilities/misc/stm32_systime.c ****   uint32_t seconds = timeMs / 1000;
 843              		.loc 1 279 1 is_stmt 1 view -0
 844              		.cfi_startproc
 845              		@ args = 0, pretend = 0, frame = 16
 846              		@ frame_needed = 0, uses_anonymous_args = 0
 279:Utilities/misc/stm32_systime.c ****   uint32_t seconds = timeMs / 1000;
 847              		.loc 1 279 1 is_stmt 0 view .LVU244
 848 0000 30B5     		push	{r4, r5, lr}
 849              		.cfi_def_cfa_offset 12
ARM GAS  /tmp/ccViP0k0.s 			page 27


 850              		.cfi_offset 4, -12
 851              		.cfi_offset 5, -8
 852              		.cfi_offset 14, -4
 853 0002 87B0     		sub	sp, sp, #28
 854              		.cfi_def_cfa_offset 40
 855 0004 0446     		mov	r4, r0
 280:Utilities/misc/stm32_systime.c ****   SysTime_t sysTime = { .Seconds = seconds, .SubSeconds =  timeMs - seconds * 1000 };
 856              		.loc 1 280 3 is_stmt 1 view .LVU245
 280:Utilities/misc/stm32_systime.c ****   SysTime_t sysTime = { .Seconds = seconds, .SubSeconds =  timeMs - seconds * 1000 };
 857              		.loc 1 280 12 is_stmt 0 view .LVU246
 858 0006 124B     		ldr	r3, .L54
 859 0008 A3FB0123 		umull	r2, r3, r3, r1
 860 000c 9B09     		lsrs	r3, r3, #6
 861              	.LVL81:
 281:Utilities/misc/stm32_systime.c ****   SysTime_t DeltaTime = { 0 };
 862              		.loc 1 281 3 is_stmt 1 view .LVU247
 281:Utilities/misc/stm32_systime.c ****   SysTime_t DeltaTime = { 0 };
 863              		.loc 1 281 13 is_stmt 0 view .LVU248
 864 000e 0493     		str	r3, [sp, #16]
 281:Utilities/misc/stm32_systime.c ****   SysTime_t DeltaTime = { 0 };
 865              		.loc 1 281 67 view .LVU249
 866 0010 C3EB4312 		rsb	r2, r3, r3, lsl #5
 867 0014 03EB8203 		add	r3, r3, r2, lsl #2
 868              	.LVL82:
 281:Utilities/misc/stm32_systime.c ****   SysTime_t DeltaTime = { 0 };
 869              		.loc 1 281 67 view .LVU250
 870 0018 A1EBC301 		sub	r1, r1, r3, lsl #3
 871              	.LVL83:
 281:Utilities/misc/stm32_systime.c ****   SysTime_t DeltaTime = { 0 };
 872              		.loc 1 281 13 view .LVU251
 873 001c ADF81410 		strh	r1, [sp, #20]	@ movhi
 282:Utilities/misc/stm32_systime.c **** 
 874              		.loc 1 282 3 is_stmt 1 view .LVU252
 282:Utilities/misc/stm32_systime.c **** 
 875              		.loc 1 282 13 is_stmt 0 view .LVU253
 876 0020 0023     		movs	r3, #0
 877 0022 0293     		str	r3, [sp, #8]
 878 0024 0393     		str	r3, [sp, #12]
 284:Utilities/misc/stm32_systime.c ****   DeltaTime.Seconds = UTIL_SYSTIMDriver.BKUPRead_Seconds();
 879              		.loc 1 284 3 is_stmt 1 view .LVU254
 284:Utilities/misc/stm32_systime.c ****   DeltaTime.Seconds = UTIL_SYSTIMDriver.BKUPRead_Seconds();
 880              		.loc 1 284 52 is_stmt 0 view .LVU255
 881 0026 0B4D     		ldr	r5, .L54+4
 882 0028 EB68     		ldr	r3, [r5, #12]
 284:Utilities/misc/stm32_systime.c ****   DeltaTime.Seconds = UTIL_SYSTIMDriver.BKUPRead_Seconds();
 883              		.loc 1 284 35 view .LVU256
 884 002a 9847     		blx	r3
 885              	.LVL84:
 284:Utilities/misc/stm32_systime.c ****   DeltaTime.Seconds = UTIL_SYSTIMDriver.BKUPRead_Seconds();
 886              		.loc 1 284 24 discriminator 1 view .LVU257
 887 002c ADF80C00 		strh	r0, [sp, #12]	@ movhi
 285:Utilities/misc/stm32_systime.c ****   return SysTimeAdd( sysTime, DeltaTime );
 888              		.loc 1 285 3 is_stmt 1 view .LVU258
 285:Utilities/misc/stm32_systime.c ****   return SysTimeAdd( sysTime, DeltaTime );
 889              		.loc 1 285 40 is_stmt 0 view .LVU259
 890 0030 6B68     		ldr	r3, [r5, #4]
 285:Utilities/misc/stm32_systime.c ****   return SysTimeAdd( sysTime, DeltaTime );
ARM GAS  /tmp/ccViP0k0.s 			page 28


 891              		.loc 1 285 23 view .LVU260
 892 0032 9847     		blx	r3
 893              	.LVL85:
 894 0034 0346     		mov	r3, r0
 285:Utilities/misc/stm32_systime.c ****   return SysTimeAdd( sysTime, DeltaTime );
 895              		.loc 1 285 21 discriminator 1 view .LVU261
 896 0036 0290     		str	r0, [sp, #8]
 286:Utilities/misc/stm32_systime.c **** }
 897              		.loc 1 286 3 is_stmt 1 view .LVU262
 286:Utilities/misc/stm32_systime.c **** }
 898              		.loc 1 286 10 is_stmt 0 view .LVU263
 899 0038 039A     		ldr	r2, [sp, #12]
 900 003a 0092     		str	r2, [sp]
 901 003c 06AA     		add	r2, sp, #24
 902 003e 12E90600 		ldmdb	r2, {r1, r2}
 903 0042 2046     		mov	r0, r4
 904 0044 FFF7FEFF 		bl	SysTimeAdd
 905              	.LVL86:
 287:Utilities/misc/stm32_systime.c **** 
 906              		.loc 1 287 1 view .LVU264
 907 0048 2046     		mov	r0, r4
 908 004a 07B0     		add	sp, sp, #28
 909              		.cfi_def_cfa_offset 12
 910              		@ sp needed
 911 004c 30BD     		pop	{r4, r5, pc}
 912              	.LVL87:
 913              	.L55:
 287:Utilities/misc/stm32_systime.c **** 
 914              		.loc 1 287 1 view .LVU265
 915 004e 00BF     		.align	2
 916              	.L54:
 917 0050 D34D6210 		.word	274877907
 918 0054 00000000 		.word	UTIL_SYSTIMDriver
 919              		.cfi_endproc
 920              	.LFE9:
 922              		.section	.text.SysTimeMkTime,"ax",%progbits
 923              		.align	1
 924              		.global	SysTimeMkTime
 925              		.syntax unified
 926              		.thumb
 927              		.thumb_func
 929              	SysTimeMkTime:
 930              	.LVL88:
 931              	.LFB10:
 290:Utilities/misc/stm32_systime.c ****   uint32_t nbdays;
 932              		.loc 1 290 1 is_stmt 1 view -0
 933              		.cfi_startproc
 934              		@ args = 0, pretend = 0, frame = 16
 935              		@ frame_needed = 0, uses_anonymous_args = 0
 290:Utilities/misc/stm32_systime.c ****   uint32_t nbdays;
 936              		.loc 1 290 1 is_stmt 0 view .LVU267
 937 0000 30B5     		push	{r4, r5, lr}
 938              		.cfi_def_cfa_offset 12
 939              		.cfi_offset 4, -12
 940              		.cfi_offset 5, -8
 941              		.cfi_offset 14, -4
 942 0002 85B0     		sub	sp, sp, #20
ARM GAS  /tmp/ccViP0k0.s 			page 29


 943              		.cfi_def_cfa_offset 32
 944 0004 8446     		mov	ip, r0
 291:Utilities/misc/stm32_systime.c ****   uint32_t nbsecs;
 945              		.loc 1 291 3 is_stmt 1 view .LVU268
 292:Utilities/misc/stm32_systime.c ****   uint32_t year = localtime->tm_year - CALC_REF_YEAR;
 946              		.loc 1 292 3 view .LVU269
 293:Utilities/misc/stm32_systime.c ****   uint32_t correctionMonth[4] =
 947              		.loc 1 293 3 view .LVU270
 293:Utilities/misc/stm32_systime.c ****   uint32_t correctionMonth[4] =
 948              		.loc 1 293 28 is_stmt 0 view .LVU271
 949 0006 4469     		ldr	r4, [r0, #20]
 293:Utilities/misc/stm32_systime.c ****   uint32_t correctionMonth[4] =
 950              		.loc 1 293 38 view .LVU272
 951 0008 A4F1440E 		sub	lr, r4, #68
 952              	.LVL89:
 294:Utilities/misc/stm32_systime.c ****   {
 953              		.loc 1 294 3 is_stmt 1 view .LVU273
 294:Utilities/misc/stm32_systime.c ****   {
 954              		.loc 1 294 12 is_stmt 0 view .LVU274
 955 000c 1C4B     		ldr	r3, .L58
 956 000e 0FCB     		ldm	r3, {r0, r1, r2, r3}
 957              	.LVL90:
 294:Utilities/misc/stm32_systime.c ****   {
 958              		.loc 1 294 12 view .LVU275
 959 0010 04AD     		add	r5, sp, #16
 960 0012 05E90F00 		stmdb	r5, {r0, r1, r2, r3}
 302:Utilities/misc/stm32_systime.c **** 
 961              		.loc 1 302 3 is_stmt 1 view .LVU276
 302:Utilities/misc/stm32_systime.c **** 
 962              		.loc 1 302 12 is_stmt 0 view .LVU277
 963 0016 40F2B553 		movw	r3, #1461
 964 001a 03FB0EFE 		mul	lr, r3, lr
 965              	.LVL91:
 302:Utilities/misc/stm32_systime.c **** 
 966              		.loc 1 302 12 view .LVU278
 967 001e 0EF1030E 		add	lr, lr, #3
 968              	.LVL92:
 304:Utilities/misc/stm32_systime.c ****         ( ( ( correctionMonth[year % 4] >> ( ( localtime->tm_mon ) * 2 ) ) & 0x03 ) ) );
 969              		.loc 1 304 3 is_stmt 1 view .LVU279
 304:Utilities/misc/stm32_systime.c ****         ( ( ( correctionMonth[year % 4] >> ( ( localtime->tm_mon ) * 2 ) ) & 0x03 ) ) );
 970              		.loc 1 304 15 is_stmt 0 view .LVU280
 971 0022 DCF81020 		ldr	r2, [ip, #16]
 972 0026 C2EB0211 		rsb	r1, r2, r2, lsl #4
 973 002a 02EB8101 		add	r1, r2, r1, lsl #2
 974 002e 0131     		adds	r1, r1, #1
 305:Utilities/misc/stm32_systime.c **** 
 975              		.loc 1 305 36 view .LVU281
 976 0030 04F00304 		and	r4, r4, #3
 977              	.LVL93:
 305:Utilities/misc/stm32_systime.c **** 
 978              		.loc 1 305 30 view .LVU282
 979 0034 05EB8404 		add	r4, r5, r4, lsl #2
 980 0038 54F8103C 		ldr	r3, [r4, #-16]
 305:Utilities/misc/stm32_systime.c **** 
 981              		.loc 1 305 68 view .LVU283
 982 003c 5200     		lsls	r2, r2, #1
 305:Utilities/misc/stm32_systime.c **** 
ARM GAS  /tmp/ccViP0k0.s 			page 30


 983              		.loc 1 305 41 view .LVU284
 984 003e D340     		lsrs	r3, r3, r2
 305:Utilities/misc/stm32_systime.c **** 
 985              		.loc 1 305 76 view .LVU285
 986 0040 03F00303 		and	r3, r3, #3
 304:Utilities/misc/stm32_systime.c ****         ( ( ( correctionMonth[year % 4] >> ( ( localtime->tm_mon ) * 2 ) ) & 0x03 ) ) );
 987              		.loc 1 304 64 view .LVU286
 988 0044 C3EB6103 		rsb	r3, r3, r1, asr #1
 304:Utilities/misc/stm32_systime.c ****         ( ( ( correctionMonth[year % 4] >> ( ( localtime->tm_mon ) * 2 ) ) & 0x03 ) ) );
 989              		.loc 1 304 10 view .LVU287
 990 0048 03EB9E03 		add	r3, r3, lr, lsr #2
 991              	.LVL94:
 307:Utilities/misc/stm32_systime.c **** 
 992              		.loc 1 307 3 is_stmt 1 view .LVU288
 307:Utilities/misc/stm32_systime.c **** 
 993              		.loc 1 307 24 is_stmt 0 view .LVU289
 994 004c DCF80C20 		ldr	r2, [ip, #12]
 307:Utilities/misc/stm32_systime.c **** 
 995              		.loc 1 307 10 view .LVU290
 996 0050 1A44     		add	r2, r2, r3
 997 0052 013A     		subs	r2, r2, #1
 998              	.LVL95:
 310:Utilities/misc/stm32_systime.c **** 
 999              		.loc 1 310 3 is_stmt 1 view .LVU291
 312:Utilities/misc/stm32_systime.c ****         ( ( uint32_t )localtime->tm_min * TM_SECONDS_IN_1MINUTE ) +
 1000              		.loc 1 312 3 view .LVU292
 312:Utilities/misc/stm32_systime.c ****         ( ( uint32_t )localtime->tm_min * TM_SECONDS_IN_1MINUTE ) +
 1001              		.loc 1 312 36 is_stmt 0 view .LVU293
 1002 0054 DCF80010 		ldr	r1, [ip]
 314:Utilities/misc/stm32_systime.c ****   return nbsecs - CALC_REF_YEAR_TO_UNIX_REF_YEAR_COMPENSATION_IN_SECONDS;
 1003              		.loc 1 314 32 view .LVU294
 1004 0058 DCF80800 		ldr	r0, [ip, #8]
 313:Utilities/misc/stm32_systime.c ****         ( ( uint32_t )localtime->tm_hour * TM_SECONDS_IN_1HOUR ) );
 1005              		.loc 1 313 32 view .LVU295
 1006 005c DCF80430 		ldr	r3, [ip, #4]
 313:Utilities/misc/stm32_systime.c ****         ( ( uint32_t )localtime->tm_hour * TM_SECONDS_IN_1HOUR ) );
 1007              		.loc 1 313 41 view .LVU296
 1008 0060 C3EB0313 		rsb	r3, r3, r3, lsl #4
 1009 0064 9B00     		lsls	r3, r3, #2
 313:Utilities/misc/stm32_systime.c ****         ( ( uint32_t )localtime->tm_hour * TM_SECONDS_IN_1HOUR ) );
 1010              		.loc 1 313 67 view .LVU297
 1011 0066 4FF46164 		mov	r4, #3600
 1012 006a 04FB0033 		mla	r3, r4, r0, r3
 1013 006e 0B44     		add	r3, r3, r1
 312:Utilities/misc/stm32_systime.c ****         ( ( uint32_t )localtime->tm_min * TM_SECONDS_IN_1MINUTE ) +
 1014              		.loc 1 312 10 view .LVU298
 1015 0070 0449     		ldr	r1, .L58+4
 1016 0072 01FB0233 		mla	r3, r1, r2, r3
 1017              	.LVL96:
 315:Utilities/misc/stm32_systime.c **** }
 1018              		.loc 1 315 3 is_stmt 1 view .LVU299
 316:Utilities/misc/stm32_systime.c **** 
 1019              		.loc 1 316 1 is_stmt 0 view .LVU300
 1020 0076 0448     		ldr	r0, .L58+8
 1021 0078 1844     		add	r0, r0, r3
 1022 007a 05B0     		add	sp, sp, #20
 1023              		.cfi_def_cfa_offset 12
ARM GAS  /tmp/ccViP0k0.s 			page 31


 1024              		@ sp needed
 1025 007c 30BD     		pop	{r4, r5, pc}
 1026              	.L59:
 1027 007e 00BF     		.align	2
 1028              	.L58:
 1029 0080 00000000 		.word	.LANCHOR0
 1030 0084 80510100 		.word	86400
 1031 0088 80473CFC 		.word	-63158400
 1032              		.cfi_endproc
 1033              	.LFE10:
 1035              		.section	.text.SysTimeLocalTime,"ax",%progbits
 1036              		.align	1
 1037              		.global	SysTimeLocalTime
 1038              		.syntax unified
 1039              		.thumb
 1040              		.thumb_func
 1042              	SysTimeLocalTime:
 1043              	.LVL97:
 1044              	.LFB11:
 319:Utilities/misc/stm32_systime.c ****   uint32_t correctionMonth[4] =
 1045              		.loc 1 319 1 is_stmt 1 view -0
 1046              		.cfi_startproc
 1047              		@ args = 0, pretend = 0, frame = 40
 1048              		@ frame_needed = 0, uses_anonymous_args = 0
 319:Utilities/misc/stm32_systime.c ****   uint32_t correctionMonth[4] =
 1049              		.loc 1 319 1 is_stmt 0 view .LVU302
 1050 0000 70B5     		push	{r4, r5, r6, lr}
 1051              		.cfi_def_cfa_offset 16
 1052              		.cfi_offset 4, -16
 1053              		.cfi_offset 5, -12
 1054              		.cfi_offset 6, -8
 1055              		.cfi_offset 14, -4
 1056 0002 8AB0     		sub	sp, sp, #40
 1057              		.cfi_def_cfa_offset 56
 1058 0004 0446     		mov	r4, r0
 1059 0006 0D46     		mov	r5, r1
 320:Utilities/misc/stm32_systime.c ****   {
 1060              		.loc 1 320 3 is_stmt 1 view .LVU303
 320:Utilities/misc/stm32_systime.c ****   {
 1061              		.loc 1 320 12 is_stmt 0 view .LVU304
 1062 0008 324B     		ldr	r3, .L62
 1063 000a 0FCB     		ldm	r3, {r0, r1, r2, r3}
 1064              	.LVL98:
 320:Utilities/misc/stm32_systime.c ****   {
 1065              		.loc 1 320 12 view .LVU305
 1066 000c 0AAE     		add	r6, sp, #40
 1067 000e 06E90F00 		stmdb	r6, {r0, r1, r2, r3}
 327:Utilities/misc/stm32_systime.c ****   uint32_t seconds;
 1068              		.loc 1 327 3 is_stmt 1 view .LVU306
 1069              	.LVL99:
 328:Utilities/misc/stm32_systime.c ****   uint32_t minutes;
 1070              		.loc 1 328 3 view .LVU307
 329:Utilities/misc/stm32_systime.c ****   uint32_t days;
 1071              		.loc 1 329 3 view .LVU308
 330:Utilities/misc/stm32_systime.c ****   uint32_t divOut;
 1072              		.loc 1 330 3 view .LVU309
 331:Utilities/misc/stm32_systime.c ****   uint32_t divReminder;
ARM GAS  /tmp/ccViP0k0.s 			page 32


 1073              		.loc 1 331 3 view .LVU310
 332:Utilities/misc/stm32_systime.c **** 
 1074              		.loc 1 332 3 view .LVU311
 334:Utilities/misc/stm32_systime.c **** 
 1075              		.loc 1 334 3 view .LVU312
 1076 0012 05AA     		add	r2, sp, #20
 1077 0014 03A9     		add	r1, sp, #12
 1078 0016 3048     		ldr	r0, .L62+4
 1079 0018 2044     		add	r0, r0, r4
 1080 001a FFF7FEFF 		bl	CalendarDiv86400
 1081              	.LVL100:
 337:Utilities/misc/stm32_systime.c ****   localtime->tm_sec = ( uint8_t )divReminder;
 1082              		.loc 1 337 3 view .LVU313
 1083 001e 01AC     		add	r4, sp, #4
 1084              	.LVL101:
 337:Utilities/misc/stm32_systime.c ****   localtime->tm_sec = ( uint8_t )divReminder;
 1085              		.loc 1 337 3 is_stmt 0 view .LVU314
 1086 0020 2246     		mov	r2, r4
 1087 0022 04A9     		add	r1, sp, #16
 1088 0024 0598     		ldr	r0, [sp, #20]
 1089 0026 FFF7FEFF 		bl	CalendarDiv60
 1090              	.LVL102:
 338:Utilities/misc/stm32_systime.c **** 
 1091              		.loc 1 338 3 is_stmt 1 view .LVU315
 338:Utilities/misc/stm32_systime.c **** 
 1092              		.loc 1 338 23 is_stmt 0 view .LVU316
 1093 002a 9DF80430 		ldrb	r3, [sp, #4]	@ zero_extendqisi2
 338:Utilities/misc/stm32_systime.c **** 
 1094              		.loc 1 338 21 view .LVU317
 1095 002e 2B60     		str	r3, [r5]
 341:Utilities/misc/stm32_systime.c ****   localtime->tm_min = ( uint8_t )divReminder;
 1096              		.loc 1 341 3 is_stmt 1 view .LVU318
 1097 0030 2246     		mov	r2, r4
 1098 0032 02A9     		add	r1, sp, #8
 1099 0034 0498     		ldr	r0, [sp, #16]
 1100 0036 FFF7FEFF 		bl	CalendarDiv60
 1101              	.LVL103:
 342:Utilities/misc/stm32_systime.c ****   localtime->tm_hour = ( uint8_t )divOut;
 1102              		.loc 1 342 3 view .LVU319
 342:Utilities/misc/stm32_systime.c ****   localtime->tm_hour = ( uint8_t )divOut;
 1103              		.loc 1 342 23 is_stmt 0 view .LVU320
 1104 003a 9DF80430 		ldrb	r3, [sp, #4]	@ zero_extendqisi2
 342:Utilities/misc/stm32_systime.c ****   localtime->tm_hour = ( uint8_t )divOut;
 1105              		.loc 1 342 21 view .LVU321
 1106 003e 6B60     		str	r3, [r5, #4]
 343:Utilities/misc/stm32_systime.c **** 
 1107              		.loc 1 343 3 is_stmt 1 view .LVU322
 343:Utilities/misc/stm32_systime.c **** 
 1108              		.loc 1 343 24 is_stmt 0 view .LVU323
 1109 0040 9DF80830 		ldrb	r3, [sp, #8]	@ zero_extendqisi2
 343:Utilities/misc/stm32_systime.c **** 
 1110              		.loc 1 343 22 view .LVU324
 1111 0044 AB60     		str	r3, [r5, #8]
 346:Utilities/misc/stm32_systime.c ****   days-= DIVC_BY_4( ( TM_DAYS_IN_YEAR * 3 + TM_DAYS_IN_LEAP_YEAR ) * localtime->tm_year );
 1112              		.loc 1 346 3 is_stmt 1 view .LVU325
 346:Utilities/misc/stm32_systime.c ****   days-= DIVC_BY_4( ( TM_DAYS_IN_YEAR * 3 + TM_DAYS_IN_LEAP_YEAR ) * localtime->tm_year );
 1113              		.loc 1 346 24 is_stmt 0 view .LVU326
ARM GAS  /tmp/ccViP0k0.s 			page 33


 1114 0046 039E     		ldr	r6, [sp, #12]
 1115 0048 244B     		ldr	r3, .L62+8
 1116 004a 45F6DE04 		movw	r4, #22750
 1117 004e 03FB0644 		mla	r4, r3, r6, r4
 1118 0052 640E     		lsrs	r4, r4, #25
 346:Utilities/misc/stm32_systime.c ****   days-= DIVC_BY_4( ( TM_DAYS_IN_YEAR * 3 + TM_DAYS_IN_LEAP_YEAR ) * localtime->tm_year );
 1119              		.loc 1 346 22 view .LVU327
 1120 0054 6C61     		str	r4, [r5, #20]
 347:Utilities/misc/stm32_systime.c **** 
 1121              		.loc 1 347 3 is_stmt 1 view .LVU328
 347:Utilities/misc/stm32_systime.c **** 
 1122              		.loc 1 347 10 is_stmt 0 view .LVU329
 1123 0056 40F2B553 		movw	r3, #1461
 1124 005a 04FB03F3 		mul	r3, r4, r3
 1125 005e 0333     		adds	r3, r3, #3
 347:Utilities/misc/stm32_systime.c **** 
 1126              		.loc 1 347 7 view .LVU330
 1127 0060 A6EB9306 		sub	r6, r6, r3, lsr #2
 1128 0064 0396     		str	r6, [sp, #12]
 349:Utilities/misc/stm32_systime.c **** 
 1129              		.loc 1 349 3 is_stmt 1 view .LVU331
 349:Utilities/misc/stm32_systime.c **** 
 1130              		.loc 1 349 22 is_stmt 0 view .LVU332
 1131 0066 EE61     		str	r6, [r5, #28]
 352:Utilities/misc/stm32_systime.c **** 
 1132              		.loc 1 352 3 is_stmt 1 view .LVU333
 352:Utilities/misc/stm32_systime.c **** 
 1133              		.loc 1 352 23 is_stmt 0 view .LVU334
 1134 0068 2146     		mov	r1, r4
 1135 006a 3046     		mov	r0, r6
 1136 006c FFF7FEFF 		bl	CalendarGetMonth
 1137              	.LVL104:
 1138 0070 0246     		mov	r2, r0
 352:Utilities/misc/stm32_systime.c **** 
 1139              		.loc 1 352 21 discriminator 1 view .LVU335
 1140 0072 2861     		str	r0, [r5, #16]
 355:Utilities/misc/stm32_systime.c ****   weekDays += days;
 1141              		.loc 1 355 3 is_stmt 1 view .LVU336
 355:Utilities/misc/stm32_systime.c ****   weekDays += days;
 1142              		.loc 1 355 15 is_stmt 0 view .LVU337
 1143 0074 04EB8403 		add	r3, r4, r4, lsl #2
 1144 0078 0333     		adds	r3, r3, #3
 1145 007a 9B10     		asrs	r3, r3, #2
 355:Utilities/misc/stm32_systime.c ****   weekDays += days;
 1146              		.loc 1 355 12 view .LVU338
 1147 007c 0133     		adds	r3, r3, #1
 1148              	.LVL105:
 356:Utilities/misc/stm32_systime.c ****   localtime->tm_wday = MODULO_7( weekDays );
 1149              		.loc 1 356 3 is_stmt 1 view .LVU339
 356:Utilities/misc/stm32_systime.c ****   localtime->tm_wday = MODULO_7( weekDays );
 1150              		.loc 1 356 12 is_stmt 0 view .LVU340
 1151 007e 3344     		add	r3, r3, r6
 1152              	.LVL106:
 357:Utilities/misc/stm32_systime.c **** 
 1153              		.loc 1 357 3 is_stmt 1 view .LVU341
 357:Utilities/misc/stm32_systime.c **** 
 1154              		.loc 1 357 24 is_stmt 0 view .LVU342
ARM GAS  /tmp/ccViP0k0.s 			page 34


 1155 0080 1749     		ldr	r1, .L62+12
 1156 0082 03FB0111 		mla	r1, r3, r1, r1
 1157 0086 490D     		lsrs	r1, r1, #21
 1158 0088 C1EBC101 		rsb	r1, r1, r1, lsl #3
 1159 008c 5B1A     		subs	r3, r3, r1
 1160              	.LVL107:
 357:Utilities/misc/stm32_systime.c **** 
 1161              		.loc 1 357 22 view .LVU343
 1162 008e AB61     		str	r3, [r5, #24]
 359:Utilities/misc/stm32_systime.c ****         ( ( ( correctionMonth[localtime->tm_year % 4] >> ( ( localtime->tm_mon ) * 2 ) ) & 0x03 ) )
 1163              		.loc 1 359 3 is_stmt 1 view .LVU344
 360:Utilities/misc/stm32_systime.c **** 
 1164              		.loc 1 360 50 is_stmt 0 view .LVU345
 1165 0090 6142     		rsbs	r1, r4, #0
 1166 0092 04F00303 		and	r3, r4, #3
 1167 0096 01F00301 		and	r1, r1, #3
 1168 009a 58BF     		it	pl
 1169 009c 4B42     		rsbpl	r3, r1, #0
 360:Utilities/misc/stm32_systime.c **** 
 1170              		.loc 1 360 30 view .LVU346
 1171 009e 0AA9     		add	r1, sp, #40
 1172 00a0 01EB8303 		add	r3, r1, r3, lsl #2
 1173 00a4 53F8100C 		ldr	r0, [r3, #-16]
 360:Utilities/misc/stm32_systime.c **** 
 1174              		.loc 1 360 82 view .LVU347
 1175 00a8 5300     		lsls	r3, r2, #1
 360:Utilities/misc/stm32_systime.c **** 
 1176              		.loc 1 360 55 view .LVU348
 1177 00aa D840     		lsrs	r0, r0, r3
 360:Utilities/misc/stm32_systime.c **** 
 1178              		.loc 1 360 90 view .LVU349
 1179 00ac 00F00300 		and	r0, r0, #3
 359:Utilities/misc/stm32_systime.c ****         ( ( ( correctionMonth[localtime->tm_year % 4] >> ( ( localtime->tm_mon ) * 2 ) ) & 0x03 ) )
 1180              		.loc 1 359 13 view .LVU350
 1181 00b0 C2EB0213 		rsb	r3, r2, r2, lsl #4
 1182 00b4 02EB8302 		add	r2, r2, r3, lsl #2
 1183 00b8 0132     		adds	r2, r2, #1
 359:Utilities/misc/stm32_systime.c ****         ( ( ( correctionMonth[localtime->tm_year % 4] >> ( ( localtime->tm_mon ) * 2 ) ) & 0x03 ) )
 1184              		.loc 1 359 8 view .LVU351
 1185 00ba A0EB6200 		sub	r0, r0, r2, asr #1
 1186 00be 3044     		add	r0, r0, r6
 1187 00c0 0390     		str	r0, [sp, #12]
 363:Utilities/misc/stm32_systime.c **** 
 1188              		.loc 1 363 3 is_stmt 1 view .LVU352
 363:Utilities/misc/stm32_systime.c **** 
 1189              		.loc 1 363 29 is_stmt 0 view .LVU353
 1190 00c2 0130     		adds	r0, r0, #1
 363:Utilities/misc/stm32_systime.c **** 
 1191              		.loc 1 363 22 view .LVU354
 1192 00c4 E860     		str	r0, [r5, #12]
 365:Utilities/misc/stm32_systime.c **** 
 1193              		.loc 1 365 3 is_stmt 1 view .LVU355
 365:Utilities/misc/stm32_systime.c **** 
 1194              		.loc 1 365 22 is_stmt 0 view .LVU356
 1195 00c6 4434     		adds	r4, r4, #68
 1196              	.LVL108:
 365:Utilities/misc/stm32_systime.c **** 
ARM GAS  /tmp/ccViP0k0.s 			page 35


 1197              		.loc 1 365 22 view .LVU357
 1198 00c8 6C61     		str	r4, [r5, #20]
 367:Utilities/misc/stm32_systime.c **** }
 1199              		.loc 1 367 3 is_stmt 1 view .LVU358
 367:Utilities/misc/stm32_systime.c **** }
 1200              		.loc 1 367 23 is_stmt 0 view .LVU359
 1201 00ca 4FF0FF33 		mov	r3, #-1
 1202 00ce 2B62     		str	r3, [r5, #32]
 368:Utilities/misc/stm32_systime.c **** 
 1203              		.loc 1 368 1 view .LVU360
 1204 00d0 0AB0     		add	sp, sp, #40
 1205              		.cfi_def_cfa_offset 16
 1206              		@ sp needed
 1207 00d2 70BD     		pop	{r4, r5, r6, pc}
 1208              	.LVL109:
 1209              	.L63:
 368:Utilities/misc/stm32_systime.c **** 
 1210              		.loc 1 368 1 view .LVU361
 1211              		.align	2
 1212              	.L62:
 1213 00d4 00000000 		.word	.LANCHOR0
 1214 00d8 80B8C303 		.word	63158400
 1215 00dc DB660100 		.word	91867
 1216 00e0 49920400 		.word	299593
 1217              		.cfi_endproc
 1218              	.LFE11:
 1220              		.global	WeekDayString
 1221              		.section	.rodata.str1.4,"aMS",%progbits,1
 1222              		.align	2
 1223              	.LC1:
 1224 0000 53756E00 		.ascii	"Sun\000"
 1225              		.align	2
 1226              	.LC2:
 1227 0004 4D6F6E00 		.ascii	"Mon\000"
 1228              		.align	2
 1229              	.LC3:
 1230 0008 54756500 		.ascii	"Tue\000"
 1231              		.align	2
 1232              	.LC4:
 1233 000c 57656400 		.ascii	"Wed\000"
 1234              		.align	2
 1235              	.LC5:
 1236 0010 54687500 		.ascii	"Thu\000"
 1237              		.align	2
 1238              	.LC6:
 1239 0014 46726900 		.ascii	"Fri\000"
 1240              		.align	2
 1241              	.LC7:
 1242 0018 53617400 		.ascii	"Sat\000"
 1243              		.section	.data.WeekDayString,"aw"
 1244              		.align	2
 1247              	WeekDayString:
 1248 0000 00000000 		.word	.LC1
 1249 0004 04000000 		.word	.LC2
 1250 0008 08000000 		.word	.LC3
 1251 000c 0C000000 		.word	.LC4
 1252 0010 10000000 		.word	.LC5
ARM GAS  /tmp/ccViP0k0.s 			page 36


 1253 0014 14000000 		.word	.LC6
 1254 0018 18000000 		.word	.LC7
 1255              		.section	.rodata
 1256              		.align	2
 1257              		.set	.LANCHOR0,. + 0
 1258              	.LC0:
 1259 0000 50554400 		.word	4478288
 1260 0004 A0AA9900 		.word	10070688
 1261 0008 A0AA9900 		.word	10070688
 1262 000c A0AA9900 		.word	10070688
 1263              		.text
 1264              	.Letext0:
 1265              		.file 2 "/home/zgsdlv/.arduino15/packages/STMicroelectronics/tools/xpack-arm-none-eabi-gcc/14.2.1-
 1266              		.file 3 "/home/zgsdlv/.arduino15/packages/STMicroelectronics/tools/xpack-arm-none-eabi-gcc/14.2.1-
 1267              		.file 4 "/home/zgsdlv/.arduino15/packages/STMicroelectronics/tools/xpack-arm-none-eabi-gcc/14.2.1-
 1268              		.file 5 "Utilities/misc/stm32_systime.h"
ARM GAS  /tmp/ccViP0k0.s 			page 37


DEFINED SYMBOLS
                            *ABS*:00000000 stm32_systime.c
     /tmp/ccViP0k0.s:19     .text.CalendarDiv86400:00000000 $t
     /tmp/ccViP0k0.s:24     .text.CalendarDiv86400:00000000 CalendarDiv86400
     /tmp/ccViP0k0.s:108    .text.CalendarDiv86400:00000038 $d
     /tmp/ccViP0k0.s:114    .text.CalendarDiv61:00000000 $t
     /tmp/ccViP0k0.s:119    .text.CalendarDiv61:00000000 CalendarDiv61
     /tmp/ccViP0k0.s:185    .text.CalendarDiv61:00000030 $d
     /tmp/ccViP0k0.s:190    .text.CalendarGetMonth:00000000 $t
     /tmp/ccViP0k0.s:195    .text.CalendarGetMonth:00000000 CalendarGetMonth
     /tmp/ccViP0k0.s:322    .text.CalendarDiv60:00000000 $t
     /tmp/ccViP0k0.s:327    .text.CalendarDiv60:00000000 CalendarDiv60
     /tmp/ccViP0k0.s:407    .text.SysTimeAdd:00000000 $t
     /tmp/ccViP0k0.s:413    .text.SysTimeAdd:00000000 SysTimeAdd
     /tmp/ccViP0k0.s:475    .text.SysTimeSub:00000000 $t
     /tmp/ccViP0k0.s:481    .text.SysTimeSub:00000000 SysTimeSub
     /tmp/ccViP0k0.s:548    .text.SysTimeSet:00000000 $t
     /tmp/ccViP0k0.s:554    .text.SysTimeSet:00000000 SysTimeSet
     /tmp/ccViP0k0.s:616    .text.SysTimeSet:00000040 $d
     /tmp/ccViP0k0.s:621    .text.SysTimeGet:00000000 $t
     /tmp/ccViP0k0.s:627    .text.SysTimeGet:00000000 SysTimeGet
     /tmp/ccViP0k0.s:703    .text.SysTimeGet:00000040 $d
     /tmp/ccViP0k0.s:708    .text.SysTimeGetMcuTime:00000000 $t
     /tmp/ccViP0k0.s:714    .text.SysTimeGetMcuTime:00000000 SysTimeGetMcuTime
     /tmp/ccViP0k0.s:762    .text.SysTimeGetMcuTime:00000028 $d
     /tmp/ccViP0k0.s:767    .text.SysTimeToMs:00000000 $t
     /tmp/ccViP0k0.s:773    .text.SysTimeToMs:00000000 SysTimeToMs
     /tmp/ccViP0k0.s:829    .text.SysTimeToMs:0000003c $d
     /tmp/ccViP0k0.s:834    .text.SysTimeFromMs:00000000 $t
     /tmp/ccViP0k0.s:840    .text.SysTimeFromMs:00000000 SysTimeFromMs
     /tmp/ccViP0k0.s:917    .text.SysTimeFromMs:00000050 $d
     /tmp/ccViP0k0.s:923    .text.SysTimeMkTime:00000000 $t
     /tmp/ccViP0k0.s:929    .text.SysTimeMkTime:00000000 SysTimeMkTime
     /tmp/ccViP0k0.s:1029   .text.SysTimeMkTime:00000080 $d
     /tmp/ccViP0k0.s:1036   .text.SysTimeLocalTime:00000000 $t
     /tmp/ccViP0k0.s:1042   .text.SysTimeLocalTime:00000000 SysTimeLocalTime
     /tmp/ccViP0k0.s:1213   .text.SysTimeLocalTime:000000d4 $d
     /tmp/ccViP0k0.s:1247   .data.WeekDayString:00000000 WeekDayString
     /tmp/ccViP0k0.s:1222   .rodata.str1.4:00000000 $d
     /tmp/ccViP0k0.s:1244   .data.WeekDayString:00000000 $d
     /tmp/ccViP0k0.s:1256   .rodata:00000000 $d

UNDEFINED SYMBOLS
UTIL_SYSTIMDriver
