ARM GAS  /tmp/ccHZbBY8.s 			page 1


   1              		.cpu cortex-m4
   2              		.arch armv7e-m
   3              		.fpu softvfp
   4              		.eabi_attribute 20, 1
   5              		.eabi_attribute 21, 1
   6              		.eabi_attribute 23, 3
   7              		.eabi_attribute 24, 1
   8              		.eabi_attribute 25, 1
   9              		.eabi_attribute 26, 1
  10              		.eabi_attribute 30, 1
  11              		.eabi_attribute 34, 1
  12              		.eabi_attribute 18, 4
  13              		.file	"stm32_lpm_if.c"
  14              		.text
  15              	.Ltext0:
  16              		.cfi_sections	.debug_frame
  17              		.file 1 "Core/Src/stm32_lpm_if.c"
  18              		.section	.text.PWR_EnterOffMode,"ax",%progbits
  19              		.align	1
  20              		.global	PWR_EnterOffMode
  21              		.syntax unified
  22              		.thumb
  23              		.thumb_func
  25              	PWR_EnterOffMode:
  26              	.LFB846:
   1:Core/Src/stm32_lpm_if.c **** /* USER CODE BEGIN Header */
   2:Core/Src/stm32_lpm_if.c **** /**
   3:Core/Src/stm32_lpm_if.c ****   ******************************************************************************
   4:Core/Src/stm32_lpm_if.c ****   * @file    stm32_lpm_if.c
   5:Core/Src/stm32_lpm_if.c ****   * @author  MCD Application Team
   6:Core/Src/stm32_lpm_if.c ****   * @brief   Low layer function to enter/exit low power modes (stop, sleep)
   7:Core/Src/stm32_lpm_if.c ****   ******************************************************************************
   8:Core/Src/stm32_lpm_if.c ****   * @attention
   9:Core/Src/stm32_lpm_if.c ****   *
  10:Core/Src/stm32_lpm_if.c ****   * Copyright (c) 2026 STMicroelectronics.
  11:Core/Src/stm32_lpm_if.c ****   * All rights reserved.
  12:Core/Src/stm32_lpm_if.c ****   *
  13:Core/Src/stm32_lpm_if.c ****   * This software is licensed under terms that can be found in the LICENSE file
  14:Core/Src/stm32_lpm_if.c ****   * in the root directory of this software component.
  15:Core/Src/stm32_lpm_if.c ****   * If no LICENSE file comes with this software, it is provided AS-IS.
  16:Core/Src/stm32_lpm_if.c ****   *
  17:Core/Src/stm32_lpm_if.c ****   ******************************************************************************
  18:Core/Src/stm32_lpm_if.c ****   */
  19:Core/Src/stm32_lpm_if.c **** /* USER CODE END Header */
  20:Core/Src/stm32_lpm_if.c **** 
  21:Core/Src/stm32_lpm_if.c **** /* Includes ------------------------------------------------------------------*/
  22:Core/Src/stm32_lpm_if.c **** #include "stm32_lpm.h"
  23:Core/Src/stm32_lpm_if.c **** #include "stm32_lpm_if.h"
  24:Core/Src/stm32_lpm_if.c **** #include "usart_if.h"
  25:Core/Src/stm32_lpm_if.c **** 
  26:Core/Src/stm32_lpm_if.c **** /* USER CODE BEGIN Includes */
  27:Core/Src/stm32_lpm_if.c **** 
  28:Core/Src/stm32_lpm_if.c **** /* USER CODE END Includes */
  29:Core/Src/stm32_lpm_if.c **** 
  30:Core/Src/stm32_lpm_if.c **** /* External variables ---------------------------------------------------------*/
  31:Core/Src/stm32_lpm_if.c **** /* USER CODE BEGIN EV */
  32:Core/Src/stm32_lpm_if.c **** 
ARM GAS  /tmp/ccHZbBY8.s 			page 2


  33:Core/Src/stm32_lpm_if.c **** /* USER CODE END EV */
  34:Core/Src/stm32_lpm_if.c **** 
  35:Core/Src/stm32_lpm_if.c **** /* Private typedef -----------------------------------------------------------*/
  36:Core/Src/stm32_lpm_if.c **** /**
  37:Core/Src/stm32_lpm_if.c ****   * @brief Power driver callbacks handler
  38:Core/Src/stm32_lpm_if.c ****   */
  39:Core/Src/stm32_lpm_if.c **** const struct UTIL_LPM_Driver_s UTIL_PowerDriver =
  40:Core/Src/stm32_lpm_if.c **** {
  41:Core/Src/stm32_lpm_if.c ****   PWR_EnterSleepMode,
  42:Core/Src/stm32_lpm_if.c ****   PWR_ExitSleepMode,
  43:Core/Src/stm32_lpm_if.c **** 
  44:Core/Src/stm32_lpm_if.c ****   PWR_EnterStopMode,
  45:Core/Src/stm32_lpm_if.c ****   PWR_ExitStopMode,
  46:Core/Src/stm32_lpm_if.c **** 
  47:Core/Src/stm32_lpm_if.c ****   PWR_EnterOffMode,
  48:Core/Src/stm32_lpm_if.c ****   PWR_ExitOffMode,
  49:Core/Src/stm32_lpm_if.c **** };
  50:Core/Src/stm32_lpm_if.c **** 
  51:Core/Src/stm32_lpm_if.c **** /* USER CODE BEGIN PTD */
  52:Core/Src/stm32_lpm_if.c **** 
  53:Core/Src/stm32_lpm_if.c **** /* USER CODE END PTD */
  54:Core/Src/stm32_lpm_if.c **** 
  55:Core/Src/stm32_lpm_if.c **** /* Private define ------------------------------------------------------------*/
  56:Core/Src/stm32_lpm_if.c **** /* USER CODE BEGIN PD */
  57:Core/Src/stm32_lpm_if.c **** 
  58:Core/Src/stm32_lpm_if.c **** /* USER CODE END PD */
  59:Core/Src/stm32_lpm_if.c **** 
  60:Core/Src/stm32_lpm_if.c **** /* Private macro -------------------------------------------------------------*/
  61:Core/Src/stm32_lpm_if.c **** /* USER CODE BEGIN PM */
  62:Core/Src/stm32_lpm_if.c **** 
  63:Core/Src/stm32_lpm_if.c **** /* USER CODE END PM */
  64:Core/Src/stm32_lpm_if.c **** 
  65:Core/Src/stm32_lpm_if.c **** /* Private variables ---------------------------------------------------------*/
  66:Core/Src/stm32_lpm_if.c **** /* USER CODE BEGIN PV */
  67:Core/Src/stm32_lpm_if.c **** 
  68:Core/Src/stm32_lpm_if.c **** /* USER CODE END PV */
  69:Core/Src/stm32_lpm_if.c **** 
  70:Core/Src/stm32_lpm_if.c **** /* Private function prototypes -----------------------------------------------*/
  71:Core/Src/stm32_lpm_if.c **** /* USER CODE BEGIN PFP */
  72:Core/Src/stm32_lpm_if.c **** 
  73:Core/Src/stm32_lpm_if.c **** /* USER CODE END PFP */
  74:Core/Src/stm32_lpm_if.c **** 
  75:Core/Src/stm32_lpm_if.c **** /* Exported functions --------------------------------------------------------*/
  76:Core/Src/stm32_lpm_if.c **** 
  77:Core/Src/stm32_lpm_if.c **** void PWR_EnterOffMode(void)
  78:Core/Src/stm32_lpm_if.c **** {
  27              		.loc 1 78 1 view -0
  28              		.cfi_startproc
  29              		@ args = 0, pretend = 0, frame = 0
  30              		@ frame_needed = 0, uses_anonymous_args = 0
  31              		@ link register save eliminated.
  79:Core/Src/stm32_lpm_if.c ****   /* USER CODE BEGIN EnterOffMode_1 */
  80:Core/Src/stm32_lpm_if.c **** 
  81:Core/Src/stm32_lpm_if.c ****   /* USER CODE END EnterOffMode_1 */
  82:Core/Src/stm32_lpm_if.c **** }
  32              		.loc 1 82 1 view .LVU1
  33 0000 7047     		bx	lr
ARM GAS  /tmp/ccHZbBY8.s 			page 3


  34              		.cfi_endproc
  35              	.LFE846:
  37              		.section	.text.PWR_ExitOffMode,"ax",%progbits
  38              		.align	1
  39              		.global	PWR_ExitOffMode
  40              		.syntax unified
  41              		.thumb
  42              		.thumb_func
  44              	PWR_ExitOffMode:
  45              	.LFB847:
  83:Core/Src/stm32_lpm_if.c **** 
  84:Core/Src/stm32_lpm_if.c **** void PWR_ExitOffMode(void)
  85:Core/Src/stm32_lpm_if.c **** {
  46              		.loc 1 85 1 view -0
  47              		.cfi_startproc
  48              		@ args = 0, pretend = 0, frame = 0
  49              		@ frame_needed = 0, uses_anonymous_args = 0
  50              		@ link register save eliminated.
  86:Core/Src/stm32_lpm_if.c ****   /* USER CODE BEGIN ExitOffMode_1 */
  87:Core/Src/stm32_lpm_if.c **** 
  88:Core/Src/stm32_lpm_if.c ****   /* USER CODE END ExitOffMode_1 */
  89:Core/Src/stm32_lpm_if.c **** }
  51              		.loc 1 89 1 view .LVU3
  52 0000 7047     		bx	lr
  53              		.cfi_endproc
  54              	.LFE847:
  56              		.section	.text.PWR_EnterStopMode,"ax",%progbits
  57              		.align	1
  58              		.global	PWR_EnterStopMode
  59              		.syntax unified
  60              		.thumb
  61              		.thumb_func
  63              	PWR_EnterStopMode:
  64              	.LFB848:
  90:Core/Src/stm32_lpm_if.c **** 
  91:Core/Src/stm32_lpm_if.c **** void PWR_EnterStopMode(void)
  92:Core/Src/stm32_lpm_if.c **** {
  65              		.loc 1 92 1 view -0
  66              		.cfi_startproc
  67              		@ args = 0, pretend = 0, frame = 0
  68              		@ frame_needed = 0, uses_anonymous_args = 0
  69              		@ link register save eliminated.
  93:Core/Src/stm32_lpm_if.c ****   /* USER CODE BEGIN EnterStopMode_1 */
  94:Core/Src/stm32_lpm_if.c **** 
  95:Core/Src/stm32_lpm_if.c ****   /* USER CODE END EnterStopMode_1 */
  96:Core/Src/stm32_lpm_if.c **** }
  70              		.loc 1 96 1 view .LVU5
  71 0000 7047     		bx	lr
  72              		.cfi_endproc
  73              	.LFE848:
  75              		.section	.text.PWR_ExitStopMode,"ax",%progbits
  76              		.align	1
  77              		.global	PWR_ExitStopMode
  78              		.syntax unified
  79              		.thumb
  80              		.thumb_func
  82              	PWR_ExitStopMode:
ARM GAS  /tmp/ccHZbBY8.s 			page 4


  83              	.LFB849:
  97:Core/Src/stm32_lpm_if.c **** 
  98:Core/Src/stm32_lpm_if.c **** void PWR_ExitStopMode(void)
  99:Core/Src/stm32_lpm_if.c **** {
  84              		.loc 1 99 1 view -0
  85              		.cfi_startproc
  86              		@ args = 0, pretend = 0, frame = 0
  87              		@ frame_needed = 0, uses_anonymous_args = 0
  88              		@ link register save eliminated.
 100:Core/Src/stm32_lpm_if.c ****   /* USER CODE BEGIN ExitStopMode_1 */
 101:Core/Src/stm32_lpm_if.c **** 
 102:Core/Src/stm32_lpm_if.c ****   /* USER CODE END ExitStopMode_1 */
 103:Core/Src/stm32_lpm_if.c **** }
  89              		.loc 1 103 1 view .LVU7
  90 0000 7047     		bx	lr
  91              		.cfi_endproc
  92              	.LFE849:
  94              		.section	.text.PWR_EnterSleepMode,"ax",%progbits
  95              		.align	1
  96              		.global	PWR_EnterSleepMode
  97              		.syntax unified
  98              		.thumb
  99              		.thumb_func
 101              	PWR_EnterSleepMode:
 102              	.LFB850:
 104:Core/Src/stm32_lpm_if.c **** 
 105:Core/Src/stm32_lpm_if.c **** void PWR_EnterSleepMode(void)
 106:Core/Src/stm32_lpm_if.c **** {
 103              		.loc 1 106 1 view -0
 104              		.cfi_startproc
 105              		@ args = 0, pretend = 0, frame = 0
 106              		@ frame_needed = 0, uses_anonymous_args = 0
 107              		@ link register save eliminated.
 107:Core/Src/stm32_lpm_if.c ****   /* USER CODE BEGIN EnterSleepMode_1 */
 108:Core/Src/stm32_lpm_if.c **** 
 109:Core/Src/stm32_lpm_if.c ****   /* USER CODE END EnterSleepMode_1 */
 110:Core/Src/stm32_lpm_if.c **** }
 108              		.loc 1 110 1 view .LVU9
 109 0000 7047     		bx	lr
 110              		.cfi_endproc
 111              	.LFE850:
 113              		.section	.text.PWR_ExitSleepMode,"ax",%progbits
 114              		.align	1
 115              		.global	PWR_ExitSleepMode
 116              		.syntax unified
 117              		.thumb
 118              		.thumb_func
 120              	PWR_ExitSleepMode:
 121              	.LFB851:
 111:Core/Src/stm32_lpm_if.c **** 
 112:Core/Src/stm32_lpm_if.c **** void PWR_ExitSleepMode(void)
 113:Core/Src/stm32_lpm_if.c **** {
 122              		.loc 1 113 1 view -0
 123              		.cfi_startproc
 124              		@ args = 0, pretend = 0, frame = 0
 125              		@ frame_needed = 0, uses_anonymous_args = 0
 126              		@ link register save eliminated.
ARM GAS  /tmp/ccHZbBY8.s 			page 5


 114:Core/Src/stm32_lpm_if.c ****   /* USER CODE BEGIN ExitSleepMode_1 */
 115:Core/Src/stm32_lpm_if.c **** 
 116:Core/Src/stm32_lpm_if.c ****   /* USER CODE END ExitSleepMode_1 */
 117:Core/Src/stm32_lpm_if.c **** }
 127              		.loc 1 117 1 view .LVU11
 128 0000 7047     		bx	lr
 129              		.cfi_endproc
 130              	.LFE851:
 132              		.global	UTIL_PowerDriver
 133              		.section	.rodata.UTIL_PowerDriver,"a"
 134              		.align	2
 137              	UTIL_PowerDriver:
 138 0000 00000000 		.word	PWR_EnterSleepMode
 139 0004 00000000 		.word	PWR_ExitSleepMode
 140 0008 00000000 		.word	PWR_EnterStopMode
 141 000c 00000000 		.word	PWR_ExitStopMode
 142 0010 00000000 		.word	PWR_EnterOffMode
 143 0014 00000000 		.word	PWR_ExitOffMode
 144              		.text
 145              	.Letext0:
 146              		.file 2 "/home/zgsdlv/.arduino15/packages/STMicroelectronics/tools/xpack-arm-none-eabi-gcc/14.2.1-
 147              		.file 3 "/home/zgsdlv/.arduino15/packages/STMicroelectronics/tools/xpack-arm-none-eabi-gcc/14.2.1-
 148              		.file 4 "Utilities/lpm/tiny_lpm/stm32_lpm.h"
 149              		.file 5 "Drivers/STM32WLxx_HAL_Driver/Inc/stm32wlxx_ll_dma.h"
ARM GAS  /tmp/ccHZbBY8.s 			page 6

