ARM GAS  /tmp/cczoJ1Fh.s 			page 1


   1              		.cpu cortex-m4
   2              		.arch armv7e-m
   3              		.fpu softvfp
   4              		.eabi_attribute 20, 1
   5              		.eabi_attribute 21, 1
   6              		.eabi_attribute 23, 3
   7              		.eabi_attribute 24, 1
   8              		.eabi_attribute 25, 1
   9              		.eabi_attribute 26, 1
  10              		.eabi_attribute 30, 1
  11              		.eabi_attribute 34, 1
  12              		.eabi_attribute 18, 4
  13              		.file	"stm32wlxx_it.c"
  14              		.text
  15              	.Ltext0:
  16              		.cfi_sections	.debug_frame
  17              		.file 1 "Core/Src/stm32wlxx_it.c"
  18              		.section	.text.prvGetRegistersFromStack,"ax",%progbits
  19              		.align	1
  20              		.global	prvGetRegistersFromStack
  21              		.syntax unified
  22              		.thumb
  23              		.thumb_func
  25              	prvGetRegistersFromStack:
  26              	.LVL0:
  27              	.LFB846:
   1:Core/Src/stm32wlxx_it.c **** /* USER CODE BEGIN Header */
   2:Core/Src/stm32wlxx_it.c **** /**
   3:Core/Src/stm32wlxx_it.c ****   ******************************************************************************
   4:Core/Src/stm32wlxx_it.c ****   * @file    stm32wlxx_it.c
   5:Core/Src/stm32wlxx_it.c ****   * @brief   Interrupt Service Routines.
   6:Core/Src/stm32wlxx_it.c ****   ******************************************************************************
   7:Core/Src/stm32wlxx_it.c ****   * @attention
   8:Core/Src/stm32wlxx_it.c ****   *
   9:Core/Src/stm32wlxx_it.c ****   * Copyright (c) 2026 STMicroelectronics.
  10:Core/Src/stm32wlxx_it.c ****   * All rights reserved.
  11:Core/Src/stm32wlxx_it.c ****   *
  12:Core/Src/stm32wlxx_it.c ****   * This software is licensed under terms that can be found in the LICENSE file
  13:Core/Src/stm32wlxx_it.c ****   * in the root directory of this software component.
  14:Core/Src/stm32wlxx_it.c ****   * If no LICENSE file comes with this software, it is provided AS-IS.
  15:Core/Src/stm32wlxx_it.c ****   *
  16:Core/Src/stm32wlxx_it.c ****   ******************************************************************************
  17:Core/Src/stm32wlxx_it.c ****   */
  18:Core/Src/stm32wlxx_it.c **** /* USER CODE END Header */
  19:Core/Src/stm32wlxx_it.c **** 
  20:Core/Src/stm32wlxx_it.c **** /* Includes ------------------------------------------------------------------*/
  21:Core/Src/stm32wlxx_it.c **** #include "main.h"
  22:Core/Src/stm32wlxx_it.c **** #include "stm32wlxx_it.h"
  23:Core/Src/stm32wlxx_it.c **** /* Private includes ----------------------------------------------------------*/
  24:Core/Src/stm32wlxx_it.c **** /* USER CODE BEGIN Includes */
  25:Core/Src/stm32wlxx_it.c **** /* USER CODE END Includes */
  26:Core/Src/stm32wlxx_it.c **** 
  27:Core/Src/stm32wlxx_it.c **** /* Private typedef -----------------------------------------------------------*/
  28:Core/Src/stm32wlxx_it.c **** /* USER CODE BEGIN TD */
  29:Core/Src/stm32wlxx_it.c **** 
  30:Core/Src/stm32wlxx_it.c **** /* USER CODE END TD */
  31:Core/Src/stm32wlxx_it.c **** 
ARM GAS  /tmp/cczoJ1Fh.s 			page 2


  32:Core/Src/stm32wlxx_it.c **** /* Private define ------------------------------------------------------------*/
  33:Core/Src/stm32wlxx_it.c **** /* USER CODE BEGIN PD */
  34:Core/Src/stm32wlxx_it.c **** 
  35:Core/Src/stm32wlxx_it.c **** /* USER CODE END PD */
  36:Core/Src/stm32wlxx_it.c **** 
  37:Core/Src/stm32wlxx_it.c **** /* Private macro -------------------------------------------------------------*/
  38:Core/Src/stm32wlxx_it.c **** /* USER CODE BEGIN PM */
  39:Core/Src/stm32wlxx_it.c **** 
  40:Core/Src/stm32wlxx_it.c **** /* USER CODE END PM */
  41:Core/Src/stm32wlxx_it.c **** 
  42:Core/Src/stm32wlxx_it.c **** /* Private variables ---------------------------------------------------------*/
  43:Core/Src/stm32wlxx_it.c **** /* USER CODE BEGIN PV */
  44:Core/Src/stm32wlxx_it.c **** 
  45:Core/Src/stm32wlxx_it.c **** /* USER CODE END PV */
  46:Core/Src/stm32wlxx_it.c **** 
  47:Core/Src/stm32wlxx_it.c **** /* Private function prototypes -----------------------------------------------*/
  48:Core/Src/stm32wlxx_it.c **** /* USER CODE BEGIN PFP */
  49:Core/Src/stm32wlxx_it.c **** 
  50:Core/Src/stm32wlxx_it.c **** /* USER CODE END PFP */
  51:Core/Src/stm32wlxx_it.c **** 
  52:Core/Src/stm32wlxx_it.c **** /* Private user code ---------------------------------------------------------*/
  53:Core/Src/stm32wlxx_it.c **** /* USER CODE BEGIN 0 */
  54:Core/Src/stm32wlxx_it.c **** void prvGetRegistersFromStack(uint32_t *pulFaultStackAddress)
  55:Core/Src/stm32wlxx_it.c **** {
  28              		.loc 1 55 1 view -0
  29              		.cfi_startproc
  30              		@ Volatile: function does not return.
  31              		@ args = 0, pretend = 0, frame = 48
  32              		@ frame_needed = 0, uses_anonymous_args = 0
  33              		@ link register save eliminated.
  34              		.loc 1 55 1 is_stmt 0 view .LVU1
  35 0000 8CB0     		sub	sp, sp, #48
  36              		.cfi_def_cfa_offset 48
  56:Core/Src/stm32wlxx_it.c ****   volatile uint32_t r0  = pulFaultStackAddress[0];
  37              		.loc 1 56 3 is_stmt 1 view .LVU2
  38              		.loc 1 56 47 is_stmt 0 view .LVU3
  39 0002 0368     		ldr	r3, [r0]
  40              		.loc 1 56 21 view .LVU4
  41 0004 0B93     		str	r3, [sp, #44]
  57:Core/Src/stm32wlxx_it.c ****   volatile uint32_t r1  = pulFaultStackAddress[1];
  42              		.loc 1 57 3 is_stmt 1 view .LVU5
  43              		.loc 1 57 21 is_stmt 0 view .LVU6
  44 0006 4368     		ldr	r3, [r0, #4]
  45 0008 0A93     		str	r3, [sp, #40]
  58:Core/Src/stm32wlxx_it.c ****   volatile uint32_t r2  = pulFaultStackAddress[2];
  46              		.loc 1 58 3 is_stmt 1 view .LVU7
  47              		.loc 1 58 21 is_stmt 0 view .LVU8
  48 000a 8368     		ldr	r3, [r0, #8]
  49 000c 0993     		str	r3, [sp, #36]
  59:Core/Src/stm32wlxx_it.c ****   volatile uint32_t r3  = pulFaultStackAddress[3];
  50              		.loc 1 59 3 is_stmt 1 view .LVU9
  51              		.loc 1 59 21 is_stmt 0 view .LVU10
  52 000e C368     		ldr	r3, [r0, #12]
  53 0010 0893     		str	r3, [sp, #32]
  60:Core/Src/stm32wlxx_it.c ****   volatile uint32_t r12 = pulFaultStackAddress[4];
  54              		.loc 1 60 3 is_stmt 1 view .LVU11
  55              		.loc 1 60 21 is_stmt 0 view .LVU12
ARM GAS  /tmp/cczoJ1Fh.s 			page 3


  56 0012 0369     		ldr	r3, [r0, #16]
  57 0014 0793     		str	r3, [sp, #28]
  61:Core/Src/stm32wlxx_it.c ****   volatile uint32_t lr  = pulFaultStackAddress[5];
  58              		.loc 1 61 3 is_stmt 1 view .LVU13
  59              		.loc 1 61 21 is_stmt 0 view .LVU14
  60 0016 4369     		ldr	r3, [r0, #20]
  61 0018 0693     		str	r3, [sp, #24]
  62:Core/Src/stm32wlxx_it.c ****   volatile uint32_t pc  = pulFaultStackAddress[6];
  62              		.loc 1 62 3 is_stmt 1 view .LVU15
  63              		.loc 1 62 21 is_stmt 0 view .LVU16
  64 001a 8369     		ldr	r3, [r0, #24]
  65 001c 0593     		str	r3, [sp, #20]
  63:Core/Src/stm32wlxx_it.c ****   volatile uint32_t psr = pulFaultStackAddress[7];
  66              		.loc 1 63 3 is_stmt 1 view .LVU17
  67              		.loc 1 63 21 is_stmt 0 view .LVU18
  68 001e C369     		ldr	r3, [r0, #28]
  69 0020 0493     		str	r3, [sp, #16]
  64:Core/Src/stm32wlxx_it.c **** 
  65:Core/Src/stm32wlxx_it.c ****   volatile uint32_t cfsr  = SCB->CFSR;
  70              		.loc 1 65 3 is_stmt 1 view .LVU19
  71              		.loc 1 65 32 is_stmt 0 view .LVU20
  72 0022 0B4B     		ldr	r3, .L4
  73 0024 9A6A     		ldr	r2, [r3, #40]
  74              		.loc 1 65 21 view .LVU21
  75 0026 0392     		str	r2, [sp, #12]
  66:Core/Src/stm32wlxx_it.c ****   volatile uint32_t hfsr  = SCB->HFSR;
  76              		.loc 1 66 3 is_stmt 1 view .LVU22
  77              		.loc 1 66 32 is_stmt 0 view .LVU23
  78 0028 DA6A     		ldr	r2, [r3, #44]
  79              		.loc 1 66 21 view .LVU24
  80 002a 0292     		str	r2, [sp, #8]
  67:Core/Src/stm32wlxx_it.c ****   volatile uint32_t bfar  = SCB->BFAR;
  81              		.loc 1 67 3 is_stmt 1 view .LVU25
  82              		.loc 1 67 32 is_stmt 0 view .LVU26
  83 002c 9A6B     		ldr	r2, [r3, #56]
  84              		.loc 1 67 21 view .LVU27
  85 002e 0192     		str	r2, [sp, #4]
  68:Core/Src/stm32wlxx_it.c ****   volatile uint32_t mmfar = SCB->MMFAR;
  86              		.loc 1 68 3 is_stmt 1 view .LVU28
  87              		.loc 1 68 32 is_stmt 0 view .LVU29
  88 0030 5B6B     		ldr	r3, [r3, #52]
  89              		.loc 1 68 21 view .LVU30
  90 0032 0093     		str	r3, [sp]
  69:Core/Src/stm32wlxx_it.c **** 
  70:Core/Src/stm32wlxx_it.c ****   (void)r0; (void)r1; (void)r2; (void)r3; (void)r12;
  91              		.loc 1 70 3 is_stmt 1 view .LVU31
  92 0034 0B9B     		ldr	r3, [sp, #44]
  93              		.loc 1 70 13 view .LVU32
  94 0036 0A9B     		ldr	r3, [sp, #40]
  95              		.loc 1 70 23 view .LVU33
  96 0038 099B     		ldr	r3, [sp, #36]
  97              		.loc 1 70 33 view .LVU34
  98 003a 089B     		ldr	r3, [sp, #32]
  99              		.loc 1 70 43 view .LVU35
 100 003c 079B     		ldr	r3, [sp, #28]
  71:Core/Src/stm32wlxx_it.c ****   (void)lr; (void)pc; (void)psr;
 101              		.loc 1 71 3 view .LVU36
ARM GAS  /tmp/cczoJ1Fh.s 			page 4


 102 003e 069B     		ldr	r3, [sp, #24]
 103              		.loc 1 71 13 view .LVU37
 104 0040 059B     		ldr	r3, [sp, #20]
 105              		.loc 1 71 23 view .LVU38
 106 0042 049B     		ldr	r3, [sp, #16]
  72:Core/Src/stm32wlxx_it.c ****   (void)cfsr; (void)hfsr; (void)bfar; (void)mmfar;
 107              		.loc 1 72 3 view .LVU39
 108 0044 039B     		ldr	r3, [sp, #12]
 109              		.loc 1 72 15 view .LVU40
 110 0046 029B     		ldr	r3, [sp, #8]
 111              		.loc 1 72 27 view .LVU41
 112 0048 019B     		ldr	r3, [sp, #4]
 113              		.loc 1 72 39 view .LVU42
 114 004a 009B     		ldr	r3, [sp]
 115              	.L2:
  73:Core/Src/stm32wlxx_it.c **** 
  74:Core/Src/stm32wlxx_it.c ****   for(;;);
 116              		.loc 1 74 3 view .LVU43
 117              		.loc 1 74 3 view .LVU44
 118 004c FEE7     		b	.L2
 119              	.L5:
 120 004e 00BF     		.align	2
 121              	.L4:
 122 0050 00ED00E0 		.word	-536810240
 123              		.cfi_endproc
 124              	.LFE846:
 126              		.section	.text.NMI_Handler,"ax",%progbits
 127              		.align	1
 128              		.global	NMI_Handler
 129              		.syntax unified
 130              		.thumb
 131              		.thumb_func
 133              	NMI_Handler:
 134              	.LFB847:
  75:Core/Src/stm32wlxx_it.c **** }
  76:Core/Src/stm32wlxx_it.c **** /* USER CODE END 0 */
  77:Core/Src/stm32wlxx_it.c **** 
  78:Core/Src/stm32wlxx_it.c **** /* External variables --------------------------------------------------------*/
  79:Core/Src/stm32wlxx_it.c **** extern DMA_HandleTypeDef hdma_usart1_tx;
  80:Core/Src/stm32wlxx_it.c **** extern UART_HandleTypeDef huart1;
  81:Core/Src/stm32wlxx_it.c **** extern TIM_HandleTypeDef htim17;
  82:Core/Src/stm32wlxx_it.c **** 
  83:Core/Src/stm32wlxx_it.c **** /* USER CODE BEGIN EV */
  84:Core/Src/stm32wlxx_it.c **** 
  85:Core/Src/stm32wlxx_it.c **** /* USER CODE END EV */
  86:Core/Src/stm32wlxx_it.c **** 
  87:Core/Src/stm32wlxx_it.c **** /******************************************************************************/
  88:Core/Src/stm32wlxx_it.c **** /*           Cortex Processor Interruption and Exception Handlers          */
  89:Core/Src/stm32wlxx_it.c **** /******************************************************************************/
  90:Core/Src/stm32wlxx_it.c **** /**
  91:Core/Src/stm32wlxx_it.c ****   * @brief This function handles Non maskable interrupt.
  92:Core/Src/stm32wlxx_it.c ****   */
  93:Core/Src/stm32wlxx_it.c **** void NMI_Handler(void)
  94:Core/Src/stm32wlxx_it.c **** {
 135              		.loc 1 94 1 view -0
 136              		.cfi_startproc
 137              		@ Volatile: function does not return.
ARM GAS  /tmp/cczoJ1Fh.s 			page 5


 138              		@ args = 0, pretend = 0, frame = 0
 139              		@ frame_needed = 0, uses_anonymous_args = 0
 140              		@ link register save eliminated.
 141              	.L7:
  95:Core/Src/stm32wlxx_it.c ****   /* USER CODE BEGIN NonMaskableInt_IRQn 0 */
  96:Core/Src/stm32wlxx_it.c **** 
  97:Core/Src/stm32wlxx_it.c ****   /* USER CODE END NonMaskableInt_IRQn 0 */
  98:Core/Src/stm32wlxx_it.c ****   /* USER CODE BEGIN NonMaskableInt_IRQn 1 */
  99:Core/Src/stm32wlxx_it.c ****    while (1)
 142              		.loc 1 99 4 view .LVU46
 100:Core/Src/stm32wlxx_it.c ****   {
 101:Core/Src/stm32wlxx_it.c ****   }
 143              		.loc 1 101 3 view .LVU47
  99:Core/Src/stm32wlxx_it.c ****   {
 144              		.loc 1 99 10 view .LVU48
 145 0000 FEE7     		b	.L7
 146              		.cfi_endproc
 147              	.LFE847:
 149              		.section	.text.HardFault_Handler,"ax",%progbits
 150              		.align	1
 151              		.global	HardFault_Handler
 152              		.syntax unified
 153              		.thumb
 154              		.thumb_func
 156              	HardFault_Handler:
 157              	.LFB848:
 102:Core/Src/stm32wlxx_it.c ****   /* USER CODE END NonMaskableInt_IRQn 1 */
 103:Core/Src/stm32wlxx_it.c **** }
 104:Core/Src/stm32wlxx_it.c **** 
 105:Core/Src/stm32wlxx_it.c **** /**
 106:Core/Src/stm32wlxx_it.c ****   * @brief This function handles Hard fault interrupt.
 107:Core/Src/stm32wlxx_it.c ****   */
 108:Core/Src/stm32wlxx_it.c **** void HardFault_Handler(void)
 109:Core/Src/stm32wlxx_it.c **** {
 158              		.loc 1 109 1 view -0
 159              		.cfi_startproc
 160              		@ Volatile: function does not return.
 161              		@ args = 0, pretend = 0, frame = 0
 162              		@ frame_needed = 0, uses_anonymous_args = 0
 163              		@ link register save eliminated.
 110:Core/Src/stm32wlxx_it.c ****   /* USER CODE BEGIN HardFault_IRQn 0 */
 111:Core/Src/stm32wlxx_it.c ****   __asm volatile(
 164              		.loc 1 111 3 view .LVU50
 165              		.syntax unified
 166              	@ 111 "Core/Src/stm32wlxx_it.c" 1
 167 0000 1EF0040F 		 tst lr, #4          
 168 0004 0CBF     	 ite eq              
 169 0006 EFF30880 	 mrseq r0, msp       
 170 000a EFF30980 	 mrsne r0, psp       
 171 000e 0149     	 ldr r1, =prvGetRegistersFromStack 
 172 0010 0847     	 bx r1               
 173              	
 174              	@ 0 "" 2
 175              		.thumb
 176              		.syntax unified
 177              	.L9:
 112:Core/Src/stm32wlxx_it.c ****     " tst lr, #4          \n" /* Check EXC_RETURN bit 2: 0=MSP, 1=PSP */
ARM GAS  /tmp/cczoJ1Fh.s 			page 6


 113:Core/Src/stm32wlxx_it.c ****     " ite eq              \n"
 114:Core/Src/stm32wlxx_it.c ****     " mrseq r0, msp       \n" /* Fault on MSP (main stack) */
 115:Core/Src/stm32wlxx_it.c ****     " mrsne r0, psp       \n" /* Fault on PSP (task stack — most likely) */
 116:Core/Src/stm32wlxx_it.c ****     " ldr r1, =prvGetRegistersFromStack \n"
 117:Core/Src/stm32wlxx_it.c ****     " bx r1               \n"
 118:Core/Src/stm32wlxx_it.c ****   );
 119:Core/Src/stm32wlxx_it.c ****   /* USER CODE END HardFault_IRQn 0 */
 120:Core/Src/stm32wlxx_it.c ****   while (1)
 178              		.loc 1 120 3 view .LVU51
 121:Core/Src/stm32wlxx_it.c ****   {
 122:Core/Src/stm32wlxx_it.c ****     /* USER CODE BEGIN W1_HardFault_IRQn 0 */
 123:Core/Src/stm32wlxx_it.c ****     /* USER CODE END W1_HardFault_IRQn 0 */
 124:Core/Src/stm32wlxx_it.c ****   }
 179              		.loc 1 124 3 view .LVU52
 120:Core/Src/stm32wlxx_it.c ****   {
 180              		.loc 1 120 9 view .LVU53
 181 0012 FEE7     		b	.L9
 182              		.cfi_endproc
 183              	.LFE848:
 185              		.section	.text.MemManage_Handler,"ax",%progbits
 186              		.align	1
 187              		.global	MemManage_Handler
 188              		.syntax unified
 189              		.thumb
 190              		.thumb_func
 192              	MemManage_Handler:
 193              	.LFB849:
 125:Core/Src/stm32wlxx_it.c **** }
 126:Core/Src/stm32wlxx_it.c **** 
 127:Core/Src/stm32wlxx_it.c **** /**
 128:Core/Src/stm32wlxx_it.c ****   * @brief This function handles Memory management fault.
 129:Core/Src/stm32wlxx_it.c ****   */
 130:Core/Src/stm32wlxx_it.c **** void MemManage_Handler(void)
 131:Core/Src/stm32wlxx_it.c **** {
 194              		.loc 1 131 1 view -0
 195              		.cfi_startproc
 196              		@ Volatile: function does not return.
 197              		@ args = 0, pretend = 0, frame = 0
 198              		@ frame_needed = 0, uses_anonymous_args = 0
 199              		@ link register save eliminated.
 200              	.L11:
 132:Core/Src/stm32wlxx_it.c ****   /* USER CODE BEGIN MemoryManagement_IRQn 0 */
 133:Core/Src/stm32wlxx_it.c **** 
 134:Core/Src/stm32wlxx_it.c ****   /* USER CODE END MemoryManagement_IRQn 0 */
 135:Core/Src/stm32wlxx_it.c ****   while (1)
 201              		.loc 1 135 3 view .LVU55
 136:Core/Src/stm32wlxx_it.c ****   {
 137:Core/Src/stm32wlxx_it.c ****     /* USER CODE BEGIN W1_MemoryManagement_IRQn 0 */
 138:Core/Src/stm32wlxx_it.c ****     /* USER CODE END W1_MemoryManagement_IRQn 0 */
 139:Core/Src/stm32wlxx_it.c ****   }
 202              		.loc 1 139 3 view .LVU56
 135:Core/Src/stm32wlxx_it.c ****   {
 203              		.loc 1 135 9 view .LVU57
 204 0000 FEE7     		b	.L11
 205              		.cfi_endproc
 206              	.LFE849:
 208              		.section	.text.BusFault_Handler,"ax",%progbits
ARM GAS  /tmp/cczoJ1Fh.s 			page 7


 209              		.align	1
 210              		.global	BusFault_Handler
 211              		.syntax unified
 212              		.thumb
 213              		.thumb_func
 215              	BusFault_Handler:
 216              	.LFB850:
 140:Core/Src/stm32wlxx_it.c **** }
 141:Core/Src/stm32wlxx_it.c **** 
 142:Core/Src/stm32wlxx_it.c **** /**
 143:Core/Src/stm32wlxx_it.c ****   * @brief This function handles Prefetch fault, memory access fault.
 144:Core/Src/stm32wlxx_it.c ****   */
 145:Core/Src/stm32wlxx_it.c **** void BusFault_Handler(void)
 146:Core/Src/stm32wlxx_it.c **** {
 217              		.loc 1 146 1 view -0
 218              		.cfi_startproc
 219              		@ Volatile: function does not return.
 220              		@ args = 0, pretend = 0, frame = 0
 221              		@ frame_needed = 0, uses_anonymous_args = 0
 222              		@ link register save eliminated.
 223              	.L13:
 147:Core/Src/stm32wlxx_it.c ****   /* USER CODE BEGIN BusFault_IRQn 0 */
 148:Core/Src/stm32wlxx_it.c **** 
 149:Core/Src/stm32wlxx_it.c ****   /* USER CODE END BusFault_IRQn 0 */
 150:Core/Src/stm32wlxx_it.c ****   while (1)
 224              		.loc 1 150 3 view .LVU59
 151:Core/Src/stm32wlxx_it.c ****   {
 152:Core/Src/stm32wlxx_it.c ****     /* USER CODE BEGIN W1_BusFault_IRQn 0 */
 153:Core/Src/stm32wlxx_it.c ****     /* USER CODE END W1_BusFault_IRQn 0 */
 154:Core/Src/stm32wlxx_it.c ****   }
 225              		.loc 1 154 3 view .LVU60
 150:Core/Src/stm32wlxx_it.c ****   {
 226              		.loc 1 150 9 view .LVU61
 227 0000 FEE7     		b	.L13
 228              		.cfi_endproc
 229              	.LFE850:
 231              		.section	.text.UsageFault_Handler,"ax",%progbits
 232              		.align	1
 233              		.global	UsageFault_Handler
 234              		.syntax unified
 235              		.thumb
 236              		.thumb_func
 238              	UsageFault_Handler:
 239              	.LFB851:
 155:Core/Src/stm32wlxx_it.c **** }
 156:Core/Src/stm32wlxx_it.c **** 
 157:Core/Src/stm32wlxx_it.c **** /**
 158:Core/Src/stm32wlxx_it.c ****   * @brief This function handles Undefined instruction or illegal state.
 159:Core/Src/stm32wlxx_it.c ****   */
 160:Core/Src/stm32wlxx_it.c **** void UsageFault_Handler(void)
 161:Core/Src/stm32wlxx_it.c **** {
 240              		.loc 1 161 1 view -0
 241              		.cfi_startproc
 242              		@ Volatile: function does not return.
 243              		@ args = 0, pretend = 0, frame = 0
 244              		@ frame_needed = 0, uses_anonymous_args = 0
 245              		@ link register save eliminated.
ARM GAS  /tmp/cczoJ1Fh.s 			page 8


 246              	.L15:
 162:Core/Src/stm32wlxx_it.c ****   /* USER CODE BEGIN UsageFault_IRQn 0 */
 163:Core/Src/stm32wlxx_it.c **** 
 164:Core/Src/stm32wlxx_it.c ****   /* USER CODE END UsageFault_IRQn 0 */
 165:Core/Src/stm32wlxx_it.c ****   while (1)
 247              		.loc 1 165 3 view .LVU63
 166:Core/Src/stm32wlxx_it.c ****   {
 167:Core/Src/stm32wlxx_it.c ****     /* USER CODE BEGIN W1_UsageFault_IRQn 0 */
 168:Core/Src/stm32wlxx_it.c ****     /* USER CODE END W1_UsageFault_IRQn 0 */
 169:Core/Src/stm32wlxx_it.c ****   }
 248              		.loc 1 169 3 view .LVU64
 165:Core/Src/stm32wlxx_it.c ****   {
 249              		.loc 1 165 9 view .LVU65
 250 0000 FEE7     		b	.L15
 251              		.cfi_endproc
 252              	.LFE851:
 254              		.section	.text.DebugMon_Handler,"ax",%progbits
 255              		.align	1
 256              		.global	DebugMon_Handler
 257              		.syntax unified
 258              		.thumb
 259              		.thumb_func
 261              	DebugMon_Handler:
 262              	.LFB852:
 170:Core/Src/stm32wlxx_it.c **** }
 171:Core/Src/stm32wlxx_it.c **** 
 172:Core/Src/stm32wlxx_it.c **** /**
 173:Core/Src/stm32wlxx_it.c ****   * @brief This function handles Debug monitor.
 174:Core/Src/stm32wlxx_it.c ****   */
 175:Core/Src/stm32wlxx_it.c **** void DebugMon_Handler(void)
 176:Core/Src/stm32wlxx_it.c **** {
 263              		.loc 1 176 1 view -0
 264              		.cfi_startproc
 265              		@ args = 0, pretend = 0, frame = 0
 266              		@ frame_needed = 0, uses_anonymous_args = 0
 267              		@ link register save eliminated.
 177:Core/Src/stm32wlxx_it.c ****   /* USER CODE BEGIN DebugMonitor_IRQn 0 */
 178:Core/Src/stm32wlxx_it.c **** 
 179:Core/Src/stm32wlxx_it.c ****   /* USER CODE END DebugMonitor_IRQn 0 */
 180:Core/Src/stm32wlxx_it.c ****   /* USER CODE BEGIN DebugMonitor_IRQn 1 */
 181:Core/Src/stm32wlxx_it.c **** 
 182:Core/Src/stm32wlxx_it.c ****   /* USER CODE END DebugMonitor_IRQn 1 */
 183:Core/Src/stm32wlxx_it.c **** }
 268              		.loc 1 183 1 view .LVU67
 269 0000 7047     		bx	lr
 270              		.cfi_endproc
 271              	.LFE852:
 273              		.section	.text.RCC_IRQHandler,"ax",%progbits
 274              		.align	1
 275              		.global	RCC_IRQHandler
 276              		.syntax unified
 277              		.thumb
 278              		.thumb_func
 280              	RCC_IRQHandler:
 281              	.LFB853:
 184:Core/Src/stm32wlxx_it.c **** 
 185:Core/Src/stm32wlxx_it.c **** /******************************************************************************/
ARM GAS  /tmp/cczoJ1Fh.s 			page 9


 186:Core/Src/stm32wlxx_it.c **** /* STM32WLxx Peripheral Interrupt Handlers                                    */
 187:Core/Src/stm32wlxx_it.c **** /* Add here the Interrupt Handlers for the used peripherals.                  */
 188:Core/Src/stm32wlxx_it.c **** /* For the available peripheral interrupt handler names,                      */
 189:Core/Src/stm32wlxx_it.c **** /* please refer to the startup file (startup_stm32wlxx.s).                    */
 190:Core/Src/stm32wlxx_it.c **** /******************************************************************************/
 191:Core/Src/stm32wlxx_it.c **** 
 192:Core/Src/stm32wlxx_it.c **** /**
 193:Core/Src/stm32wlxx_it.c ****   * @brief This function handles RCC Interrupt.
 194:Core/Src/stm32wlxx_it.c ****   */
 195:Core/Src/stm32wlxx_it.c **** void RCC_IRQHandler(void)
 196:Core/Src/stm32wlxx_it.c **** {
 282              		.loc 1 196 1 view -0
 283              		.cfi_startproc
 284              		@ args = 0, pretend = 0, frame = 0
 285              		@ frame_needed = 0, uses_anonymous_args = 0
 286              		@ link register save eliminated.
 197:Core/Src/stm32wlxx_it.c ****   /* USER CODE BEGIN RCC_IRQn 0 */
 198:Core/Src/stm32wlxx_it.c **** 
 199:Core/Src/stm32wlxx_it.c ****   /* USER CODE END RCC_IRQn 0 */
 200:Core/Src/stm32wlxx_it.c ****   /* USER CODE BEGIN RCC_IRQn 1 */
 201:Core/Src/stm32wlxx_it.c **** 
 202:Core/Src/stm32wlxx_it.c ****   /* USER CODE END RCC_IRQn 1 */
 203:Core/Src/stm32wlxx_it.c **** }
 287              		.loc 1 203 1 view .LVU69
 288 0000 7047     		bx	lr
 289              		.cfi_endproc
 290              	.LFE853:
 292              		.section	.text.DMA1_Channel1_IRQHandler,"ax",%progbits
 293              		.align	1
 294              		.global	DMA1_Channel1_IRQHandler
 295              		.syntax unified
 296              		.thumb
 297              		.thumb_func
 299              	DMA1_Channel1_IRQHandler:
 300              	.LFB854:
 204:Core/Src/stm32wlxx_it.c **** 
 205:Core/Src/stm32wlxx_it.c **** /**
 206:Core/Src/stm32wlxx_it.c ****   * @brief This function handles DMA1 Channel 1 Interrupt.
 207:Core/Src/stm32wlxx_it.c ****   */
 208:Core/Src/stm32wlxx_it.c **** void DMA1_Channel1_IRQHandler(void)
 209:Core/Src/stm32wlxx_it.c **** {
 301              		.loc 1 209 1 view -0
 302              		.cfi_startproc
 303              		@ args = 0, pretend = 0, frame = 0
 304              		@ frame_needed = 0, uses_anonymous_args = 0
 305 0000 08B5     		push	{r3, lr}
 306              		.cfi_def_cfa_offset 8
 307              		.cfi_offset 3, -8
 308              		.cfi_offset 14, -4
 210:Core/Src/stm32wlxx_it.c ****   /* USER CODE BEGIN DMA1_Channel1_IRQn 0 */
 211:Core/Src/stm32wlxx_it.c **** 
 212:Core/Src/stm32wlxx_it.c ****   /* USER CODE END DMA1_Channel1_IRQn 0 */
 213:Core/Src/stm32wlxx_it.c ****   HAL_DMA_IRQHandler(&hdma_usart1_tx);
 309              		.loc 1 213 3 view .LVU71
 310 0002 0248     		ldr	r0, .L20
 311 0004 FFF7FEFF 		bl	HAL_DMA_IRQHandler
 312              	.LVL1:
ARM GAS  /tmp/cczoJ1Fh.s 			page 10


 214:Core/Src/stm32wlxx_it.c ****   /* USER CODE BEGIN DMA1_Channel1_IRQn 1 */
 215:Core/Src/stm32wlxx_it.c **** 
 216:Core/Src/stm32wlxx_it.c ****   /* USER CODE END DMA1_Channel1_IRQn 1 */
 217:Core/Src/stm32wlxx_it.c **** }
 313              		.loc 1 217 1 is_stmt 0 view .LVU72
 314 0008 08BD     		pop	{r3, pc}
 315              	.L21:
 316 000a 00BF     		.align	2
 317              	.L20:
 318 000c 00000000 		.word	hdma_usart1_tx
 319              		.cfi_endproc
 320              	.LFE854:
 322              		.section	.text.TIM17_IRQHandler,"ax",%progbits
 323              		.align	1
 324              		.global	TIM17_IRQHandler
 325              		.syntax unified
 326              		.thumb
 327              		.thumb_func
 329              	TIM17_IRQHandler:
 330              	.LFB855:
 218:Core/Src/stm32wlxx_it.c **** 
 219:Core/Src/stm32wlxx_it.c **** /**
 220:Core/Src/stm32wlxx_it.c ****   * @brief This function handles TIM17 Global Interrupt.
 221:Core/Src/stm32wlxx_it.c ****   */
 222:Core/Src/stm32wlxx_it.c **** void TIM17_IRQHandler(void)
 223:Core/Src/stm32wlxx_it.c **** {
 331              		.loc 1 223 1 is_stmt 1 view -0
 332              		.cfi_startproc
 333              		@ args = 0, pretend = 0, frame = 0
 334              		@ frame_needed = 0, uses_anonymous_args = 0
 335 0000 08B5     		push	{r3, lr}
 336              		.cfi_def_cfa_offset 8
 337              		.cfi_offset 3, -8
 338              		.cfi_offset 14, -4
 224:Core/Src/stm32wlxx_it.c ****   /* USER CODE BEGIN TIM17_IRQn 0 */
 225:Core/Src/stm32wlxx_it.c **** 
 226:Core/Src/stm32wlxx_it.c ****   /* USER CODE END TIM17_IRQn 0 */
 227:Core/Src/stm32wlxx_it.c ****   HAL_TIM_IRQHandler(&htim17);
 339              		.loc 1 227 3 view .LVU74
 340 0002 0248     		ldr	r0, .L24
 341 0004 FFF7FEFF 		bl	HAL_TIM_IRQHandler
 342              	.LVL2:
 228:Core/Src/stm32wlxx_it.c ****   /* USER CODE BEGIN TIM17_IRQn 1 */
 229:Core/Src/stm32wlxx_it.c **** 
 230:Core/Src/stm32wlxx_it.c ****   /* USER CODE END TIM17_IRQn 1 */
 231:Core/Src/stm32wlxx_it.c **** }
 343              		.loc 1 231 1 is_stmt 0 view .LVU75
 344 0008 08BD     		pop	{r3, pc}
 345              	.L25:
 346 000a 00BF     		.align	2
 347              	.L24:
 348 000c 00000000 		.word	htim17
 349              		.cfi_endproc
 350              	.LFE855:
 352              		.section	.text.USART1_IRQHandler,"ax",%progbits
 353              		.align	1
 354              		.global	USART1_IRQHandler
ARM GAS  /tmp/cczoJ1Fh.s 			page 11


 355              		.syntax unified
 356              		.thumb
 357              		.thumb_func
 359              	USART1_IRQHandler:
 360              	.LFB856:
 232:Core/Src/stm32wlxx_it.c **** 
 233:Core/Src/stm32wlxx_it.c **** /**
 234:Core/Src/stm32wlxx_it.c ****   * @brief This function handles USART1 Interrupt.
 235:Core/Src/stm32wlxx_it.c ****   */
 236:Core/Src/stm32wlxx_it.c **** void USART1_IRQHandler(void)
 237:Core/Src/stm32wlxx_it.c **** {
 361              		.loc 1 237 1 is_stmt 1 view -0
 362              		.cfi_startproc
 363              		@ args = 0, pretend = 0, frame = 0
 364              		@ frame_needed = 0, uses_anonymous_args = 0
 365 0000 08B5     		push	{r3, lr}
 366              		.cfi_def_cfa_offset 8
 367              		.cfi_offset 3, -8
 368              		.cfi_offset 14, -4
 238:Core/Src/stm32wlxx_it.c ****   /* USER CODE BEGIN USART1_IRQn 0 */
 239:Core/Src/stm32wlxx_it.c **** 
 240:Core/Src/stm32wlxx_it.c ****   /* USER CODE END USART1_IRQn 0 */
 241:Core/Src/stm32wlxx_it.c ****   HAL_UART_IRQHandler(&huart1);
 369              		.loc 1 241 3 view .LVU77
 370 0002 0248     		ldr	r0, .L28
 371 0004 FFF7FEFF 		bl	HAL_UART_IRQHandler
 372              	.LVL3:
 242:Core/Src/stm32wlxx_it.c ****   /* USER CODE BEGIN USART1_IRQn 1 */
 243:Core/Src/stm32wlxx_it.c **** 
 244:Core/Src/stm32wlxx_it.c ****   /* USER CODE END USART1_IRQn 1 */
 245:Core/Src/stm32wlxx_it.c **** }
 373              		.loc 1 245 1 is_stmt 0 view .LVU78
 374 0008 08BD     		pop	{r3, pc}
 375              	.L29:
 376 000a 00BF     		.align	2
 377              	.L28:
 378 000c 00000000 		.word	huart1
 379              		.cfi_endproc
 380              	.LFE856:
 382              		.text
 383              	.Letext0:
 384              		.file 2 "/home/zgsdlv/.arduino15/packages/STMicroelectronics/tools/xpack-arm-none-eabi-gcc/14.2.1-
 385              		.file 3 "/home/zgsdlv/.arduino15/packages/STMicroelectronics/tools/xpack-arm-none-eabi-gcc/14.2.1-
 386              		.file 4 "Drivers/CMSIS/Include/core_cm4.h"
 387              		.file 5 "Drivers/CMSIS/Device/ST/STM32WLxx/Include/stm32wle5xx.h"
 388              		.file 6 "Drivers/STM32WLxx_HAL_Driver/Inc/stm32wlxx_hal_def.h"
 389              		.file 7 "Drivers/STM32WLxx_HAL_Driver/Inc/stm32wlxx_hal_dma.h"
 390              		.file 8 "Drivers/STM32WLxx_HAL_Driver/Inc/stm32wlxx_hal_tim.h"
 391              		.file 9 "Drivers/STM32WLxx_HAL_Driver/Inc/stm32wlxx_hal_uart.h"
 392              		.file 10 "Drivers/STM32WLxx_HAL_Driver/Inc/stm32wlxx_ll_dma.h"
ARM GAS  /tmp/cczoJ1Fh.s 			page 12

