ARM GAS  /tmp/ccouqzqd.s 			page 1


   1              		.cpu cortex-m4
   2              		.arch armv7e-m
   3              		.fpu softvfp
   4              		.eabi_attribute 20, 1
   5              		.eabi_attribute 21, 1
   6              		.eabi_attribute 23, 3
   7              		.eabi_attribute 24, 1
   8              		.eabi_attribute 25, 1
   9              		.eabi_attribute 26, 1
  10              		.eabi_attribute 30, 1
  11              		.eabi_attribute 34, 1
  12              		.eabi_attribute 18, 4
  13              		.file	"sys_app.c"
  14              		.text
  15              	.Ltext0:
  16              		.cfi_sections	.debug_frame
  17              		.file 1 "Core/Src/sys_app.c"
  18              		.section	.text.SystemApp_Init,"ax",%progbits
  19              		.align	1
  20              		.global	SystemApp_Init
  21              		.syntax unified
  22              		.thumb
  23              		.thumb_func
  25              	SystemApp_Init:
  26              	.LFB872:
   1:Core/Src/sys_app.c **** /* USER CODE BEGIN Header */
   2:Core/Src/sys_app.c **** /**
   3:Core/Src/sys_app.c ****   ******************************************************************************
   4:Core/Src/sys_app.c ****   * @file    sys_app.c
   5:Core/Src/sys_app.c ****   * @author  MCD Application Team
   6:Core/Src/sys_app.c ****   * @brief   Initializes HW and SW system entities (not related to the radio)
   7:Core/Src/sys_app.c ****   ******************************************************************************
   8:Core/Src/sys_app.c ****   * @attention
   9:Core/Src/sys_app.c ****   *
  10:Core/Src/sys_app.c ****   * Copyright (c) 2026 STMicroelectronics.
  11:Core/Src/sys_app.c ****   * All rights reserved.
  12:Core/Src/sys_app.c ****   *
  13:Core/Src/sys_app.c ****   * This software is licensed under terms that can be found in the LICENSE file
  14:Core/Src/sys_app.c ****   * in the root directory of this software component.
  15:Core/Src/sys_app.c ****   * If no LICENSE file comes with this software, it is provided AS-IS.
  16:Core/Src/sys_app.c ****   *
  17:Core/Src/sys_app.c ****   ******************************************************************************
  18:Core/Src/sys_app.c ****   */
  19:Core/Src/sys_app.c **** /* USER CODE END Header */
  20:Core/Src/sys_app.c **** 
  21:Core/Src/sys_app.c **** /* Includes ------------------------------------------------------------------*/
  22:Core/Src/sys_app.c **** #include <stdio.h>
  23:Core/Src/sys_app.c **** #include "platform.h"
  24:Core/Src/sys_app.c **** #include "sys_app.h"
  25:Core/Src/sys_app.c **** #include "stm32_systime.h"
  26:Core/Src/sys_app.c **** #include "timer_if.h"
  27:Core/Src/sys_app.c **** #include "utilities_def.h"
  28:Core/Src/sys_app.c **** 
  29:Core/Src/sys_app.c **** /* USER CODE BEGIN Includes */
  30:Core/Src/sys_app.c **** 
  31:Core/Src/sys_app.c **** /* USER CODE END Includes */
  32:Core/Src/sys_app.c **** 
ARM GAS  /tmp/ccouqzqd.s 			page 2


  33:Core/Src/sys_app.c **** /* External variables ---------------------------------------------------------*/
  34:Core/Src/sys_app.c **** /* USER CODE BEGIN EV */
  35:Core/Src/sys_app.c **** 
  36:Core/Src/sys_app.c **** /* USER CODE END EV */
  37:Core/Src/sys_app.c **** 
  38:Core/Src/sys_app.c **** /* Private typedef -----------------------------------------------------------*/
  39:Core/Src/sys_app.c **** /* USER CODE BEGIN PTD */
  40:Core/Src/sys_app.c **** 
  41:Core/Src/sys_app.c **** /* USER CODE END PTD */
  42:Core/Src/sys_app.c **** 
  43:Core/Src/sys_app.c **** /* Private define ------------------------------------------------------------*/
  44:Core/Src/sys_app.c **** /* USER CODE BEGIN PD */
  45:Core/Src/sys_app.c **** 
  46:Core/Src/sys_app.c **** /* USER CODE END PD */
  47:Core/Src/sys_app.c **** 
  48:Core/Src/sys_app.c **** /* Private macro -------------------------------------------------------------*/
  49:Core/Src/sys_app.c **** /* USER CODE BEGIN PM */
  50:Core/Src/sys_app.c **** 
  51:Core/Src/sys_app.c **** /* USER CODE END PM */
  52:Core/Src/sys_app.c **** 
  53:Core/Src/sys_app.c **** /* Private variables ---------------------------------------------------------*/
  54:Core/Src/sys_app.c **** static uint8_t SYS_TimerInitialisedFlag = 0;
  55:Core/Src/sys_app.c **** 
  56:Core/Src/sys_app.c **** /* USER CODE BEGIN PV */
  57:Core/Src/sys_app.c **** 
  58:Core/Src/sys_app.c **** /* USER CODE END PV */
  59:Core/Src/sys_app.c **** 
  60:Core/Src/sys_app.c **** /* Private function prototypes -----------------------------------------------*/
  61:Core/Src/sys_app.c **** /* USER CODE BEGIN PFP */
  62:Core/Src/sys_app.c **** 
  63:Core/Src/sys_app.c **** /* USER CODE END PFP */
  64:Core/Src/sys_app.c **** 
  65:Core/Src/sys_app.c **** /* Exported functions ---------------------------------------------------------*/
  66:Core/Src/sys_app.c **** void SystemApp_Init(void)
  67:Core/Src/sys_app.c **** {
  27              		.loc 1 67 1 view -0
  28              		.cfi_startproc
  29              		@ args = 0, pretend = 0, frame = 0
  30              		@ frame_needed = 0, uses_anonymous_args = 0
  31 0000 08B5     		push	{r3, lr}
  32              		.cfi_def_cfa_offset 8
  33              		.cfi_offset 3, -8
  34              		.cfi_offset 14, -4
  68:Core/Src/sys_app.c ****   /* USER CODE BEGIN SystemApp_Init_1 */
  69:Core/Src/sys_app.c ****   UTIL_ADV_TRACE_Init();
  35              		.loc 1 69 3 view .LVU1
  36 0002 FFF7FEFF 		bl	UTIL_ADV_TRACE_Init
  37              	.LVL0:
  70:Core/Src/sys_app.c ****   /* USER CODE END SystemApp_Init_1 */
  71:Core/Src/sys_app.c **** 
  72:Core/Src/sys_app.c **** }
  38              		.loc 1 72 1 is_stmt 0 view .LVU2
  39 0006 08BD     		pop	{r3, pc}
  40              		.cfi_endproc
  41              	.LFE872:
  43              		.section	.text.HAL_GetTick,"ax",%progbits
  44              		.align	1
ARM GAS  /tmp/ccouqzqd.s 			page 3


  45              		.global	HAL_GetTick
  46              		.syntax unified
  47              		.thumb
  48              		.thumb_func
  50              	HAL_GetTick:
  51              	.LFB873:
  73:Core/Src/sys_app.c **** 
  74:Core/Src/sys_app.c **** /* USER CODE BEGIN EF */
  75:Core/Src/sys_app.c **** 
  76:Core/Src/sys_app.c **** /* USER CODE END EF */
  77:Core/Src/sys_app.c **** 
  78:Core/Src/sys_app.c **** /* Private functions ---------------------------------------------------------*/
  79:Core/Src/sys_app.c **** /* USER CODE BEGIN PrFD */
  80:Core/Src/sys_app.c **** 
  81:Core/Src/sys_app.c **** /* USER CODE END PrFD */
  82:Core/Src/sys_app.c **** 
  83:Core/Src/sys_app.c **** /* HAL overload functions ---------------------------------------------------------*/
  84:Core/Src/sys_app.c **** 
  85:Core/Src/sys_app.c **** /* Set #if 0 if you want to keep the default HAL instead overcharge them*/
  86:Core/Src/sys_app.c **** /* USER CODE BEGIN Overload_HAL_weaks_1 */
  87:Core/Src/sys_app.c **** #if 1
  88:Core/Src/sys_app.c **** /* USER CODE END Overload_HAL_weaks_1 */
  89:Core/Src/sys_app.c **** 
  90:Core/Src/sys_app.c **** /* USER CODE BEGIN Overload_HAL_weaks_1a */
  91:Core/Src/sys_app.c **** 
  92:Core/Src/sys_app.c **** /* USER CODE END Overload_HAL_weaks_1a */
  93:Core/Src/sys_app.c **** 
  94:Core/Src/sys_app.c **** /**
  95:Core/Src/sys_app.c ****   * @note This function overwrites the __weak one from HAL
  96:Core/Src/sys_app.c ****   */
  97:Core/Src/sys_app.c **** uint32_t HAL_GetTick(void)
  98:Core/Src/sys_app.c **** {
  52              		.loc 1 98 1 is_stmt 1 view -0
  53              		.cfi_startproc
  54              		@ args = 0, pretend = 0, frame = 0
  55              		@ frame_needed = 0, uses_anonymous_args = 0
  56              		@ link register save eliminated.
  99:Core/Src/sys_app.c ****   uint32_t ret = 0;
  57              		.loc 1 99 3 view .LVU4
  58              	.LVL1:
 100:Core/Src/sys_app.c ****   /* TIMER_IF can be based on other counter the SysTick e.g. RTC */
 101:Core/Src/sys_app.c ****   /* USER CODE BEGIN HAL_GetTick_1 */
 102:Core/Src/sys_app.c **** 
 103:Core/Src/sys_app.c ****   /* USER CODE END HAL_GetTick_1 */
 104:Core/Src/sys_app.c ****   if (SYS_TimerInitialisedFlag == 0)
  59              		.loc 1 104 3 view .LVU5
 105:Core/Src/sys_app.c ****   {
 106:Core/Src/sys_app.c ****     /* TIMER_IF_GetTimerValue should be used only once UTIL_TIMER_Init() is initialized */
 107:Core/Src/sys_app.c ****     /* If HAL_Delay or a TIMEOUT countdown is necessary during initialization phase */
 108:Core/Src/sys_app.c ****     /* please use temporarily another timebase source (SysTick or TIMx), which implies also */
 109:Core/Src/sys_app.c ****     /* to rework the above function HAL_InitTick() and to call HAL_IncTick() on the timebase IRQ */
 110:Core/Src/sys_app.c ****     /* Note: when TIMER_IF is based on RTC, stm32wlxx_hal_rtc.c calls this function before TimeServ
 111:Core/Src/sys_app.c ****     /* RTC TIMEOUT will not expire, i.e. if RTC has an hw problem it will keep looping in the RTC_I
 112:Core/Src/sys_app.c ****     /* USER CODE BEGIN HAL_GetTick_EarlyCall */
 113:Core/Src/sys_app.c **** 
 114:Core/Src/sys_app.c ****     /* USER CODE END HAL_GetTick_EarlyCall */
 115:Core/Src/sys_app.c ****   }
ARM GAS  /tmp/ccouqzqd.s 			page 4


 116:Core/Src/sys_app.c ****   else
 117:Core/Src/sys_app.c ****   {
 118:Core/Src/sys_app.c ****     ret = TIMER_IF_GetTimerValue();
 119:Core/Src/sys_app.c ****   }
 120:Core/Src/sys_app.c ****   /* USER CODE BEGIN HAL_GetTick_2 */
 121:Core/Src/sys_app.c **** 
 122:Core/Src/sys_app.c ****   /* USER CODE END HAL_GetTick_2 */
 123:Core/Src/sys_app.c ****   return ret;
  60              		.loc 1 123 3 view .LVU6
 124:Core/Src/sys_app.c **** }
  61              		.loc 1 124 1 is_stmt 0 view .LVU7
  62 0000 0020     		movs	r0, #0
  63 0002 7047     		bx	lr
  64              		.cfi_endproc
  65              	.LFE873:
  67              		.section	.text.HAL_Delay,"ax",%progbits
  68              		.align	1
  69              		.global	HAL_Delay
  70              		.syntax unified
  71              		.thumb
  72              		.thumb_func
  74              	HAL_Delay:
  75              	.LVL2:
  76              	.LFB874:
 125:Core/Src/sys_app.c **** 
 126:Core/Src/sys_app.c **** /**
 127:Core/Src/sys_app.c ****   * @note This function overwrites the __weak one from HAL
 128:Core/Src/sys_app.c ****   */
 129:Core/Src/sys_app.c **** void HAL_Delay(__IO uint32_t Delay)
 130:Core/Src/sys_app.c **** {
  77              		.loc 1 130 1 is_stmt 1 view -0
  78              		.cfi_startproc
  79              		@ args = 0, pretend = 0, frame = 8
  80              		@ frame_needed = 0, uses_anonymous_args = 0
  81              		.loc 1 130 1 is_stmt 0 view .LVU9
  82 0000 00B5     		push	{lr}
  83              		.cfi_def_cfa_offset 4
  84              		.cfi_offset 14, -4
  85 0002 83B0     		sub	sp, sp, #12
  86              		.cfi_def_cfa_offset 16
  87 0004 0190     		str	r0, [sp, #4]
 131:Core/Src/sys_app.c ****   /* TIMER_IF can be based on other counter the SysTick e.g. RTC */
 132:Core/Src/sys_app.c ****   /* USER CODE BEGIN HAL_Delay_1 */
 133:Core/Src/sys_app.c **** 
 134:Core/Src/sys_app.c ****   /* USER CODE END HAL_Delay_1 */
 135:Core/Src/sys_app.c ****   TIMER_IF_DelayMs(Delay);
  88              		.loc 1 135 3 is_stmt 1 view .LVU10
  89 0006 0198     		ldr	r0, [sp, #4]
  90              	.LVL3:
  91              		.loc 1 135 3 is_stmt 0 view .LVU11
  92 0008 FFF7FEFF 		bl	TIMER_IF_DelayMs
  93              	.LVL4:
 136:Core/Src/sys_app.c ****   /* USER CODE BEGIN HAL_Delay_2 */
 137:Core/Src/sys_app.c **** 
 138:Core/Src/sys_app.c ****   /* USER CODE END HAL_Delay_2 */
 139:Core/Src/sys_app.c **** }
  94              		.loc 1 139 1 view .LVU12
ARM GAS  /tmp/ccouqzqd.s 			page 5


  95 000c 03B0     		add	sp, sp, #12
  96              		.cfi_def_cfa_offset 4
  97              		@ sp needed
  98 000e 5DF804FB 		ldr	pc, [sp], #4
  99              		.loc 1 139 1 view .LVU13
 100              		.cfi_endproc
 101              	.LFE874:
 103              		.text
 104              	.Letext0:
 105              		.file 2 "/home/zgsdlv/.arduino15/packages/STMicroelectronics/tools/xpack-arm-none-eabi-gcc/14.2.1-
 106              		.file 3 "/home/zgsdlv/.arduino15/packages/STMicroelectronics/tools/xpack-arm-none-eabi-gcc/14.2.1-
 107              		.file 4 "Utilities/trace/adv_trace/stm32_adv_trace.h"
 108              		.file 5 "Core/Inc/timer_if.h"
 109              		.file 6 "Drivers/STM32WLxx_HAL_Driver/Inc/stm32wlxx_ll_dma.h"
ARM GAS  /tmp/ccouqzqd.s 			page 6

